******************************************************************************
               TMS320C6x Linker PC v7.4.8                      
******************************************************************************
>> Linked Fri Aug 22 10:02:04 2014

OUTPUT FILE NAME:   <finna-be-wallhack.out>
ENTRY POINT SYMBOL: "_c_int00"  address: 0081e120


MEMORY CONFIGURATION

         name            origin    length      used     unused   attr    fill
----------------------  --------  ---------  --------  --------  ----  --------
  L2SRAM                00800000   000c0000  0002f0d2  00090f2e  RW X
  MSMCSRAM              0c000000   00200000  0010c7f0  000f3810  RW X
  DDR3                  80000000   20000000  00000000  20000000  RWIX


SEGMENT ALLOCATION MAP

run origin  load origin   length   init length attrs members
----------  ----------- ---------- ----------- ----- -------
00800000    00800000    00029ee2   00029ee2    r-x
  00800000    00800000    000266c0   000266c0    r-x .text
  008266c0    008266c0    00003822   00003822    r-- .const
00829ee8    00829ee8    00003b20   00000000    rw-
  00829ee8    00829ee8    00002000   00000000    rw- .stack
  0082bee8    0082bee8    00001b20   00000000    rw- .far
0082da08    0082da08    00000c1c   00000c1c    rw-
  0082da08    0082da08    00000c1c   00000c1c    rw- .fardata
0082e628    0082e628    00000120   00000000    rw-
  0082e628    0082e628    00000120   00000000    rw- .cio
0082e748    0082e748    00000048   00000048    r--
  0082e748    0082e748    00000048   00000048    r-- .init_array
0082e790    0082e790    00000010   00000000    rw-
  0082e790    0082e790    00000010   00000000    rw- .bss
0082e7a0    0082e7a0    00000008   00000008    rw-
  0082e7a0    0082e7a0    00000008   00000008    rw- .neardata
0082e7a8    0082e7a8    00000028   00000028    r--
  0082e7a8    0082e7a8    00000028   00000028    r-- .rodata
0082e7d0    0082e7d0    00000010   00000010    r--
  0082e7d0    0082e7d0    00000010   00000010    r-- .switch
0082e800    0082e800    000008fc   000008fc    r-x
  0082e800    0082e800    00000200   00000200    r-x .vecs
  0082ea00    0082ea00    000006fc   000006fc    r-- .cinit
0c000000    0c000000    0010c7f0   00000000    rw-
  0c000000    0c000000    000ffff0   00000000    rw- .memHeap
  0c0ffff0    0c0ffff0    0000c800   00000000    rw- .bigMem


SECTION ALLOCATION MAP

 output                                  attributes/
section   page    origin      length       input sections
--------  ----  ----------  ----------   ----------------
xdc.meta   0    00800000    00000110     COPY SECTION
                  00800000    00000110     scheduler_pe66.oe66 (xdc.meta)

.text      0    00800000    000266c0     
                  00800000    000015c0     dynamicMemory.obj (.text)
                  008015c0    000014c0     blasFunctions.obj (.text)
                  00802a80    00000dc0     lapackFunctions.obj (.text)
                  00803840    00000a00     frameworkFunctions.obj (.text)
                  00804240    00000920     rts6600_elf.lib : wiostrea.obj (.text:_ZNSt6_WinitC1Ev)
                  00804b60    000008a0     ti.targets.rts6000.ae66 : System.oe66 (.text:xdc_runtime_System_doPrint__I)
                  00805400    000007c0     pipdScheduling.obj (.text)
                  00805bc0    00000780     succprojScheduling.obj (.text)
                  00806340    00000780     sysbios.ae66 : BIOS.obj (.text:ti_sysbios_family_c64p_Exception_handler__I)
                  00806ac0    00000760     rts6600_elf.lib : iostream.obj (.text:_ZNSt8ios_base4InitC1Ev)
                  00807220    00000680                     : wiostrea.obj (.text:_ZNSt13basic_filebufIwSt11char_traitsIwEE8overflowEj)
                  008078a0    00000640                     : iostream.obj (.text:_ZNSt13basic_filebufIcSt11char_traitsIcEE8overflowEi)
                  00807ee0    00000620                     : wiostrea.obj (.text:_ZNSt13basic_filebufIwSt11char_traitsIwEE5uflowEv)
                  00808500    000005e0                     : iostream.obj (.text:_ZNSt13basic_filebufIcSt11char_traitsIcEE5uflowEv)
                  00808ae0    000005e0                     : powf.obj (.text:powf)
                  008090c0    000005c0                     : divd.obj (.text:__c6xabi_divd)
                  00809680    000005c0                     : _printfi.obj (.text:_getarg_diouxp)
                  00809c40    000005a0     displayFunctions.obj (.text)
                  0080a1e0    00000580     dynamicMemory.obj (.text:_ZNKSt7num_putIcSt19ostreambuf_iteratorIcSt11char_traitsIcEEE5_FputES3_RSt8ios_basecPKcjjjj)
                  0080a760    00000540     rts6600_elf.lib : iostream.obj (.text:_ZNSt13basic_filebufIcSt11char_traitsIcEE9_EndwriteEv)
                  0080aca0    00000540                     : wiostrea.obj (.text:_ZNSt13basic_filebufIwSt11char_traitsIwEE9_EndwriteEv)
                  0080b1e0    00000520                     : _printfi.obj (.text:_setfield)
                  0080b700    00000520     supportingFunctions.obj (.text)
                  0080bc20    00000500     rts6600_elf.lib : ios.obj (.text:_ZNSt8ios_base5clearENSt5_IosbIiE8_IostateEb)
                  0080c120    000004c0                     : fwrite.obj (.text:fwrite)
                  0080c5e0    00000460                     : _printfi.obj (.text:_printfi)
                  0080ca40    00000400                     : wlocale.obj (.text:__sti___11_wlocale_cpp_5e80b67f)
                  0080ce40    00000400     greedyScheduling.obj (.text)
                  0080d240    00000400     sysbios.ae66 : BIOS.obj (.text:ti_sysbios_knl_Semaphore_pend__E)
                  0080d640    000003e0                  : BIOS.obj (.text:ti_sysbios_timers_timer64_Timer_Module_startup__E)
                  0080da20    000003a0     rts6600_elf.lib : fputs.obj (.text:fputs)
                  0080ddc0    00000320                     : _printfi.obj (.text:_pproc_fge)
                  0080e0e0    000002e0                     : _printfi.obj (.text:_pproc_fwp)
                  0080e3c0    000002e0     sysbios.ae66 : BIOS.obj (.text:ti_sysbios_timers_timer64_Timer_deviceConfig__I)
                  0080e6a0    000002e0                  : BIOS.obj (.text:ti_sysbios_timers_timer64_Timer_setPeriodMicroSecs__E)
                  0080e980    000002c0     dynamicMemory.obj (.text:_ZNKSt7num_putIcSt19ostreambuf_iteratorIcSt11char_traitsIcEEE5_IputES3_RSt8ios_basecPcj)
                  0080ec40    000002c0     dynamicMemory.obj (.text:_ZNKSt7num_putIcSt19ostreambuf_iteratorIcSt11char_traitsIcEEE6do_putES3_RSt8ios_basecd)
                  0080ef00    000002c0     dynamicMemory.obj (.text:_ZNKSt7num_putIcSt19ostreambuf_iteratorIcSt11char_traitsIcEEE6do_putES3_RSt8ios_basece)
                  0080f1c0    000002a0     rts6600_elf.lib : _printfi.obj (.text:fcvt)
                  0080f460    000002a0     lteSystem.obj (.text)
                  0080f700    000002a0     sysbios.ae66 : BIOS.obj (.text:ti_sysbios_knl_Clock_workFunc__E)
                  0080f9a0    00000280     blasFunctions.obj (.text:_ZSt5_FabsIfET_RKSt7complexIS0_EPi)
                  0080fc20    00000280     blasFunctions.obj (.text:_ZStlsISt11char_traitsIcEERSt13basic_ostreamIcT_ES5_PKc)
                  0080fea0    00000280     rts6600_elf.lib : divf.obj (.text:__c6xabi_divf)
                  00810120    00000280                     : _printfi.obj (.text:ecvt)
                  008103a0    00000280     randomScheduling.obj (.text)
                  00810620    00000260     lapackFunctions.obj (.text:_ZNSt13_Complex_baseIfSt16_C_float_complexE4_DivIfEEvRKSt7complexIT_E)
                  00810880    00000260     rts6600_elf.lib : wiostrea.obj (.text:_ZNSt6_WinitD1Ev)
                  00810ae0    00000260                     : iostream.obj (.text:__sti___12_iostream_cpp_3a72482d)
                  00810d40    00000260                     : wiostrea.obj (.text:__sti___12_wiostrea_cpp_5e80b67f)
                  00810fa0    00000260     sysbios.ae66 : BIOS.obj (.text:ti_sysbios_family_c64p_Hwi_dispatchCore__I)
                  00811200    00000260     ti.targets.rts6000.ae66 : Startup.oe66 (.text:xdc_runtime_Startup_startMods__I)
                  00811460    00000260     scheduler_pe66.oe66 (.text:xdc_runtime_System_printfExtend__I)
                  008116c0    00000240     rts6600_elf.lib : iostream.obj (.text:_ZNSt13basic_filebufIcSt11char_traitsIcEE5imbueERKSt6locale)
                  00811900    00000240                     : wiostrea.obj (.text:_ZNSt13basic_filebufIwSt11char_traitsIwEE5imbueERKSt6locale)
                  00811b40    00000240                     : imath64.obj (.text:__c6xabi_divull)
                  00811d80    00000240                     : _printfi.obj (.text:_pconv_e)
                  00811fc0    00000240                     : _printfi.obj (.text:_pproc_diouxp)
                  00812200    00000240     sysbios.ae66 : BIOS.obj (.text:ti_sysbios_family_c64p_Exception_internalHandler__I)
                  00812440    00000240     ti.targets.rts6000.ae66 : Core-mem.oe66 (.text:xdc_runtime_Core_createObject__I)
                  00812680    00000240                             : LoggerBuf.oe66 (.text:xdc_runtime_LoggerBuf_write8__E)
                  008128c0    00000220     rts6600_elf.lib : _printfi.obj (.text:_pproc_str)
                  00812ae0    00000220                     : fputc.obj (.text:fputc)
                  00812d00    00000220     sysbios.ae66 : BIOS.obj (.text:ti_sysbios_knl_Swi_run__I)
                  00812f20    00000200     rts6600_elf.lib : _printfi.obj (.text:_pconv_g)
                  00813120    00000200     sysbios.ae66 : c64p_Hwi_disp_always.obj (.text:_ti_sysbios_family_c64p_Hwi_dispatchAlways)
                  00813320    00000200     rts6600_elf.lib : setvbuf.obj (.text:setvbuf)
                  00813520    00000200     ti.targets.rts6000.ae66 : Error.oe66 (.text:xdc_runtime_Error_policyDefault__E)
                  00813720    000001e0     dynamicMemory.obj (.text:_ZNKSt7num_putIcSt19ostreambuf_iteratorIcSt11char_traitsIcEEE6do_putES3_RSt8ios_basecb)
                  00813900    000001c0     rts6600_elf.lib : string.obj (.text:_ZNKSt12_String_base5_XranEv)
                  00813ac0    000001c0                     : iostream.obj (.text:_ZNSt8ios_base4InitD1Ev)
                  00813c80    000001c0                     : _printfi.obj (.text:_mcpy)
                  00813e40    000001c0     sysbios.ae66 : BIOS.obj (.text:ti_sysbios_knl_Task_checkStacks__E)
                  00814000    000001c0     ti.targets.rts6000.ae66 : Text.oe66 (.text:xdc_runtime_Text_putSite__E)
                  008141c0    000001a0     rts6600_elf.lib : trgdrv.obj (.text:HOSTrename)
                  00814360    000001a0                     : xlocinfo.obj (.text:_Getctyptab)
                  00814500    000001a0                     : vec_newdel.obj (.text:_Z17array_new_generalPvjjjS_PFYS_S_ES1_PFYS_jEPFYvS_Eii)
                  008146a0    000001a0                     : wiostrea.obj (.text:_ZNKSt7codecvtIwciE5do_inERiPKcS3_RS3_PwS5_RS5_)
                  00814840    000001a0                     : iostream.obj (.text:_ZNSt13basic_filebufIcSt11char_traitsIcEE7seekoffElNSt5_IosbIiE8_SeekdirENS4_9_OpenmodeE)
                  008149e0    000001a0                     : wiostrea.obj (.text:_ZNSt13basic_filebufIwSt11char_traitsIwEE7seekoffElNSt5_IosbIiE8_SeekdirENS4_9_OpenmodeE)
                  00814b80    000001a0                     : imath40.obj (.text:__c6xabi_divul)
                  00814d20    000001a0     sysbios.ae66 : BIOS.obj (.text:ti_sysbios_knl_Task_schedule__I)
                  00814ec0    000001a0                  : BIOS.obj (.text:ti_sysbios_timers_timer64_Timer_start__E)
                  00815060    000001a0     ti.targets.rts6000.ae66 : LoggerBuf.oe66 (.text:xdc_runtime_LoggerBuf_write4__E)
                  00815200    00000180     rts6600_elf.lib : wiostrea.obj (.text:_ZNKSt5ctypeIwE10do_toupperEPwPKw)
                  00815380    00000180                     : wiostrea.obj (.text:_ZNKSt7codecvtIwciE6do_outERiPKwS3_RS3_PcS5_RS5_)
                  00815500    00000180                     : iostream.obj (.text:_ZNSt13basic_filebufIcSt11char_traitsIcEE7seekposESt4fposIiENSt5_IosbIiE9_OpenmodeE)
                  00815680    00000180                     : wiostrea.obj (.text:_ZNSt13basic_filebufIwSt11char_traitsIwEE7seekposESt4fposIiENSt5_IosbIiE9_OpenmodeE)
                  00815800    00000180                     : wiostrea.obj (.text:_ZSt9use_facetISt5ctypeIwEERKT_RKSt6locale)
                  00815980    00000180                     : copy_decompress_rle.obj (.text:__TI_decompress_rle_core)
                  00815b00    00000180     memoryManagement.obj (.text)
                  00815c80    00000180     sysbios.ae66 : c64p_Exception_asm.obj (.text)
                  00815e00    00000180                  : BIOS.obj (.text:ti_sysbios_heaps_HeapMem_alloc__E)
                  00815f80    00000180                  : BIOS.obj (.text:ti_sysbios_knl_Semaphore_post__E)
                  00816100    00000180                  : BIOS.obj (.text:ti_sysbios_knl_Task_startCore__E)
                  00816280    00000180     ti.targets.rts6000.ae66 : Core-smem.oe66 (.text:xdc_runtime_Core_constructObject__I)
                  00816400    00000160     rts6600_elf.lib : string.obj (.text:_ZNKSt12_String_base5_XlenEv)
                  00816560    00000160                     : iostream.obj (.text:_ZNSt13basic_filebufIcSt11char_traitsIcEE9pbackfailEi)
                  008166c0    00000160                     : iostream.obj (.text:_ZNSt13basic_filebufIcSt11char_traitsIcEED0Ev)
                  00816820    00000160                     : wiostrea.obj (.text:_ZNSt13basic_filebufIwSt11char_traitsIwEE9pbackfailEj)
                  00816980    00000160                     : wiostrea.obj (.text:_ZNSt13basic_filebufIwSt11char_traitsIwEED0Ev)
                  00816ae0    00000160                     : iostream.obj (.text:_ZNSt9basic_iosIcSt11char_traitsIcEE4initEPSt15basic_streambufIcS1_Eb)
                  00816c40    00000160                     : wiostrea.obj (.text:_ZNSt9basic_iosIwSt11char_traitsIwEE4initEPSt15basic_streambufIwS1_Eb)
                  00816da0    00000160                     : frexpf.obj (.text:frexpf)
                  00816f00    00000160                     : ldexpf.obj (.text:ldexpf)
                  00817060    00000140     dynamicMemory.obj (.text:_ZNSolsEb)
                  008171a0    00000140     dynamicMemory.obj (.text:_ZNSolsEj)
                  008172e0    00000140     rts6600_elf.lib : iostream.obj (.text:_ZNSt13basic_filebufIcSt11char_traitsIcEE6setbufEPci)
                  00817420    00000140                     : iostream.obj (.text:_ZNSt13basic_filebufIcSt11char_traitsIcEED1Ev)
                  00817560    00000140                     : wiostrea.obj (.text:_ZNSt13basic_filebufIwSt11char_traitsIwEED1Ev)
                  008176a0    00000140                     : locale0.obj (.text:_ZNSt6locale5_InitEv)
                  008177e0    00000140                     : locale0.obj (.text:_ZNSt6locale7_LocimpD1Ev)
                  00817920    00000140                     : locale0.obj (.text:_ZNSt8_LocinfoC1EPKc)
                  00817a60    00000140     dynamicMemory.obj (.text:_ZNSt8numpunctIcE5_InitERKSt8_Locinfo)
                  00817ba0    00000140     boot.ae66 : autoinit.oe66 (.text:_auto_init_elf)
                  00817ce0    00000140     rts6600_elf.lib : _printfi.obj (.text:_pproc_fflags)
                  00817e20    00000140                     : fgetc.obj (.text:fgetc)
                  00817f60    00000140                     : lowlev.obj (.text:getdevice)
                  008180a0    00000140     sysbios.ae66 : BIOS.obj (.text:ti_sysbios_heaps_HeapMem_free__E)
                  008181e0    00000140                  : BIOS.obj (.text:ti_sysbios_knl_Swi_post__E)
                  00818320    00000140                  : BIOS.obj (.text:ti_sysbios_knl_Task_blockI__E)
                  00818460    00000140     rts6600_elf.lib : ungetc.obj (.text:ungetc)
                  008185a0    00000140     ti.targets.rts6000.ae66 : Text.oe66 (.text:xdc_runtime_Text_putLab__E)
                  008186e0    00000120     rts6600_elf.lib : wiostrea.obj (.text:_ZNKSt5ctypeIwE5do_isEPKwS2_Ps)
                  00818800    00000120                     : wiostrea.obj (.text:_ZNKSt5ctypeIwE9do_narrowEPKwS2_cPc)
                  00818920    00000120                     : wiostrea.obj (.text:_ZNKSt7codecvtIwciE9do_lengthERKiPKcS4_j)
                  00818a40    00000120     dynamicMemory.obj (.text:_ZNKSt7num_putIcSt19ostreambuf_iteratorIcSt11char_traitsIcEEE5_IfmtEPcPKcNSt5_IosbIiE9_FmtflagsE)
                  00818b60    00000120     rts6600_elf.lib : wiostrea.obj (.text:_ZNSt13basic_filebufIwSt11char_traitsIwEE6setbufEPwi)
                  00818c80    00000120                     : wiostrea.obj (.text:_ZNSt15basic_streambufIwSt11char_traitsIwEE6xsgetnEPwi)
                  00818da0    00000120                     : locale0.obj (.text:_ZNSt8_LocinfoD1Ev)
                  00818ec0    00000120                     : _bufread.obj (.text:_buff_read)
                  00818fe0    00000120                     : fclose.obj (.text:_closefile)
                  00819100    00000120                     : _printfi.obj (.text:_ltostr)
                  00819220    00000120                     : fseek.obj (.text:fseek)
                  00819340    00000120                     : ftell.obj (.text:ftell)
                  00819460    00000120                     : sqrtf.obj (.text:sqrtf)
                  00819580    00000120     sysbios.ae66 : BIOS.obj (.text:ti_sysbios_family_c64p_Hwi_Module_startup__E)
                  008196a0    00000120                  : BIOS.obj (.text:ti_sysbios_knl_Task_exit__E)
                  008197c0    00000120                  : BIOS.obj (.text:ti_sysbios_knl_Task_postInit__I)
                  008198e0    00000120     ti.targets.rts6000.ae66 : LoggerBuf.oe66 (.text:xdc_runtime_LoggerBuf_setFilterLevel__E)
                  00819a00    00000120                             : Text.oe66 (.text:xdc_runtime_Text_putMod__E)
                  00819b20    00000100     rts6600_elf.lib : trgdrv.obj (.text:HOSTlseek)
                  00819c20    00000100     dynamicMemory.obj (.text:_ZNKSt7num_putIcSt19ostreambuf_iteratorIcSt11char_traitsIcEEE5_FfmtEPccNSt5_IosbIiE9_FmtflagsE)
                  00819d20    00000100     dynamicMemory.obj (.text:_ZNSs6appendERKSsjj)
                  00819e20    00000100     dynamicMemory.obj (.text:_ZNSs6insertEjjc)
                  00819f20    00000100     rts6600_elf.lib : iostream.obj (.text:_ZNSt15basic_streambufIcSt11char_traitsIcEE6xsgetnEPci)
                  0081a020    00000100                     : iostream.obj (.text:_ZNSt15basic_streambufIcSt11char_traitsIcEE6xsputnEPKci)
                  0081a120    00000100                     : wiostrea.obj (.text:_ZNSt15basic_streambufIwSt11char_traitsIwEE6xsputnEPKwi)
                  0081a220    00000100                     : _io_perm.obj (.text:_wrt_ok)
                  0081a320    00000100     schedulingAlgorithms.obj (.text)
                  0081a420    00000100     sysbios.ae66 : BIOS.obj (.text:ti_sysbios_knl_Swi_restoreHwi__E)
                  0081a520    00000100                  : BIOS.obj (.text:ti_sysbios_knl_Task_unblockI__E)
                  0081a620    00000100                  : BIOS.obj (.text:ti_sysbios_timers_timer64_Timer_initDevice__I)
                  0081a720    00000100     ti.targets.rts6000.ae66 : Core-mem.oe66 (.text:xdc_runtime_Core_deleteObject__I)
                  0081a820    00000100                             : LoggerBuf.oe66 (.text:xdc_runtime_LoggerBuf_getFilterLevel__E)
                  0081a920    00000100                             : Startup.oe66 (.text:xdc_runtime_Startup_exec__E)
                  0081aa20    00000100                             : Text.oe66 (.text:xdc_runtime_Text_visitRope2__I)
                  0081ab20    000000e0     rts6600_elf.lib : trgdrv.obj (.text:HOSTopen)
                  0081ac00    000000e0                     : trgdrv.obj (.text:HOSTread)
                  0081ace0    000000e0                     : locale0.obj (.text:_Fac_tidy)
                  0081adc0    000000e0     dynamicMemory.obj (.text:_ZNSs5_CopyEjj)
                  0081aea0    000000e0     dynamicMemory.obj (.text:_ZNSs5eraseEjj)
                  0081af80    000000e0     dynamicMemory.obj (.text:_ZNSs6assignERKSsjj)
                  0081b060    000000e0     rts6600_elf.lib : divi.obj (.text:__divi)
                  0081b140    000000e0                     : _printfi.obj (.text:_div)
                  0081b220    000000e0                     : atoi.obj (.text:atoi)
                  0081b300    000000e0                     : lowlev.obj (.text:close)
                  0081b3e0    000000e0                     : copy_zero_init.obj (.text:decompress:ZI:__TI_zero_init)
                  0081b4c0    000000e0                     : fflush.obj (.text:fflush)
                  0081b5a0    000000e0                     : ltoa.obj (.text:ltoa)
                  0081b680    000000e0                     : memset.obj (.text:memset)
                  0081b760    000000e0                     : printf.obj (.text:printf)
                  0081b840    000000e0     sysbios.ae66 : BIOS.obj (.text:ti_sysbios_knl_Swi_runLoop__I)
                  0081b920    000000e0                  : BIOS.obj (.text:ti_sysbios_knl_Task_Module_startup__E)
                  0081ba00    000000e0                  : BIOS.obj (.text:ti_sysbios_timers_timer64_Timer_startup__E)
                  0081bae0    000000e0     ti.targets.rts6000.ae66 : Error.oe66 (.text:xdc_runtime_Error_print__E)
                  0081bbc0    000000e0                             : Memory.oe66 (.text:xdc_runtime_Memory_alloc__E)
                  0081bca0    000000c0     rts6600_elf.lib : trgdrv.obj (.text:HOSTunlink)
                  0081bd60    000000c0                     : trgdrv.obj (.text:HOSTwrite)
                  0081be20    000000c0                     : dtor_list.obj (.text:_Z11__TI_atexitPFYvPvES_S_)
                  0081bee0    000000c0                     : wiostrea.obj (.text:_ZNKSt5ctypeIwE10do_tolowerEPwPKw)
                  0081bfa0    000000c0                     : wiostrea.obj (.text:_ZNKSt7codecvtIwciE10do_unshiftERiPcS2_RS2_)
                  0081c060    000000c0     dynamicMemory.obj (.text:_ZNKSt7num_putIcSt19ostreambuf_iteratorIcSt11char_traitsIcEEE11_PutgroupedES3_PKcjc)
                  0081c120    000000c0     blasFunctions.obj (.text:_ZNSo3putEc)
                  0081c1e0    000000c0     dynamicMemory.obj (.text:_ZNSs5_GrowEjb)
                  0081c2a0    000000c0     dynamicMemory.obj (.text:_ZNSs6appendEPKcj)
                  0081c360    000000c0     rts6600_elf.lib : iostream.obj (.text:_ZNSt13basic_filebufIcSt11char_traitsIcEE5_InitEPSt4FILENS2_7_InitflE)
                  0081c420    000000c0                     : locale0.obj (.text:_ZNSt6locale7_LocimpC1Eb)
                  0081c4e0    000000c0                     : ios.obj (.text:_ZNSt8ios_baseD1Ev)
                  0081c5a0    000000c0     blasFunctions.obj (.text:_ZSt9use_facetISt5ctypeIcEERKT_RKSt6locale)
                  0081c660    000000c0     dynamicMemory.obj (.text:_ZSt9use_facetISt7num_putIcSt19ostreambuf_iteratorIcSt11char_traitsIcEEEERKT_RKSt6locale)
                  0081c720    000000c0     dynamicMemory.obj (.text:_ZSt9use_facetISt8numpunctIcEERKT_RKSt6locale)
                  0081c7e0    000000c0     rts6600_elf.lib : dtor_list.obj (.text:__cxa_finalize)
                  0081c8a0    000000c0                     : divu.obj (.text:__divu)
                  0081c960    000000c0                     : remi.obj (.text:__remi)
                  0081ca20    000000c0                     : fflush.obj (.text:_doflush)
                  0081cae0    000000c0                     : _io_perm.obj (.text:_rd_ok)
                  0081cba0    000000c0                     : exit.obj (.text:exit)
                  0081cc60    000000c0     globalDeclarations.obj (.text)
                  0081cd20    000000c0     sysMainLTE.obj (.text)
                  0081cde0    000000c0     sysbios.ae66 : BIOS.obj (.text:ti_sysbios_heaps_HeapMem_getStats__E)
                  0081cea0    000000c0                  : BIOS.obj (.text:ti_sysbios_knl_Clock_logTick__E)
                  0081cf60    000000c0                  : BIOS.obj (.text:ti_sysbios_knl_Swi_schedule__I)
                  0081d020    000000c0                  : BIOS.obj (.text:ti_sysbios_knl_Task_allBlockedFunction__I)
                  0081d0e0    000000c0                  : BIOS.obj (.text:ti_sysbios_timers_timer64_Timer_stop__E)
                  0081d1a0    000000c0     ti.targets.rts6000.ae66 : Error.oe66 (.text:xdc_runtime_Error_setX__E)
                  0081d260    000000c0                             : LoggerBuf.oe66 (.text:xdc_runtime_LoggerBuf_Instance_init__E)
                  0081d320    000000c0     scheduler_pe66.oe66 (.text:xdc_runtime_LoggerBuf_Object__create__S)
                  0081d3e0    000000c0     ti.targets.rts6000.ae66 : System.oe66 (.text:xdc_runtime_System_formatNum__I)
                  0081d4a0    000000a0     rts6600_elf.lib : trgdrv.obj (.text:HOSTclose)
                  0081d540    000000a0                     : locale0.obj (.text:_Setgloballocale)
                  0081d5e0    000000a0                     : wiostrea.obj (.text:_ZNKSt5ctypeIwE8do_widenEPKcS2_Pw)
                  0081d680    000000a0     dynamicMemory.obj (.text:_ZNKSt7num_putIcSt19ostreambuf_iteratorIcSt11char_traitsIcEEE6do_putES3_RSt8ios_basecPKv)
                  0081d720    000000a0     blasFunctions.obj (.text:_ZNSo12_Sentry_baseC1ERSo)
                  0081d7c0    000000a0     blasFunctions.obj (.text:_ZNSo6sentryC1ERSo)
                  0081d860    000000a0     rts6600_elf.lib : string.obj (.text:_ZNSt11logic_errorD1Ev)
                  0081d900    000000a0                     : string.obj (.text:_ZNSt12length_errorD1Ev)
                  0081d9a0    000000a0                     : string.obj (.text:_ZNSt12out_of_rangeC1ERKSs)
                  0081da40    000000a0                     : string.obj (.text:_ZNSt12out_of_rangeD1Ev)
                  0081dae0    000000a0     blasFunctions.obj (.text:_ZNSt13_Complex_baseIfSt16_C_float_complexE4_MulIfEEvRKSt7complexIT_E)
                  0081db80    000000a0     rts6600_elf.lib : iostream.obj (.text:_ZNSt13basic_filebufIcSt11char_traitsIcEE9underflowEv)
                  0081dc20    000000a0                     : wiostrea.obj (.text:_ZNSt13basic_filebufIwSt11char_traitsIwEE9underflowEv)
                  0081dcc0    000000a0                     : ios.obj (.text:_ZNSt13runtime_errorD1Ev)
                  0081dd60    000000a0     blasFunctions.obj (.text:_ZNSt5ctypeIcEC1EPKsbj)
                  0081de00    000000a0     rts6600_elf.lib : ios.obj (.text:_ZNSt8ios_base5_InitEv)
                  0081dea0    000000a0                     : ios.obj (.text:_ZNSt8ios_base5_TidyEv)
                  0081df40    000000a0                     : ios.obj (.text:_ZNSt8ios_base7failureD1Ev)
                  0081dfe0    000000a0                     : new_.obj (.text:_Znwj)
                  0081e080    000000a0                     : remu.obj (.text:__remu)
                  0081e120    000000a0     boot.ae66 : boot.oe66 (.text:_c_int00)
                  0081e1c0    000000a0     rts6600_elf.lib : fopen.obj (.text:_cleanup)
                  0081e260    000000a0                     : _printfi.obj (.text:_ecpy)
                  0081e300    000000a0                     : _printfi.obj (.text:_fcpy)
                  0081e3a0    000000a0                     : _printfi.obj (.text:_pconv_f)
                  0081e440    000000a0                     : lowlev.obj (.text:finddevice)
                  0081e4e0    000000a0                     : lowlev.obj (.text:lseek)
                  0081e580    000000a0                     : memcpy64.obj (.text:memcpy)
                  0081e620    000000a0                     : lowlev.obj (.text:read)
                  0081e6c0    000000a0     sysbios.ae66 : BIOS.obj (.text:ti_sysbios_family_c64p_Exception_Module_startup__E)
                  0081e760    000000a0                  : BIOS.obj (.text:ti_sysbios_heaps_HeapMem_init__I)
                  0081e800    000000a0     rts6600_elf.lib : lowlev.obj (.text:write)
                  0081e8a0    000000a0     ti.targets.rts6000.ae66 : Assert.oe66 (.text:xdc_runtime_Assert_raise__I)
                  0081e940    000000a0                             : LoggerBuf.oe66 (.text:xdc_runtime_LoggerBuf_Module_startup__E)
                  0081e9e0    000000a0                             : SysMin.oe66 (.text:xdc_runtime_SysMin_abort__E)
                  0081ea80    000000a0                             : SysMin.oe66 (.text:xdc_runtime_SysMin_flush__E)
                  0081eb20    000000a0                             : SysMin.oe66 (.text:xdc_runtime_SysMin_putch__E)
                  0081ebc0    000000a0                             : Text.oe66 (.text:xdc_runtime_Text_xprintf__I)
                  0081ec60    00000080     rts6600_elf.lib : wiostrea.obj (.text:_ZNKSt5ctypeIwE10do_scan_isEsPKwS2_)
                  0081ece0    00000080                     : wiostrea.obj (.text:_ZNKSt5ctypeIwE10do_tolowerEw)
                  0081ed60    00000080                     : wiostrea.obj (.text:_ZNKSt5ctypeIwE11do_scan_notEsPKwS2_)
                  0081ede0    00000080                     : locale0.obj (.text:_ZNKSt6locale9_GetfacetEj)
                  0081ee60    00000080     dynamicMemory.obj (.text:_ZNKSt7num_putIcSt19ostreambuf_iteratorIcSt11char_traitsIcEEE5_PutcES3_PKcj)
                  0081eee0    00000080     dynamicMemory.obj (.text:_ZNKSt7num_putIcSt19ostreambuf_iteratorIcSt11char_traitsIcEEE6do_putES3_RSt8ios_basecl)
                  0081ef60    00000080     dynamicMemory.obj (.text:_ZNKSt7num_putIcSt19ostreambuf_iteratorIcSt11char_traitsIcEEE6do_putES3_RSt8ios_basecm)
                  0081efe0    00000080     dynamicMemory.obj (.text:_ZNKSt7num_putIcSt19ostreambuf_iteratorIcSt11char_traitsIcEEE6do_putES3_RSt8ios_basecx)
                  0081f060    00000080     dynamicMemory.obj (.text:_ZNKSt7num_putIcSt19ostreambuf_iteratorIcSt11char_traitsIcEEE6do_putES3_RSt8ios_basecy)
                  0081f0e0    00000080     rts6600_elf.lib : ios.obj (.text:_ZNKSt9exception6_RaiseEv)
                  0081f160    00000080     blasFunctions.obj (.text:_ZNSo12_Sentry_baseD1Ev)
                  0081f1e0    00000080     blasFunctions.obj (.text:_ZNSo5flushEv)
                  0081f260    00000080     dynamicMemory.obj (.text:_ZNSs5_TidyEbj)
                  0081f2e0    00000080     dynamicMemory.obj (.text:_ZNSs6appendEjc)
                  0081f360    00000080     dynamicMemory.obj (.text:_ZNSs6assignEPKcj)
                  0081f3e0    00000080     rts6600_elf.lib : string.obj (.text:_ZNSt11logic_errorC2ERKSs)
                  0081f460    00000080                     : string.obj (.text:_ZNSt11logic_errorD0Ev)
                  0081f4e0    00000080                     : string.obj (.text:_ZNSt12length_errorD0Ev)
                  0081f560    00000080                     : string.obj (.text:_ZNSt12out_of_rangeD0Ev)
                  0081f5e0    00000080                     : iostream.obj (.text:_ZNSt13basic_filebufIcSt11char_traitsIcEE4syncEv)
                  0081f660    00000080                     : wiostrea.obj (.text:_ZNSt13basic_filebufIwSt11char_traitsIwEE4syncEv)
                  0081f6e0    00000080                     : ios.obj (.text:_ZNSt13runtime_errorD0Ev)
                  0081f760    00000080     blasFunctions.obj (.text:_ZNSt15basic_streambufIcSt11char_traitsIcEE5sputcEc)
                  0081f7e0    00000080     dynamicMemory.obj (.text:_ZNSt19ostreambuf_iteratorIcSt11char_traitsIcEEaSEc)
                  0081f860    00000080     rts6600_elf.lib : locale0.obj (.text:_ZNSt6locale5facet9_RegisterEv)
                  0081f8e0    00000080                     : ios.obj (.text:_ZNSt8ios_base7_AddstdEv)
                  0081f960    00000080                     : ios.obj (.text:_ZNSt8ios_base7failureD0Ev)
                  0081f9e0    00000080                     : ios.obj (.text:_ZNSt8ios_base8_CallfnsENS_5eventE)
                  0081fa60    00000080     dynamicMemory.obj (.text:_ZSt10_MaklocstrIcEPT_PKcS1_RKSt7_Cvtvec)
                  0081fae0    00000080     rts6600_elf.lib : throw.obj (.text:_ZSt14_Debug_messagePKcS0_)
                  0081fb60    00000080                     : fixfu.obj (.text:__c6xabi_fixfu)
                  0081fbe0    00000080                     : llshift.obj (.text:__c6xabi_llshl)
                  0081fc60    00000080                     : roundf.obj (.text:__c6xabi_roundf)
                  0081fce0    00000080     sysbios.ae66 : c62_TaskSupport_asm.obj (.text:_ti_sysbios_family_c62_TaskSupport_swap__E)
                  0081fd60    00000080     scheduler_pe66.oe66 (.text:malloc)
                  0081fde0    00000080     rts6600_elf.lib : memchr.obj (.text:memchr)
                  0081fe60    00000080                     : rand.obj (.text:rand)
                  0081fee0    00000080                     : trgmsg.obj (.text:readmsg)
                  0081ff60    00000080     sysbios.ae66 : BIOS.obj (.text:ti_sysbios_family_c62_TaskSupport_start__E)
                  0081ffe0    00000080                  : BIOS.obj (.text:ti_sysbios_family_c64p_Hwi_eventMap__E)
                  00820060    00000080                  : BIOS.obj (.text:ti_sysbios_family_c64p_Hwi_getStackInfo__E)
                  008200e0    00000080                  : BIOS.obj (.text:ti_sysbios_family_c66_Cache_all__I)
                  00820160    00000080                  : BIOS.obj (.text:ti_sysbios_gates_GateMutex_enter__E)
                  008201e0    00000080                  : BIOS.obj (.text:ti_sysbios_hal_Hwi_checkStack)
                  00820260    00000080                  : BIOS.obj (.text:ti_sysbios_hal_Hwi_initStack)
                  008202e0    00000080                  : BIOS.obj (.text:ti_sysbios_heaps_HeapMem_Instance_init__E)
                  00820360    00000080                  : BIOS.obj (.text:ti_sysbios_knl_Idle_run__E)
                  008203e0    00000080                  : BIOS.obj (.text:ti_sysbios_knl_Swi_restore__E)
                  00820460    00000080                  : BIOS.obj (.text:ti_sysbios_knl_Task_restoreHwi__E)
                  008204e0    00000080                  : BIOS.obj (.text:ti_sysbios_knl_Task_restore__E)
                  00820560    00000080     rts6600_elf.lib : lowlev.obj (.text:unlink)
                  008205e0    00000080                     : wchar.obj (.text:wmemcpy)
                  00820660    00000080     ti.targets.rts6000.ae66 : Core-label.oe66 (.text:xdc_runtime_Core_assignLabel__I)
                  008206e0    00000080                             : Core-params.oe66 (.text:xdc_runtime_Core_assignParams__I)
                  00820760    00000080                             : LoggerBuf.oe66 (.text:xdc_runtime_LoggerBuf_filterOutEvent__I)
                  008207e0    00000080                             : System.oe66 (.text:xdc_runtime_System_atexit__E)
                  00820860    00000080                             : System.oe66 (.text:xdc_runtime_System_processAtExit__E)
                  008208e0    00000080                             : System.oe66 (.text:xdc_runtime_System_putchar__I)
                  00820960    00000080                             : Text.oe66 (.text:xdc_runtime_Text_printVisFxn__I)
                  008209e0    00000060     rts6600_elf.lib : locale0.obj (.text:_Deletegloballocale)
                  00820a40    00000060                     : xfdtest.obj (.text:_FDtest)
                  00820aa0    00000060     blasFunctions.obj (.text:_ZNKSt5ctypeIcE10do_tolowerEPcPKc)
                  00820b00    00000060     blasFunctions.obj (.text:_ZNKSt5ctypeIcE10do_toupperEPcPKc)
                  00820b60    00000060     rts6600_elf.lib : wiostrea.obj (.text:_ZNKSt5ctypeIwE10do_toupperEw)
                  00820bc0    00000060     dynamicMemory.obj (.text:_ZNKSt7num_putIcSt19ostreambuf_iteratorIcSt11char_traitsIcEEE4_PutES3_PKcj)
                  00820c20    00000060     dynamicMemory.obj (.text:_ZNKSt7num_putIcSt19ostreambuf_iteratorIcSt11char_traitsIcEEE4_RepES3_cj)
                  00820c80    00000060     blasFunctions.obj (.text:_ZNKSt9basic_iosIcSt11char_traitsIcEE5widenEc)
                  00820ce0    00000060     rts6600_elf.lib : iostream.obj (.text:_ZNSiD0Ev)
                  00820d40    00000060                     : iostream.obj (.text:_ZNSoD0Ev)
                  00820da0    00000060     dynamicMemory.obj (.text:_ZNSs7_InsideEPKc)
                  00820e00    00000060     dynamicMemory.obj (.text:_ZNSs9_ChassignEjjc)
                  00820e60    00000060     blasFunctions.obj (.text:_ZNSt13_Complex_baseIfSt16_C_float_complexE4_AddIfEEvRKSt7complexIT_E)
                  00820ec0    00000060     lapackFunctions.obj (.text:_ZNSt13_Complex_baseIfSt16_C_float_complexE4_SubIfEEvRKSt7complexIT_E)
                  00820f20    00000060     rts6600_elf.lib : wiostrea.obj (.text:_ZNSt13basic_istreamIwSt11char_traitsIwEED0Ev)
                  00820f80    00000060                     : wiostrea.obj (.text:_ZNSt13basic_ostreamIwSt11char_traitsIwEED0Ev)
                  00820fe0    00000060                     : iostream.obj (.text:_ZNSt15basic_streambufIcSt11char_traitsIcEE5_InitEv)
                  00821040    00000060                     : iostream.obj (.text:_ZNSt15basic_streambufIcSt11char_traitsIcEE5uflowEv)
                  008210a0    00000060                     : iostream.obj (.text:_ZNSt15basic_streambufIcSt11char_traitsIcEE7seekoffElNSt5_IosbIiE8_SeekdirENS4_9_OpenmodeE)
                  00821100    00000060                     : iostream.obj (.text:_ZNSt15basic_streambufIcSt11char_traitsIcEE7seekposESt4fposIiENSt5_IosbIiE9_OpenmodeE)
                  00821160    00000060                     : iostream.obj (.text:_ZNSt15basic_streambufIcSt11char_traitsIcEED0Ev)
                  008211c0    00000060                     : iostream.obj (.text:_ZNSt15basic_streambufIcSt11char_traitsIcEED1Ev)
                  00821220    00000060                     : wiostrea.obj (.text:_ZNSt15basic_streambufIwSt11char_traitsIwEE5_InitEv)
                  00821280    00000060                     : wiostrea.obj (.text:_ZNSt15basic_streambufIwSt11char_traitsIwEE5uflowEv)
                  008212e0    00000060                     : wiostrea.obj (.text:_ZNSt15basic_streambufIwSt11char_traitsIwEE7seekoffElNSt5_IosbIiE8_SeekdirENS4_9_OpenmodeE)
                  00821340    00000060                     : wiostrea.obj (.text:_ZNSt15basic_streambufIwSt11char_traitsIwEE7seekposESt4fposIiENSt5_IosbIiE9_OpenmodeE)
                  008213a0    00000060                     : wiostrea.obj (.text:_ZNSt15basic_streambufIwSt11char_traitsIwEED0Ev)
                  00821400    00000060                     : wiostrea.obj (.text:_ZNSt15basic_streambufIwSt11char_traitsIwEED1Ev)
                  00821460    00000060     blasFunctions.obj (.text:_ZNSt5ctypeIcE7_GetcatEPPKNSt6locale5facetE)
                  008214c0    00000060     rts6600_elf.lib : wiostrea.obj (.text:_ZNSt5ctypeIwED0Ev)
                  00821520    00000060                     : wiostrea.obj (.text:_ZNSt5ctypeIwED1Ev)
                  00821580    00000060     blasFunctions.obj (.text:_ZNSt6locale2idcvjEv)
                  008215e0    00000060     blasFunctions.obj (.text:_ZNSt6locale5facet7_DecrefEv)
                  00821640    00000060     rts6600_elf.lib : locale0.obj (.text:_ZNSt6locale7_LocimpD0Ev)
                  008216a0    00000060                     : locale0.obj (.text:_ZNSt6localeC1Ev)
                  00821700    00000060     frameworkFunctions.obj (.text:_ZNSt7complexIfEdVERKf)
                  00821760    00000060     dynamicMemory.obj (.text:_ZNSt7num_putIcSt19ostreambuf_iteratorIcSt11char_traitsIcEEEC1Ej)
                  008217c0    00000060     rts6600_elf.lib : ios.obj (.text:_ZNSt8ios_baseD0Ev)
                  00821820    00000060     dynamicMemory.obj (.text:_ZNSt8numpunctIcEC1Ej)
                  00821880    00000060     rts6600_elf.lib : iostream.obj (.text:_ZNSt9basic_iosIcSt11char_traitsIcEED0Ev)
                  008218e0    00000060                     : wiostrea.obj (.text:_ZNSt9basic_iosIwSt11char_traitsIwEED0Ev)
                  00821940    00000060     blasFunctions.obj (.text:_ZSt4conjIfESt7complexIT_ERKS2_)
                  008219a0    00000060     pipdScheduling.obj (.text:_ZStdvIfESt7complexIT_ERKS2_RKS1_)
                  00821a00    00000060     rts6600_elf.lib : iostream.obj (.text:_ZTv0_n12_NSiD0Ev)
                  00821a60    00000060                     : iostream.obj (.text:_ZTv0_n12_NSoD0Ev)
                  00821ac0    00000060                     : wiostrea.obj (.text:_ZTv0_n12_NSt13basic_istreamIwSt11char_traitsIwEED0Ev)
                  00821b20    00000060                     : wiostrea.obj (.text:_ZTv0_n12_NSt13basic_ostreamIwSt11char_traitsIwEED0Ev)
                  00821b80    00000060                     : frcmpyd_div.obj (.text:__c6xabi_frcmpyd_div)
                  00821be0    00000060                     : llshift.obj (.text:__c6xabi_llshru)
                  00821c40    00000060                     : vec_newdel.obj (.text:__cxa_vec_ctor)
                  00821ca0    00000060                     : vec_newdel.obj (.text:__cxa_vec_new)
                  00821d00    00000060                     : imath64.obj (.text:_subcull)
                  00821d60    00000060     sysbios.ae66 : c64p_Hwi_asm_switch.obj (.text:_ti_sysbios_family_c64p_Hwi_switchAndDispatch__I)
                  00821dc0    00000060                  : c64p_Hwi_asm_switch.obj (.text:_ti_sysbios_family_xxx_Hwi_switchAndRunFunc)
                  00821e20    00000060     scheduler_pe66.oe66 (.text:calloc)
                  00821e80    00000060     rts6600_elf.lib : fclose.obj (.text:fclose)
                  00821ee0    00000060                     : fgetpos.obj (.text:fgetpos)
                  00821f40    00000060                     : memccpy.obj (.text:memccpy)
                  00821fa0    00000060                     : memmov.obj (.text:memmove)
                  00822000    00000060                     : modff.obj (.text:modff)
                  00822060    00000060                     : setlocale.obj (.text:setlocale)
                  008220c0    00000060                     : sprintf.obj (.text:sprintf)
                  00822120    00000060                     : strcspn.obj (.text:strcspn)
                  00822180    00000060     scheduler_pe66.oe66 (.text:ti_sysbios_BIOS_atExitFunc__I)
                  008221e0    00000060     scheduler_pe66.oe66 (.text:ti_sysbios_BIOS_errorRaiseHook__I)
                  00822240    00000060     scheduler_pe66.oe66 (.text:ti_sysbios_BIOS_registerRTSLock__I)
                  008222a0    00000060     scheduler_pe66.oe66 (.text:ti_sysbios_BIOS_removeRTSLock__I)
                  00822300    00000060     scheduler_pe66.oe66 (.text:ti_sysbios_BIOS_rtsUnlock__I)
                  00822360    00000060     sysbios.ae66 : BIOS.obj (.text:ti_sysbios_family_c66_Cache_Module_startup__E)
                  008223c0    00000060                  : BIOS.obj (.text:ti_sysbios_family_c66_Cache_setSize__E)
                  00822420    00000060     scheduler_pe66.oe66 (.text:ti_sysbios_gates_GateHwi_Object__create__S)
                  00822480    00000060     scheduler_pe66.oe66 (.text:ti_sysbios_gates_GateMutex_Object__create__S)
                  008224e0    00000060     scheduler_pe66.oe66 (.text:ti_sysbios_heaps_HeapMem_Object__create__S)
                  00822540    00000060     sysbios.ae66 : BIOS.obj (.text:ti_sysbios_knl_Clock_Module_startup__E)
                  008225a0    00000060     scheduler_pe66.oe66 (.text:ti_sysbios_knl_Clock_doTick__I)
                  00822600    00000060     scheduler_pe66.oe66 (.text:ti_sysbios_knl_Queue_construct)
                  00822660    00000060     sysbios.ae66 : BIOS.obj (.text:ti_sysbios_knl_Semaphore_Instance_init__E)
                  008226c0    00000060     scheduler_pe66.oe66 (.text:ti_sysbios_knl_Semaphore_construct)
                  00822720    00000060     sysbios.ae66 : BIOS.obj (.text:ti_sysbios_knl_Semaphore_pendTimeout__I)
                  00822780    00000060                  : BIOS.obj (.text:ti_sysbios_knl_Swi_Module_startup__E)
                  008227e0    00000060                  : BIOS.obj (.text:ti_sysbios_knl_Task_enter__I)
                  00822840    00000060                  : BIOS.obj (.text:ti_sysbios_knl_Task_processVitalTaskFlag__I)
                  008228a0    00000060     rts6600_elf.lib : wchar.obj (.text:ungetwc)
                  00822900    00000060                     : trgmsg.obj (.text:writemsg)
                  00822960    00000060     ti.targets.rts6000.ae66 : Memory.oe66 (.text:xdc_runtime_Memory_calloc__E)
                  008229c0    00000060                             : SysMin.oe66 (.text:xdc_runtime_SysMin_Module_startup__E)
                  00822a20    00000060                             : SysMin.oe66 (.text:xdc_runtime_SysMin_exit__E)
                  00822a80    00000060     scheduler_pe66.oe66 (.text:xdc_runtime_SysMin_output__I)
                  00822ae0    00000060     ti.targets.rts6000.ae66 : System.oe66 (.text:xdc_runtime_System_avprintf__E)
                  00822b40    00000060                             : System.oe66 (.text:xdc_runtime_System_vprintf__E)
                  00822ba0    00000060                             : Text.oe66 (.text:xdc_runtime_Text_cordText__E)
                  00822c00    00000040     dynamicMemory.obj (.text:_ZNKSs6_MyptrEv)
                  00822c40    00000040     dynamicMemory.obj (.text:_ZNKSs8max_sizeEv)
                  00822c80    00000040     blasFunctions.obj (.text:_ZNKSt15basic_streambufIcSt11char_traitsIcEE8_PnavailEv)
                  00822cc0    00000040     blasFunctions.obj (.text:_ZNKSt5ctypeIcE10do_tolowerEc)
                  00822d00    00000040     blasFunctions.obj (.text:_ZNKSt5ctypeIcE10do_toupperEc)
                  00822d40    00000040     blasFunctions.obj (.text:_ZNKSt5ctypeIcE5widenEc)
                  00822d80    00000040     blasFunctions.obj (.text:_ZNKSt5ctypeIcE8do_widenEPKcS2_Pc)
                  00822dc0    00000040     blasFunctions.obj (.text:_ZNKSt5ctypeIcE9do_narrowEPKcS2_cPc)
                  00822e00    00000040     rts6600_elf.lib : wiostrea.obj (.text:_ZNKSt5ctypeIwE5do_isEsw)
                  00822e40    00000040                     : wiostrea.obj (.text:_ZNKSt5ctypeIwE8do_widenEc)
                  00822e80    00000040                     : wiostrea.obj (.text:_ZNKSt5ctypeIwE9do_narrowEwc)
                  00822ec0    00000040     dynamicMemory.obj (.text:_ZNKSt7num_putIcSt19ostreambuf_iteratorIcSt11char_traitsIcEEE3putES3_RSt8ios_basecb)
                  00822f00    00000040     dynamicMemory.obj (.text:_ZNKSt7num_putIcSt19ostreambuf_iteratorIcSt11char_traitsIcEEE3putES3_RSt8ios_basecm)
                  00822f40    00000040     dynamicMemory.obj (.text:_ZNKSt8_Locinfo7_GetcvtEv)
                  00822f80    00000040     blasFunctions.obj (.text:_ZNKSt8_Locinfo9_GetctypeEv)
                  00822fc0    00000040     dynamicMemory.obj (.text:_ZNKSt8numpunctIcE8groupingEv)
                  00823000    00000040     dynamicMemory.obj (.text:_ZNKSt8numpunctIcE8truenameEv)
                  00823040    00000040     dynamicMemory.obj (.text:_ZNKSt8numpunctIcE9falsenameEv)
                  00823080    00000040     rts6600_elf.lib : iostream.obj (.text:_ZNSiD1Ev)
                  008230c0    00000040     blasFunctions.obj (.text:_ZNSo5_OsfxEv)
                  00823100    00000040     rts6600_elf.lib : iostream.obj (.text:_ZNSoD1Ev)
                  00823140    00000040     dynamicMemory.obj (.text:_ZNSs4_EosEj)
                  00823180    00000040     dynamicMemory.obj (.text:_ZNSs6_MyptrEv)
                  008231c0    00000040     dynamicMemory.obj (.text:_ZNSs6assignEPKc)
                  00823200    00000040     dynamicMemory.obj (.text:_ZNSsC1EPKc)
                  00823240    00000040     dynamicMemory.obj (.text:_ZNSsC1Ev)
                  00823280    00000040     blasFunctions.obj (.text:_ZNSt10ctype_baseC1Ej)
                  008232c0    00000040     dynamicMemory.obj (.text:_ZNSt11char_traitsIcE6assignEPcjc)
                  00823300    00000040     blasFunctions.obj (.text:_ZNSt13_Complex_baseIfSt16_C_float_complexEC1ERKfS3_)
                  00823340    00000040     rts6600_elf.lib : wiostrea.obj (.text:_ZNSt13basic_istreamIwSt11char_traitsIwEED1Ev)
                  00823380    00000040                     : wiostrea.obj (.text:_ZNSt13basic_ostreamIwSt11char_traitsIwEED1Ev)
                  008233c0    00000040     blasFunctions.obj (.text:_ZNSt15basic_streambufIcSt11char_traitsIcEE5sputnEPKci)
                  00823400    00000040     dynamicMemory.obj (.text:_ZNSt19ostreambuf_iteratorIcSt11char_traitsIcEEC1EPSt15basic_streambufIcS1_E)
                  00823440    00000040     blasFunctions.obj (.text:_ZNSt5ctypeIcE5_TidyEv)
                  00823480    00000040     blasFunctions.obj (.text:_ZNSt5ctypeIcED1Ev)
                  008234c0    00000040     blasFunctions.obj (.text:_ZNSt6locale5facet7_IncrefEv)
                  00823500    00000040     blasFunctions.obj (.text:_ZNSt6locale5facetC1Ej)
                  00823540    00000040     blasFunctions.obj (.text:_ZNSt6localeC1ERKS_)
                  00823580    00000040     blasFunctions.obj (.text:_ZNSt6localeD1Ev)
                  008235c0    00000040     blasFunctions.obj (.text:_ZNSt7complexIfEaSERKf)
                  00823600    00000040     dynamicMemory.obj (.text:_ZNSt7num_putIcSt19ostreambuf_iteratorIcSt11char_traitsIcEEE7_GetcatEPPKNSt6locale5facetE)
                  00823640    00000040     blasFunctions.obj (.text:_ZNSt8ios_base5widthEi)
                  00823680    00000040     dynamicMemory.obj (.text:_ZNSt8numpunctIcE5_TidyEv)
                  008236c0    00000040     dynamicMemory.obj (.text:_ZNSt8numpunctIcE7_GetcatEPPKNSt6locale5facetE)
                  00823700    00000040     dynamicMemory.obj (.text:_ZNSt8numpunctIcED1Ev)
                  00823740    00000040     blasFunctions.obj (.text:_ZNSt9basic_iosIcSt11char_traitsIcEE5clearENSt5_IosbIiE8_IostateEb)
                  00823780    00000040     blasFunctions.obj (.text:_ZNSt9basic_iosIcSt11char_traitsIcEE8setstateENSt5_IosbIiE8_IostateEb)
                  008237c0    00000040     blasFunctions.obj (.text:_ZSt3absIfET_RKSt7complexIS0_E)
                  00823800    00000040     pipdScheduling.obj (.text:_ZSt3absf)
                  00823840    00000040     blasFunctions.obj (.text:_ZSt3powff)
                  00823880    00000040     blasFunctions.obj (.text:_ZSt4endlIcSt11char_traitsIcEERSt13basic_ostreamIT_T0_ES6_)
                  008238c0    00000040     rts6600_elf.lib : throw.obj (.text:_ZSt6_ThrowRKSt9exception)
                  00823900    00000040     lapackFunctions.obj (.text:_ZStdvIfESt7complexIT_ERKS1_RKS2_)
                  00823940    00000040     lapackFunctions.obj (.text:_ZStdvIfESt7complexIT_ERKS2_S4_)
                  00823980    00000040     lapackFunctions.obj (.text:_ZStmiIfESt7complexIT_ERKS2_S4_)
                  008239c0    00000040     frameworkFunctions.obj (.text:_ZStmlIfESt7complexIT_ERKS1_RKS2_)
                  00823a00    00000040     blasFunctions.obj (.text:_ZStmlIfESt7complexIT_ERKS2_S4_)
                  00823a40    00000040     blasFunctions.obj (.text:_ZStoRRNSt5_IosbIiE8_IostateES1_)
                  00823a80    00000040     lapackFunctions.obj (.text:_ZStplIfESt7complexIT_ERKS2_S4_)
                  00823ac0    00000040     rts6600_elf.lib : iostream.obj (.text:_ZTv0_n12_NSiD1Ev)
                  00823b00    00000040                     : iostream.obj (.text:_ZTv0_n12_NSoD1Ev)
                  00823b40    00000040                     : wiostrea.obj (.text:_ZTv0_n12_NSt13basic_istreamIwSt11char_traitsIwEED1Ev)
                  00823b80    00000040                     : wiostrea.obj (.text:_ZTv0_n12_NSt13basic_ostreamIwSt11char_traitsIwEED1Ev)
                  00823bc0    00000040                     : isinf.obj (.text:__c6xabi_isinf)
                  00823c00    00000040                     : _printfi.obj (.text:__c6xabi_isnan)
                  00823c40    00000040                     : locale0.obj (.text:__sti___11_locale0_cpp_36e19383)
                  00823c80    00000040                     : args_main.obj (.text:_args_main)
                  00823cc0    00000040                     : sprintf.obj (.text:_outs)
                  00823d00    00000040     sysbios.ae66 : c62_TaskSupport_asm.obj (.text:_ti_sysbios_family_c62_TaskSupport_buildTaskStack)
                  00823d40    00000040     scheduler_pe66.oe66 (.text:free)
                  00823d80    00000040     rts6600_elf.lib : wchar.obj (.text:mbrtowc)
                  00823dc0    00000040                     : multibyte.obj (.text:mbtowc)
                  00823e00    00000040                     : strcmp.obj (.text:strcmp)
                  00823e40    00000040                     : strlen.obj (.text:strlen)
                  00823e80    00000040     scheduler_pe66.oe66 (.text:ti_sysbios_BIOS_exitFunc__I)
                  00823ec0    00000040     scheduler_pe66.oe66 (.text:ti_sysbios_BIOS_rtsLock__I)
                  00823f00    00000040     scheduler_pe66.oe66 (.text:ti_sysbios_BIOS_startFunc__I)
                  00823f40    00000040     scheduler_pe66.oe66 (.text:ti_sysbios_family_c64p_Hwi_Module__startupDone__F)
                  00823f80    00000040     sysbios.ae66 : BIOS.obj (.text:ti_sysbios_family_c64p_Hwi_disableInterrupt__E)
                  00823fc0    00000040                  : BIOS.obj (.text:ti_sysbios_family_c64p_Hwi_dispatchC__I)
                  00824000    00000040                  : BIOS.obj (.text:ti_sysbios_family_c64p_Hwi_enableInterrupt__E)
                  00824040    00000040     scheduler_pe66.oe66 (.text:ti_sysbios_gates_GateHwi_Handle__label__S)
                  00824080    00000040     scheduler_pe66.oe66 (.text:ti_sysbios_gates_GateHwi_Object__delete__S)
                  008240c0    00000040     scheduler_pe66.oe66 (.text:ti_sysbios_gates_GateMutex_Handle__label__S)
                  00824100    00000040     sysbios.ae66 : BIOS.obj (.text:ti_sysbios_gates_GateMutex_Instance_init__E)
                  00824140    00000040     scheduler_pe66.oe66 (.text:ti_sysbios_gates_GateMutex_Object__delete__S)
                  00824180    00000040     sysbios.ae66 : BIOS.obj (.text:ti_sysbios_gates_GateMutex_leave__E)
                  008241c0    00000040     scheduler_pe66.oe66 (.text:ti_sysbios_heaps_HeapMem_Handle__label__S)
                  00824200    00000040     scheduler_pe66.oe66 (.text:ti_sysbios_heaps_HeapMem_Object__delete__S)
                  00824240    00000040     scheduler_pe66.oe66 (.text:ti_sysbios_heaps_HeapMem_Object__get__S)
                  00824280    00000040     scheduler_pe66.oe66 (.text:ti_sysbios_knl_Queue_Object__destruct__S)
                  008242c0    00000040     sysbios.ae66 : BIOS.obj (.text:ti_sysbios_knl_Queue_put__E)
                  00824300    00000040     scheduler_pe66.oe66 (.text:ti_sysbios_knl_Semaphore_Object__destruct__S)
                  00824340    00000040     scheduler_pe66.oe66 (.text:ti_sysbios_knl_Swi_Object__get__S)
                  00824380    00000040     scheduler_pe66.oe66 (.text:ti_sysbios_knl_Task_Object__get__S)
                  008243c0    00000040     scheduler_pe66.oe66 (.text:ti_sysbios_timers_timer64_Timer_Module__startupDone__F)
                  00824400    00000040     rts6600_elf.lib : wchar.obj (.text:wcrtomb)
                  00824440    00000040     ti.targets.rts6000.ae66 : Error.oe66 (.text:xdc_runtime_Error_check__E)
                  00824480    00000040                             : Error.oe66 (.text:xdc_runtime_Error_init__E)
                  008244c0    00000040                             : Error.oe66 (.text:xdc_runtime_Error_raiseX__E)
                  00824500    00000040                             : Gate.oe66 (.text:xdc_runtime_Gate_leaveSystem__E)
                  00824540    00000040     scheduler_pe66.oe66 (.text:xdc_runtime_LoggerBuf_Handle__label__S)
                  00824580    00000040     ti.targets.rts6000.ae66 : LoggerBuf.oe66 (.text:xdc_runtime_LoggerBuf_Instance_finalize__E)
                  008245c0    00000040     scheduler_pe66.oe66 (.text:xdc_runtime_LoggerBuf_Object__delete__S)
                  00824600    00000040     scheduler_pe66.oe66 (.text:xdc_runtime_LoggerBuf_Object__get__S)
                  00824640    00000040     ti.targets.rts6000.ae66 : LoggerBuf.oe66 (.text:xdc_runtime_LoggerBuf_write0__E)
                  00824680    00000040                             : LoggerBuf.oe66 (.text:xdc_runtime_LoggerBuf_write1__E)
                  008246c0    00000040                             : LoggerBuf.oe66 (.text:xdc_runtime_LoggerBuf_write2__E)
                  00824700    00000040                             : Memory.oe66 (.text:xdc_runtime_Memory_free__E)
                  00824740    00000040                             : Registry.oe66 (.text:xdc_runtime_Registry_findById__E)
                  00824780    00000040                             : System.oe66 (.text:xdc_runtime_System_abort__E)
                  008247c0    00000040     scheduler_pe66.oe66 (.text:xdc_runtime_System_aprintf__E)
                  00824800    00000040     ti.targets.rts6000.ae66 : System.oe66 (.text:xdc_runtime_System_exit__E)
                  00824840    00000040     scheduler_pe66.oe66 (.text:xdc_runtime_System_printf__E)
                  00824880    00000040     ti.targets.rts6000.ae66 : Text.oe66 (.text:xdc_runtime_Text_ropeText__E)
                  008248c0    00000020     rts6600_elf.lib : xatexit.obj (.text:_Atexit)
                  008248e0    00000020                     : locale0.obj (.text:_Getgloballocale)
                  00824900    00000020                     : newhandler.obj (.text:_Z21__default_new_handlerv)
                  00824920    00000020                     : typeinfo_.obj (.text:_ZN10__cxxabiv117__class_type_infoD0Ev)
                  00824940    00000020                     : typeinfo_.obj (.text:_ZN10__cxxabiv117__class_type_infoD1Ev)
                  00824960    00000020                     : typeinfo_.obj (.text:_ZN10__cxxabiv120__si_class_type_infoD0Ev)
                  00824980    00000020                     : typeinfo_.obj (.text:_ZN10__cxxabiv120__si_class_type_infoD1Ev)
                  008249a0    00000020                     : typeinfo_.obj (.text:_ZN10__cxxabiv121__vmi_class_type_infoD0Ev)
                  008249c0    00000020                     : typeinfo_.obj (.text:_ZN10__cxxabiv121__vmi_class_type_infoD1Ev)
                  008249e0    00000020     dynamicMemory.obj (.text:_ZNKSaIcE8max_sizeEv)
                  00824a00    00000020     blasFunctions.obj (.text:_ZNKSo6sentrycvbEv)
                  00824a20    00000020     dynamicMemory.obj (.text:_ZNKSs4sizeEv)
                  00824a40    00000020     dynamicMemory.obj (.text:_ZNKSs5c_strEv)
                  00824a60    00000020     rts6600_elf.lib : string.obj (.text:_ZNKSt11logic_error4whatEv)
                  00824a80    00000020                     : string.obj (.text:_ZNKSt11logic_error8_DoraiseEv)
                  00824aa0    00000020                     : iostream.obj (.text:_ZNKSt12codecvt_base11do_encodingEv)
                  00824ac0    00000020                     : iostream.obj (.text:_ZNKSt12codecvt_base13do_max_lengthEv)
                  00824ae0    00000020                     : iostream.obj (.text:_ZNKSt12codecvt_base16do_always_noconvEv)
                  00824b00    00000020                     : string.obj (.text:_ZNKSt12length_error8_DoraiseEv)
                  00824b20    00000020                     : string.obj (.text:_ZNKSt12out_of_range8_DoraiseEv)
                  00824b40    00000020     blasFunctions.obj (.text:_ZNKSt13_Complex_baseIfSt16_C_float_complexE4imagEv)
                  00824b60    00000020     blasFunctions.obj (.text:_ZNKSt13_Complex_baseIfSt16_C_float_complexE4realEv)
                  00824b80    00000020     rts6600_elf.lib : ios.obj (.text:_ZNKSt13runtime_error4whatEv)
                  00824ba0    00000020                     : ios.obj (.text:_ZNKSt13runtime_error8_DoraiseEv)
                  00824bc0    00000020     dynamicMemory.obj (.text:_ZNKSt19ostreambuf_iteratorIcSt11char_traitsIcEE6failedEv)
                  00824be0    00000020     blasFunctions.obj (.text:_ZNKSt5ctypeIcE8do_widenEc)
                  00824c00    00000020     blasFunctions.obj (.text:_ZNKSt5ctypeIcE9do_narrowEcc)
                  00824c20    00000020     rts6600_elf.lib : wiostrea.obj (.text:_ZNKSt5ctypeIwE2isEsw)
                  00824c40    00000020                     : wiostrea.obj (.text:_ZNKSt5ctypeIwE5widenEc)
                  00824c60    00000020                     : wiostrea.obj (.text:_ZNKSt5ctypeIwE6narrowEwc)
                  00824c80    00000020                     : iostream.obj (.text:_ZNKSt7codecvtIcciE10do_unshiftERiPcS2_RS2_)
                  00824ca0    00000020                     : iostream.obj (.text:_ZNKSt7codecvtIcciE5do_inERiPKcS3_RS3_PcS5_RS5_)
                  00824cc0    00000020                     : iostream.obj (.text:_ZNKSt7codecvtIcciE6do_outERiPKcS3_RS3_PcS5_RS5_)
                  00824ce0    00000020                     : iostream.obj (.text:_ZNKSt7codecvtIcciE9do_lengthERKiPKcS4_j)
                  00824d00    00000020                     : wiostrea.obj (.text:_ZNKSt7codecvtIwciE11do_encodingEv)
                  00824d20    00000020                     : wiostrea.obj (.text:_ZNKSt7codecvtIwciE13do_max_lengthEv)
                  00824d40    00000020                     : wiostrea.obj (.text:_ZNKSt7codecvtIwciE16do_always_noconvEv)
                  00824d60    00000020     dynamicMemory.obj (.text:_ZNKSt8_Locinfo8_GettrueEv)
                  00824d80    00000020     dynamicMemory.obj (.text:_ZNKSt8_Locinfo9_GetfalseEv)
                  00824da0    00000020     dynamicMemory.obj (.text:_ZNKSt8_Locinfo9_GetlconvEv)
                  00824dc0    00000020     blasFunctions.obj (.text:_ZNKSt8ios_base4failEv)
                  00824de0    00000020     blasFunctions.obj (.text:_ZNKSt8ios_base4goodEv)
                  00824e00    00000020     blasFunctions.obj (.text:_ZNKSt8ios_base5flagsEv)
                  00824e20    00000020     blasFunctions.obj (.text:_ZNKSt8ios_base5widthEv)
                  00824e40    00000020     blasFunctions.obj (.text:_ZNKSt8ios_base6getlocEv)
                  00824e60    00000020     rts6600_elf.lib : ios.obj (.text:_ZNKSt8ios_base7failure8_DoraiseEv)
                  00824e80    00000020     blasFunctions.obj (.text:_ZNKSt8ios_base7rdstateEv)
                  00824ea0    00000020     dynamicMemory.obj (.text:_ZNKSt8ios_base9precisionEv)
                  00824ec0    00000020     dynamicMemory.obj (.text:_ZNKSt8numpunctIcE11do_groupingEv)
                  00824ee0    00000020     dynamicMemory.obj (.text:_ZNKSt8numpunctIcE11do_truenameEv)
                  00824f00    00000020     dynamicMemory.obj (.text:_ZNKSt8numpunctIcE12do_falsenameEv)
                  00824f20    00000020     dynamicMemory.obj (.text:_ZNKSt8numpunctIcE13decimal_pointEv)
                  00824f40    00000020     dynamicMemory.obj (.text:_ZNKSt8numpunctIcE13thousands_sepEv)
                  00824f60    00000020     dynamicMemory.obj (.text:_ZNKSt8numpunctIcE16do_decimal_pointEv)
                  00824f80    00000020     dynamicMemory.obj (.text:_ZNKSt8numpunctIcE16do_thousands_sepEv)
                  00824fa0    00000020     blasFunctions.obj (.text:_ZNKSt9basic_iosIcSt11char_traitsIcEE3tieEv)
                  00824fc0    00000020     blasFunctions.obj (.text:_ZNKSt9basic_iosIcSt11char_traitsIcEE4fillEv)
                  00824fe0    00000020     blasFunctions.obj (.text:_ZNKSt9basic_iosIcSt11char_traitsIcEE5rdbufEv)
                  00825000    00000020     rts6600_elf.lib : ios.obj (.text:_ZNKSt9exception4whatEv)
                  00825020    00000020                     : ios.obj (.text:_ZNKSt9exception8_DoraiseEv)
                  00825040    00000020     dynamicMemory.obj (.text:_ZNSaIcE10deallocateEPcj)
                  00825060    00000020     dynamicMemory.obj (.text:_ZNSaIcE8allocateEj)
                  00825080    00000020     dynamicMemory.obj (.text:_ZNSaIcEC1ERKS_)
                  008250a0    00000020     dynamicMemory.obj (.text:_ZNSaIcEC1Ev)
                  008250c0    00000020     blasFunctions.obj (.text:_ZNSo12_Sentry_baseC2ERSo)
                  008250e0    00000020     blasFunctions.obj (.text:_ZNSo12_Sentry_baseD2Ev)
                  00825100    00000020     blasFunctions.obj (.text:_ZNSo6sentryD1Ev)
                  00825120    00000020     blasFunctions.obj (.text:_ZNSolsEPFRSoS_E)
                  00825140    00000020     dynamicMemory.obj (.text:_ZNSs6assignERKSs)
                  00825160    00000020     dynamicMemory.obj (.text:_ZNSsD1Ev)
                  00825180    00000020     dynamicMemory.obj (.text:_ZNSsixEj)
                  008251a0    00000020     blasFunctions.obj (.text:_ZNSt10ctype_baseC2Ej)
                  008251c0    00000020     blasFunctions.obj (.text:_ZNSt10ctype_baseD0Ev)
                  008251e0    00000020     blasFunctions.obj (.text:_ZNSt10ctype_baseD1Ev)
                  00825200    00000020     blasFunctions.obj (.text:_ZNSt10ctype_baseD2Ev)
                  00825220    00000020     dynamicMemory.obj (.text:_ZNSt11_String_valIcSaIcEEC1ES0_)
                  00825240    00000020     dynamicMemory.obj (.text:_ZNSt11_String_valIcSaIcEEC2ES0_)
                  00825260    00000020     blasFunctions.obj (.text:_ZNSt11char_traitsIcE11eq_int_typeERKiS2_)
                  00825280    00000020     blasFunctions.obj (.text:_ZNSt11char_traitsIcE11to_int_typeERKc)
                  008252a0    00000020     blasFunctions.obj (.text:_ZNSt11char_traitsIcE3eofEv)
                  008252c0    00000020     dynamicMemory.obj (.text:_ZNSt11char_traitsIcE4copyEPcPKcj)
                  008252e0    00000020     dynamicMemory.obj (.text:_ZNSt11char_traitsIcE4moveEPcPKcj)
                  00825300    00000020     dynamicMemory.obj (.text:_ZNSt11char_traitsIcE6assignERcRKc)
                  00825320    00000020     blasFunctions.obj (.text:_ZNSt11char_traitsIcE6lengthEPKc)
                  00825340    00000020     rts6600_elf.lib : iostream.obj (.text:_ZNSt12codecvt_baseD0Ev)
                  00825360    00000020                     : iostream.obj (.text:_ZNSt12codecvt_baseD1Ev)
                  00825380    00000020     pipdScheduling.obj (.text:_ZNSt13_Complex_baseIfSt16_C_float_complexE4imagERKf)
                  008253a0    00000020     pipdScheduling.obj (.text:_ZNSt13_Complex_baseIfSt16_C_float_complexE4realERKf)
                  008253c0    00000020     blasFunctions.obj (.text:_ZNSt13_Complex_baseIfSt16_C_float_complexEC2ERKfS3_)
                  008253e0    00000020     rts6600_elf.lib : iostream.obj (.text:_ZNSt15basic_streambufIcSt11char_traitsIcEE4syncEv)
                  00825400    00000020                     : iostream.obj (.text:_ZNSt15basic_streambufIcSt11char_traitsIcEE5_LockEv)
                  00825420    00000020                     : iostream.obj (.text:_ZNSt15basic_streambufIcSt11char_traitsIcEE5imbueERKSt6locale)
                  00825440    00000020     blasFunctions.obj (.text:_ZNSt15basic_streambufIcSt11char_traitsIcEE6_PnincEv)
                  00825460    00000020     rts6600_elf.lib : iostream.obj (.text:_ZNSt15basic_streambufIcSt11char_traitsIcEE6setbufEPci)
                  00825480    00000020                     : iostream.obj (.text:_ZNSt15basic_streambufIcSt11char_traitsIcEE7_UnlockEv)
                  008254a0    00000020     blasFunctions.obj (.text:_ZNSt15basic_streambufIcSt11char_traitsIcEE7pubsyncEv)
                  008254c0    00000020     rts6600_elf.lib : iostream.obj (.text:_ZNSt15basic_streambufIcSt11char_traitsIcEE8overflowEi)
                  008254e0    00000020                     : iostream.obj (.text:_ZNSt15basic_streambufIcSt11char_traitsIcEE9pbackfailEi)
                  00825500    00000020                     : iostream.obj (.text:_ZNSt15basic_streambufIcSt11char_traitsIcEE9showmanycEv)
                  00825520    00000020                     : iostream.obj (.text:_ZNSt15basic_streambufIcSt11char_traitsIcEE9underflowEv)
                  00825540    00000020                     : wiostrea.obj (.text:_ZNSt15basic_streambufIwSt11char_traitsIwEE4syncEv)
                  00825560    00000020                     : wiostrea.obj (.text:_ZNSt15basic_streambufIwSt11char_traitsIwEE5_LockEv)
                  00825580    00000020                     : wiostrea.obj (.text:_ZNSt15basic_streambufIwSt11char_traitsIwEE5imbueERKSt6locale)
                  008255a0    00000020                     : wiostrea.obj (.text:_ZNSt15basic_streambufIwSt11char_traitsIwEE6setbufEPwi)
                  008255c0    00000020                     : wiostrea.obj (.text:_ZNSt15basic_streambufIwSt11char_traitsIwEE7_UnlockEv)
                  008255e0    00000020                     : wiostrea.obj (.text:_ZNSt15basic_streambufIwSt11char_traitsIwEE8overflowEj)
                  00825600    00000020                     : wiostrea.obj (.text:_ZNSt15basic_streambufIwSt11char_traitsIwEE9pbackfailEj)
                  00825620    00000020                     : wiostrea.obj (.text:_ZNSt15basic_streambufIwSt11char_traitsIwEE9showmanycEv)
                  00825640    00000020                     : wiostrea.obj (.text:_ZNSt15basic_streambufIwSt11char_traitsIwEE9underflowEv)
                  00825660    00000020     dynamicMemory.obj (.text:_ZNSt19ostreambuf_iteratorIcSt11char_traitsIcEEdeEv)
                  00825680    00000020     dynamicMemory.obj (.text:_ZNSt19ostreambuf_iteratorIcSt11char_traitsIcEEppEv)
                  008256a0    00000020     blasFunctions.obj (.text:_ZNSt5ctypeIcE5_InitERKSt8_Locinfo)
                  008256c0    00000020     blasFunctions.obj (.text:_ZNSt5ctypeIcED0Ev)
                  008256e0    00000020     dynamicMemory.obj (.text:_ZNSt6locale2idC1Ej)
                  00825700    00000020     blasFunctions.obj (.text:_ZNSt6locale5facetC2Ej)
                  00825720    00000020     blasFunctions.obj (.text:_ZNSt6locale5facetD0Ev)
                  00825740    00000020     blasFunctions.obj (.text:_ZNSt6locale5facetD1Ev)
                  00825760    00000020     blasFunctions.obj (.text:_ZNSt6locale5facetD2Ev)
                  00825780    00000020     blasFunctions.obj (.text:_ZNSt7_LockitC1Ei)
                  008257a0    00000020     blasFunctions.obj (.text:_ZNSt7_LockitD1Ev)
                  008257c0    00000020     rts6600_elf.lib : iostream.obj (.text:_ZNSt7codecvtIcciED0Ev)
                  008257e0    00000020                     : iostream.obj (.text:_ZNSt7codecvtIcciED1Ev)
                  00825800    00000020                     : wiostrea.obj (.text:_ZNSt7codecvtIwciED0Ev)
                  00825820    00000020                     : wiostrea.obj (.text:_ZNSt7codecvtIwciED1Ev)
                  00825840    00000020     blasFunctions.obj (.text:_ZNSt7complexIfEC1ERKS0_)
                  00825860    00000020     blasFunctions.obj (.text:_ZNSt7complexIfEC1ERKfS2_)
                  00825880    00000020     lapackFunctions.obj (.text:_ZNSt7complexIfEdVIfEERS0_RKS_IT_E)
                  008258a0    00000020     lapackFunctions.obj (.text:_ZNSt7complexIfEmIIfEERS0_RKS_IT_E)
                  008258c0    00000020     blasFunctions.obj (.text:_ZNSt7complexIfEmLIfEERS0_RKS_IT_E)
                  008258e0    00000020     blasFunctions.obj (.text:_ZNSt7complexIfEpLIfEERS0_RKS_IT_E)
                  00825900    00000020     dynamicMemory.obj (.text:_ZNSt7num_putIcSt19ostreambuf_iteratorIcSt11char_traitsIcEEE5_InitERKSt8_Locinfo)
                  00825920    00000020     dynamicMemory.obj (.text:_ZNSt7num_putIcSt19ostreambuf_iteratorIcSt11char_traitsIcEEED0Ev)
                  00825940    00000020     dynamicMemory.obj (.text:_ZNSt7num_putIcSt19ostreambuf_iteratorIcSt11char_traitsIcEEED1Ev)
                  00825960    00000020     blasFunctions.obj (.text:_ZNSt8_CtraitsIfE4sqrtEf)
                  00825980    00000020     blasFunctions.obj (.text:_ZNSt8_CtraitsIfE5_InfvEf)
                  008259a0    00000020     lapackFunctions.obj (.text:_ZNSt8_CtraitsIfE5_NanvEf)
                  008259c0    00000020     blasFunctions.obj (.text:_ZNSt8_CtraitsIfE5ldexpEfi)
                  008259e0    00000020     blasFunctions.obj (.text:_ZNSt8_CtraitsIfE6_IsinfEf)
                  00825a00    00000020     blasFunctions.obj (.text:_ZNSt8_CtraitsIfE6_IsnanEf)
                  00825a20    00000020     dynamicMemory.obj (.text:_ZNSt8numpunctIcED0Ev)
                  00825a40    00000020     rts6600_elf.lib : iostream.obj (.text:_ZNSt9basic_iosIcSt11char_traitsIcEED1Ev)
                  00825a60    00000020                     : wiostrea.obj (.text:_ZNSt9basic_iosIwSt11char_traitsIwEED1Ev)
                  00825a80    00000020                     : ios.obj (.text:_ZNSt9exceptionD0Ev)
                  00825aa0    00000020                     : ios.obj (.text:_ZNSt9exceptionD1Ev)
                  00825ac0    00000020     dynamicMemory.obj (.text:_ZSt10_MaklocchrIcET_cPS0_RKSt7_Cvtvec)
                  00825ae0    00000020     rts6600_elf.lib : locale0.obj (.text:_ZSt11tidy_globalv)
                  00825b00    00000020     blasFunctions.obj (.text:_ZSt4imagIfET_RKSt7complexIS0_E)
                  00825b20    00000020     blasFunctions.obj (.text:_ZSt4realIfET_RKSt7complexIS0_E)
                  00825b40    00000020     blasFunctions.obj (.text:_ZSt4sqrtf)
                  00825b60    00000020     blasFunctions.obj (.text:_ZSt8_ToloweriPKSt9_Ctypevec)
                  00825b80    00000020     blasFunctions.obj (.text:_ZSt8_ToupperiPKSt9_Ctypevec)
                  00825ba0    00000020     dynamicMemory.obj (.text:_ZSt9_AllocateIcEPT_jS1_)
                  00825bc0    00000020     blasFunctions.obj (.text:_ZStanNSt5_IosbIiE9_FmtflagsES1_)
                  00825be0    00000020     rts6600_elf.lib : delete.obj (.text:_ZdlPv)
                  00825c00    00000020                     : placenew.obj (.text:_ZnwjPv)
                  00825c20    00000020                     : errno.obj (.text:__c6xabi_errno_addr)
                  00825c40    00000020                     : negll.obj (.text:__c6xabi_negll)
                  00825c60    00000020                     : truncf.obj (.text:__c6xabi_truncf)
                  00825c80    00000020                     : dtor_list.obj (.text:__cxa_atexit)
                  00825ca0    00000020                     : guard.obj (.text:__cxa_guard_acquire)
                  00825cc0    00000020                     : guard.obj (.text:__cxa_guard_release)
                  00825ce0    00000020                     : dtor_list.obj (.text:__cxa_ia64_exit)
                  00825d00    00000020                     : memzero.obj (.text:__memzero)
                  00825d20    00000020     ti.targets.rts6000.ae66 : xdc_noinit.oe66 (.text:__xdc__init)
                  00825d40    00000020     rts6600_elf.lib : _lock.obj (.text:_nop)
                  00825d60    00000020                     : printf.obj (.text:_outc)
                  00825d80    00000020                     : sprintf.obj (.text:_outc)
                  00825da0    00000020                     : printf.obj (.text:_outs)
                  00825dc0    00000020                     : _lock.obj (.text:_register_lock)
                  00825de0    00000020                     : _lock.obj (.text:_register_unlock)
                  00825e00    00000020     sysbios.ae66 : c62_TaskSupport_asm.obj (.text:_ti_sysbios_family_c62_TaskSupport_glue)
                  00825e20    00000020     rts6600_elf.lib : exit.obj (.text:abort)
                  00825e40    00000020                     : dtor_list.obj (.text:atexit)
                  00825e60    00000020                     : copy_decompress_none.obj (.text:decompress:none:__TI_decompress_none)
                  00825e80    00000020                     : copy_decompress_rle.obj (.text:decompress:rle24:__TI_decompress_rle24)
                  00825ea0    00000020                     : wchar.obj (.text:fgetwc)
                  00825ec0    00000020                     : wchar.obj (.text:fputwc)
                  00825ee0    00000020                     : fsetpos.obj (.text:fsetpos)
                  00825f00    00000020                     : setlocale.obj (.text:localeconv)
                  00825f20    00000020     scheduler_pe66.oe66 (.text:ti_sysbios_BIOS_RtsGateProxy_enter__E)
                  00825f40    00000020     scheduler_pe66.oe66 (.text:ti_sysbios_BIOS_RtsGateProxy_leave__E)
                  00825f60    00000020     sysbios.ae66 : BIOS.obj (.text:ti_sysbios_BIOS_exit__E)
                  00825f80    00000020     scheduler_pe66.oe66 (.text:ti_sysbios_BIOS_nullFunc__I)
                  00825fa0    00000020     sysbios.ae66 : BIOS.obj (.text:ti_sysbios_BIOS_setThreadType__E)
                  00825fc0    00000020                  : BIOS.obj (.text:ti_sysbios_BIOS_start__E)
                  00825fe0    00000020     scheduler_pe66.oe66 (.text:ti_sysbios_family_c62_TaskSupport_Module__startupDone__S)
                  00826000    00000020     sysbios.ae66 : BIOS.obj (.text:ti_sysbios_family_c62_TaskSupport_checkStack__E)
                  00826020    00000020                  : BIOS.obj (.text:ti_sysbios_family_c64p_Hwi_clearInterrupt__E)
                  00826040    00000020                  : BIOS.obj (.text:ti_sysbios_family_c64p_Hwi_startup__E)
                  00826060    00000020                  : BIOS.obj (.text:ti_sysbios_family_c64p_Hwi_switchFromBootStack__E)
                  00826080    00000020                  : BIOS.obj (.text:ti_sysbios_family_c64p_TimestampProvider_Module_startup__E)
                  008260a0    00000020                  : BIOS.obj (.text:ti_sysbios_family_c64p_TimestampProvider_get64__E)
                  008260c0    00000020                  : BIOS.obj (.text:ti_sysbios_family_c64p_tci6488_TimerSupport_enable__E)
                  008260e0    00000020                  : BIOS.obj (.text:ti_sysbios_gates_GateHwi_Instance_init__E)
                  00826100    00000020                  : BIOS.obj (.text:ti_sysbios_gates_GateHwi_enter__E)
                  00826120    00000020                  : BIOS.obj (.text:ti_sysbios_gates_GateHwi_leave__E)
                  00826140    00000020                  : BIOS.obj (.text:ti_sysbios_gates_GateHwi_query__E)
                  00826160    00000020                  : BIOS.obj (.text:ti_sysbios_gates_GateMutex_Instance_finalize__E)
                  00826180    00000020                  : BIOS.obj (.text:ti_sysbios_gates_GateMutex_query__E)
                  008261a0    00000020     scheduler_pe66.oe66 (.text:ti_sysbios_hal_Hwi_HwiProxy_Module__startupDone__S)
                  008261c0    00000020     sysbios.ae66 : BIOS.obj (.text:ti_sysbios_hal_Hwi_Module_startup__E)
                  008261e0    00000020     scheduler_pe66.oe66 (.text:ti_sysbios_heaps_HeapMem_Module_GateProxy_enter__E)
                  00826200    00000020     scheduler_pe66.oe66 (.text:ti_sysbios_heaps_HeapMem_Module_GateProxy_leave__E)
                  00826220    00000020     sysbios.ae66 : BIOS.obj (.text:ti_sysbios_heaps_HeapMem_isBlocking__E)
                  00826240    00000020     scheduler_pe66.oe66 (.text:ti_sysbios_knl_Clock_TimerProxy_Module__startupDone__S)
                  00826260    00000020     scheduler_pe66.oe66 (.text:ti_sysbios_knl_Clock_TimerProxy_getMaxTicks__E)
                  00826280    00000020     sysbios.ae66 : BIOS.obj (.text:ti_sysbios_knl_Clock_getTicks__E)
                  008262a0    00000020                  : BIOS.obj (.text:ti_sysbios_knl_Idle_loop__E)
                  008262c0    00000020                  : BIOS.obj (.text:ti_sysbios_knl_Queue_Instance_init__E)
                  008262e0    00000020     scheduler_pe66.oe66 (.text:ti_sysbios_knl_Queue_Object__get__S)
                  00826300    00000020     scheduler_pe66.oe66 (.text:ti_sysbios_knl_Queue_destruct)
                  00826320    00000020     sysbios.ae66 : BIOS.obj (.text:ti_sysbios_knl_Queue_empty__E)
                  00826340    00000020                  : BIOS.obj (.text:ti_sysbios_knl_Semaphore_Instance_finalize__E)
                  00826360    00000020     scheduler_pe66.oe66 (.text:ti_sysbios_knl_Semaphore_destruct)
                  00826380    00000020     sysbios.ae66 : BIOS.obj (.text:ti_sysbios_knl_Swi_disable__E)
                  008263a0    00000020                  : BIOS.obj (.text:ti_sysbios_knl_Swi_startup__E)
                  008263c0    00000020     scheduler_pe66.oe66 (.text:ti_sysbios_knl_Task_SupportProxy_Module__startupDone__S)
                  008263e0    00000020     sysbios.ae66 : BIOS.obj (.text:ti_sysbios_knl_Task_disable__E)
                  00826400    00000020                  : BIOS.obj (.text:ti_sysbios_knl_Task_startup__E)
                  00826420    00000020                  : BIOS.obj (.text:ti_sysbios_timers_timer64_Timer_getMaxTicks__E)
                  00826440    00000020     rts6600_elf.lib : tolower.obj (.text:tolower)
                  00826460    00000020                     : toupper.obj (.text:toupper)
                  00826480    00000020                     : multibyte.obj (.text:wctomb)
                  008264a0    00000020     ti.targets.rts6000.ae66 : Gate.oe66 (.text:xdc_runtime_Gate_enterSystem__E)
                  008264c0    00000020     scheduler_pe66.oe66 (.text:xdc_runtime_IHeap_alloc)
                  008264e0    00000020     scheduler_pe66.oe66 (.text:xdc_runtime_IHeap_free)
                  00826500    00000020     scheduler_pe66.oe66 (.text:xdc_runtime_LoggerBuf_Module_GateProxy_enter__E)
                  00826520    00000020     scheduler_pe66.oe66 (.text:xdc_runtime_LoggerBuf_Module_GateProxy_leave__E)
                  00826540    00000020     ti.targets.rts6000.ae66 : LoggerBuf.oe66 (.text:xdc_runtime_LoggerBuf_disable__E)
                  00826560    00000020                             : LoggerBuf.oe66 (.text:xdc_runtime_LoggerBuf_enable__E)
                  00826580    00000020     scheduler_pe66.oe66 (.text:xdc_runtime_Memory_HeapProxy_alloc__E)
                  008265a0    00000020     scheduler_pe66.oe66 (.text:xdc_runtime_Memory_HeapProxy_free__E)
                  008265c0    00000020     scheduler_pe66.oe66 (.text:xdc_runtime_Startup_exec__I)
                  008265e0    00000020     scheduler_pe66.oe66 (.text:xdc_runtime_Startup_reset__I)
                  00826600    00000020     ti.targets.rts6000.ae66 : SysMin.oe66 (.text:xdc_runtime_SysMin_ready__E)
                  00826620    00000020     scheduler_pe66.oe66 (.text:xdc_runtime_System_Module_GateProxy_enter__E)
                  00826640    00000020     scheduler_pe66.oe66 (.text:xdc_runtime_System_Module_GateProxy_leave__E)
                  00826660    00000020     ti.targets.rts6000.ae66 : System.oe66 (.text:xdc_runtime_System_Module_startup__E)
                  00826680    00000020                             : System.oe66 (.text:xdc_runtime_System_vsnprintf__E)
                  008266a0    00000020     scheduler_pe66.oe66 (.text:xdc_runtime_Text_visitRope__I)

.const     0    008266c0    00003822     
                  008266c0    0000163c     scheduler_pe66.oe66 (.const:xdc_runtime_Text_charTab__A)
                  00827cfc    00000518     sysbios.ae66 : BIOS.obj (.const:.string)
                  00828214    00000004     rts6600_elf.lib : locale0.obj (.const:.string)
                  00828218    00000400     scheduler_pe66.oe66 (.const:ti_sysbios_family_c66_Cache_marvalues__C)
                  00828618    0000024c     dynamicMemory.obj (.const:.string)
                  00828864    00000004     ti.targets.rts6000.ae66 : Assert.oe66 (.const:.string)
                  00828868    00000202     rts6600_elf.lib : xlocinfo.obj (.const:_ZSt8_Ctyptab)
                  00828a6a    00000002                     : iostream.obj (.const:.string)
                  00828a6c    00000180     displayFunctions.obj (.const:.string)
                  00828bec    00000004     dynamicMemory.obj (.const:_ZNSs4nposE)
                  00828bf0    00000101     rts6600_elf.lib : ctype.obj (.const:.string:_ctypes_)
                  00828cf1    00000002                     : wiostrea.obj (.const:.string)
                  00828cf3    00000001     scheduler_pe66.oe66 (.const:ti_sysbios_timers_timer64_Timer_localTimerBaseId__C)
                  00828cf4    000000e8     lteSystem.obj (.const:.string)
                  00828ddc    00000004     blasFunctions.obj (.const:_ZZSt5_FabsIfET_RKSt7complexIS0_EPiE16_Oneplusroot2low)
                  00828de0    000000c4     scheduler_pe66.oe66 (.const:xdc_runtime_Text_nodeTab__A)
                  00828ea4    00000058     ti.targets.rts6000.ae66 : Error.oe66 (.const:.string)
                  00828efc    00000054     scheduler_pe66.oe66 (.const:.string)
                  00828f50    00000050     sysMainLTE.obj (.const:.string)
                  00828fa0    00000048     rts6600_elf.lib : ios.obj (.const:.string)
                  00828fe8    00000048                     : iostream.obj (.const:_ZTVSt13basic_filebufIcSt11char_traitsIcEE)
                  00829030    00000048                     : wiostrea.obj (.const:_ZTVSt13basic_filebufIwSt11char_traitsIwEE)
                  00829078    00000048                     : iostream.obj (.const:_ZTVSt15basic_streambufIcSt11char_traitsIcEE)
                  008290c0    00000048                     : wiostrea.obj (.const:_ZTVSt15basic_streambufIwSt11char_traitsIwEE)
                  00829108    00000040     ti.targets.rts6000.ae66 : Text.oe66 (.const:.string)
                  00829148    00000040     rts6600_elf.lib : wiostrea.obj (.const:_ZTVSt5ctypeIwE)
                  00829188    0000003c     scheduler_pe66.oe66 (.const:xdc_runtime_LoggerBuf_Module__FXNS__C)
                  008291c4    00000004     blasFunctions.obj (.const:_ZZSt5_FabsIfET_RKSt7complexIS0_EPiE17_Oneplusroot2high)
                  008291c8    0000003a     dynamicMemory.obj (.const:.string:_ZTSSt7num_putIcSt19ostreambuf_iteratorIcSt11char_traitsIcEEE)
                  00829202    00000030     rts6600_elf.lib : string.obj (.const:.string)
                  00829232    00000005                     : setlocale.obj (.const:.string)
                  00829237    00000001     --HOLE-- [fill = 0]
                  00829238    00000030                     : iostream.obj (.const:_ZTVSi)
                  00829268    00000030                     : iostream.obj (.const:_ZTVSo)
                  00829298    00000030                     : wiostrea.obj (.const:_ZTVSt13basic_istreamIwSt11char_traitsIwEE)
                  008292c8    00000030                     : wiostrea.obj (.const:_ZTVSt13basic_ostreamIwSt11char_traitsIwEE)
                  008292f8    00000030     blasFunctions.obj (.const:_ZTVSt5ctypeIcE)
                  00829328    00000030     dynamicMemory.obj (.const:_ZTVSt7num_putIcSt19ostreambuf_iteratorIcSt11char_traitsIcEEE)
                  00829358    00000030     scheduler_pe66.oe66 (.const:xdc_runtime_Startup_sfxnTab__A)
                  00829388    0000002c     ti.targets.rts6000.ae66 : Startup.oe66 (.const:.string)
                  008293b4    00000004     blasFunctions.obj (.const:_ZZSt5_FabsIfET_RKSt7complexIS0_EPiE6_Root2)
                  008293b8    0000002c     rts6600_elf.lib : iostream.obj (.const:_ZTVSt7codecvtIcciE)
                  008293e4    00000004                     : ios.obj (.const)
                  008293e8    0000002c                     : wiostrea.obj (.const:_ZTVSt7codecvtIwciE)
                  00829414    00000004     scheduler_pe66.oe66 (.const:ti_sysbios_family_c64p_Exception_E_exceptionMax__C)
                  00829418    00000029     rts6600_elf.lib : iostream.obj (.const:.string:_ZTSSt15basic_streambufIcSt11char_traitsIcEE)
                  00829441    00000001     --HOLE-- [fill = 0]
                  00829442    00000002     scheduler_pe66.oe66 (.const:ti_sysbios_family_c64p_Exception_Module__id__C)
                  00829444    00000004     scheduler_pe66.oe66 (.const:ti_sysbios_family_c64p_Exception_exceptionHook__C)
                  00829448    00000029     rts6600_elf.lib : wiostrea.obj (.const:.string:_ZTSSt15basic_streambufIwSt11char_traitsIwEE)
                  00829471    00000001     --HOLE-- [fill = 0]
                  00829472    00000002     scheduler_pe66.oe66 (.const:ti_sysbios_family_c64p_Exception_useInternalBuffer__C)
                  00829474    00000028     scheduler_pe66.oe66 (.const:ti_sysbios_heaps_HeapMem_Module__FXNS__C)
                  0082949c    00000028     scheduler_pe66.oe66 (.const:xdc_runtime_LoggerBuf_Object__PARAMS__C)
                  008294c4    00000004     scheduler_pe66.oe66 (.const:ti_sysbios_family_c64p_Exception_externalHook__C)
                  008294c8    00000027     rts6600_elf.lib : iostream.obj (.const:.string:_ZTSSt13basic_filebufIcSt11char_traitsIcEE)
                  008294ef    00000001     --HOLE-- [fill = 0]
                  008294f0    00000027                     : wiostrea.obj (.const:.string:_ZTSSt13basic_filebufIwSt11char_traitsIwEE)
                  00829517    00000001     --HOLE-- [fill = 0]
                  00829518    00000027                     : wiostrea.obj (.const:.string:_ZTSSt13basic_istreamIwSt11char_traitsIwEE)
                  0082953f    00000001     --HOLE-- [fill = 0]
                  00829540    00000027                     : wiostrea.obj (.const:.string:_ZTSSt13basic_ostreamIwSt11char_traitsIwEE)
                  00829567    00000001     --HOLE-- [fill = 0]
                  00829568    00000026                     : typeinfo_.obj (.const:.string:_ZTSN10__cxxabiv121__vmi_class_type_infoE)
                  0082958e    00000002     scheduler_pe66.oe66 (.const:ti_sysbios_family_c64p_Hwi_Module__id__C)
                  00829590    00000025     rts6600_elf.lib : typeinfo_.obj (.const:.string:_ZTSN10__cxxabiv120__si_class_type_infoE)
                  008295b5    00000001     --HOLE-- [fill = 0]
                  008295b6    00000002     scheduler_pe66.oe66 (.const:ti_sysbios_family_c64p_Hwi_Module__loggerDefined__C)
                  008295b8    00000024     dynamicMemory.obj (.const:_ZTVSt8numpunctIcE)
                  008295dc    00000024     scheduler_pe66.oe66 (.const:ti_sysbios_gates_GateHwi_Module__FXNS__C)
                  00829600    00000024     scheduler_pe66.oe66 (.const:ti_sysbios_gates_GateMutex_Module__FXNS__C)
                  00829624    00000024     scheduler_pe66.oe66 (.const:ti_sysbios_heaps_HeapMem_Object__PARAMS__C)
                  00829648    00000024     scheduler_pe66.oe66 (.const:ti_sysbios_knl_Semaphore_Object__PARAMS__C)
                  0082966c    00000023     rts6600_elf.lib : _printfi.obj (.const:.string)
                  0082968f    00000001     --HOLE-- [fill = 0]
                  00829690    00000022                     : typeinfo_.obj (.const:.string:_ZTSN10__cxxabiv117__class_type_infoE)
                  008296b2    00000002     scheduler_pe66.oe66 (.const:ti_sysbios_hal_Hwi_Module__id__C)
                  008296b4    00000004     scheduler_pe66.oe66 (.const:ti_sysbios_family_c64p_Exception_internalHook__C)
                  008296b8    00000022     rts6600_elf.lib : iostream.obj (.const:.string:_ZTSSt9basic_iosIcSt11char_traitsIcEE)
                  008296da    00000002     scheduler_pe66.oe66 (.const:ti_sysbios_heaps_HeapMem_Module__id__C)
                  008296dc    00000004     scheduler_pe66.oe66 (.const:ti_sysbios_family_c64p_Exception_nmiHook__C)
                  008296e0    00000022     rts6600_elf.lib : wiostrea.obj (.const:.string:_ZTSSt9basic_iosIwSt11char_traitsIwEE)
                  00829702    00000002     scheduler_pe66.oe66 (.const:ti_sysbios_knl_Clock_Module__id__C)
                  00829704    00000020     schedulingAlgorithms.obj (.const:.string)
                  00829724    00000020     scheduler_pe66.oe66 (.const:ti_sysbios_gates_GateHwi_Object__DESC__C)
                  00829744    00000020     scheduler_pe66.oe66 (.const:ti_sysbios_gates_GateMutex_Object__DESC__C)
                  00829764    00000020     scheduler_pe66.oe66 (.const:ti_sysbios_heaps_HeapMem_Object__DESC__C)
                  00829784    00000020     scheduler_pe66.oe66 (.const:ti_sysbios_knl_Queue_Object__DESC__C)
                  008297a4    00000020     scheduler_pe66.oe66 (.const:ti_sysbios_knl_Semaphore_Object__DESC__C)
                  008297c4    00000020     scheduler_pe66.oe66 (.const:xdc_runtime_LoggerBuf_Object__DESC__C)
                  008297e4    00000004     scheduler_pe66.oe66 (.const:ti_sysbios_family_c64p_Hwi_LD_end__C)
                  008297e8    0000001c     rts6600_elf.lib : iostream.obj (.const:_ZTVSt12codecvt_base)
                  00829804    00000018                     : iostream.obj (.const:_ZTISi)
                  0082981c    00000018                     : iostream.obj (.const:_ZTISo)
                  00829834    00000018                     : wiostrea.obj (.const:_ZTISt13basic_istreamIwSt11char_traitsIwEE)
                  0082984c    00000018                     : wiostrea.obj (.const:_ZTISt13basic_ostreamIwSt11char_traitsIwEE)
                  00829864    00000004     scheduler_pe66.oe66 (.const:ti_sysbios_family_c64p_Hwi_LM_begin__C)
                  00829868    00000018     rts6600_elf.lib : ios.obj (.const:_ZTVNSt8ios_base7failureE)
                  00829880    00000018                     : string.obj (.const:_ZTVSt11logic_error)
                  00829898    00000018                     : string.obj (.const:_ZTVSt12length_error)
                  008298b0    00000018                     : string.obj (.const:_ZTVSt12out_of_range)
                  008298c8    00000018                     : ios.obj (.const:_ZTVSt13runtime_error)
                  008298e0    00000018                     : ios.obj (.const:_ZTVSt9exception)
                  008298f8    00000018     scheduler_pe66.oe66 (.const:ti_sysbios_gates_GateHwi_Object__PARAMS__C)
                  00829910    00000018     scheduler_pe66.oe66 (.const:ti_sysbios_gates_GateMutex_Object__PARAMS__C)
                  00829928    00000018     scheduler_pe66.oe66 (.const:ti_sysbios_knl_Queue_Object__PARAMS__C)
                  00829940    00000018     scheduler_pe66.oe66 (.const:xdc_runtime_Startup_sfxnRts__A)
                  00829958    00000016     rts6600_elf.lib : ios.obj (.const:.string:_ZTSNSt8ios_base7failureE)
                  0082996e    00000016                     : throw.obj (.const:.string)
                  00829984    00000004     scheduler_pe66.oe66 (.const:ti_sysbios_family_c64p_Hwi_Module__diagsEnabled__C)
                  00829988    00000014     rts6600_elf.lib : locale0.obj (.const:.string:_ZTSNSt6locale7_LocimpE)
                  0082999c    00000014     blasFunctions.obj (.const:.string)
                  008299b0    00000012     blasFunctions.obj (.const:.string:_ZTSNSt6locale5facetE)
                  008299c2    00000002     scheduler_pe66.oe66 (.const:ti_sysbios_knl_Clock_Module__loggerDefined__C)
                  008299c4    00000004     scheduler_pe66.oe66 (.const:ti_sysbios_family_c64p_Hwi_Module__diagsIncluded__C)
                  008299c8    00000012     rts6600_elf.lib : ios.obj (.const:.string:_ZTSSt13runtime_error)
                  008299da    00000002     scheduler_pe66.oe66 (.const:ti_sysbios_knl_Semaphore_Module__id__C)
                  008299dc    00000004     scheduler_pe66.oe66 (.const:ti_sysbios_family_c64p_Hwi_Module__diagsMask__C)
                  008299e0    00000011     rts6600_elf.lib : iostream.obj (.const:.string:_ZTSSt12codecvt_base)
                  008299f1    00000001     --HOLE-- [fill = 0]
                  008299f2    00000002     scheduler_pe66.oe66 (.const:ti_sysbios_knl_Semaphore_Module__loggerDefined__C)
                  008299f4    00000004     scheduler_pe66.oe66 (.const:ti_sysbios_family_c64p_Hwi_Module__loggerFxn1__C)
                  008299f8    00000011     rts6600_elf.lib : string.obj (.const:.string:_ZTSSt12length_error)
                  00829a09    00000001     --HOLE-- [fill = 0]
                  00829a0a    00000002     scheduler_pe66.oe66 (.const:ti_sysbios_knl_Swi_Module__id__C)
                  00829a0c    00000004     scheduler_pe66.oe66 (.const:ti_sysbios_family_c64p_Hwi_Module__loggerFxn8__C)
                  00829a10    00000011     rts6600_elf.lib : string.obj (.const:.string:_ZTSSt12out_of_range)
                  00829a21    00000001     --HOLE-- [fill = 0]
                  00829a22    00000002     scheduler_pe66.oe66 (.const:ti_sysbios_knl_Swi_Module__loggerDefined__C)
                  00829a24    0000000c     rts6600_elf.lib : typeinfo_.obj (.const:_ZTIN10__cxxabiv117__class_type_infoE)
                  00829a30    00000011     ti.targets.rts6000.ae66 : System.oe66 (.const:digtohex)
                  00829a41    00000001     --HOLE-- [fill = 0]
                  00829a42    00000002     scheduler_pe66.oe66 (.const:ti_sysbios_knl_Task_Module__id__C)
                  00829a44    00000004     scheduler_pe66.oe66 (.const:ti_sysbios_family_c64p_Hwi_Module__loggerObj__C)
                  00829a48    00000010     rts6600_elf.lib : string.obj (.const:.string:_ZTSSt11logic_error)
                  00829a58    00000010                     : iostream.obj (.const:.string:_ZTSSt7codecvtIcciE)
                  00829a68    00000010                     : wiostrea.obj (.const:.string:_ZTSSt7codecvtIwciE)
                  00829a78    00000010     frameworkFunctions.obj (.const:.string)
                  00829a88    00000010     rts6600_elf.lib : typeinfo_.obj (.const:_ZTVN10__cxxabiv117__class_type_infoE)
                  00829a98    00000010                     : typeinfo_.obj (.const:_ZTVN10__cxxabiv120__si_class_type_infoE)
                  00829aa8    00000010                     : typeinfo_.obj (.const:_ZTVN10__cxxabiv121__vmi_class_type_infoE)
                  00829ab8    00000010     blasFunctions.obj (.const:_ZTVNSt6locale5facetE)
                  00829ac8    00000010     rts6600_elf.lib : locale0.obj (.const:_ZTVNSt6locale7_LocimpE)
                  00829ad8    00000010     blasFunctions.obj (.const:_ZTVSt10ctype_base)
                  00829ae8    00000010     rts6600_elf.lib : ios.obj (.const:_ZTVSt8ios_base)
                  00829af8    00000010                     : iostream.obj (.const:_ZTVSt9basic_iosIcSt11char_traitsIcEE)
                  00829b08    00000010                     : wiostrea.obj (.const:_ZTVSt9basic_iosIwSt11char_traitsIwEE)
                  00829b18    0000000f     blasFunctions.obj (.const:.string:_ZTSSt10ctype_base)
                  00829b27    00000001     --HOLE-- [fill = 0]
                  00829b28    0000000f     dynamicMemory.obj (.const:.string:_ZTSSt8numpunctIcE)
                  00829b37    00000001     --HOLE-- [fill = 0]
                  00829b38    0000000d     rts6600_elf.lib : ios.obj (.const:.string:_ZTSSt9exception)
                  00829b45    00000001     --HOLE-- [fill = 0]
                  00829b46    00000002     scheduler_pe66.oe66 (.const:ti_sysbios_knl_Task_Module__loggerDefined__C)
                  00829b48    0000000d     rts6600_elf.lib : typeinfo_.obj (.const:.string:_ZTSSt9type_info)
                  00829b55    00000001     --HOLE-- [fill = 0]
                  00829b56    00000002     scheduler_pe66.oe66 (.const:ti_sysbios_knl_Task_initStackFlag__C)
                  00829b58    0000000c     rts6600_elf.lib : ios.obj (.const:.string:_ZTSSt5_IosbIiE)
                  00829b64    00000004     scheduler_pe66.oe66 (.const:ti_sysbios_gates_GateMutex_Instance_State_sem__O)
                  00829b68    0000000c     blasFunctions.obj (.const:.string:_ZTSSt5ctypeIcE)
                  00829b74    00000004     scheduler_pe66.oe66 (.const:ti_sysbios_hal_Hwi_E_stackOverflow__C)
                  00829b78    0000000c     rts6600_elf.lib : wiostrea.obj (.const:.string:_ZTSSt5ctypeIwE)
                  00829b84    00000004     scheduler_pe66.oe66 (.const:ti_sysbios_heaps_HeapMem_E_memory__C)
                  00829b88    0000000c     rts6600_elf.lib : ios.obj (.const:.string:_ZTSSt8ios_base)
                  00829b94    0000000c                     : typeinfo_.obj (.const:_ZTIN10__cxxabiv120__si_class_type_infoE)
                  00829ba0    0000000c                     : typeinfo_.obj (.const:_ZTIN10__cxxabiv121__vmi_class_type_infoE)
                  00829bac    0000000c                     : locale0.obj (.const:_ZTINSt6locale7_LocimpE)
                  00829bb8    0000000c                     : ios.obj (.const:_ZTINSt8ios_base7failureE)
                  00829bc4    0000000c     blasFunctions.obj (.const:_ZTISt10ctype_base)
                  00829bd0    0000000c     rts6600_elf.lib : string.obj (.const:_ZTISt11logic_error)
                  00829bdc    0000000c                     : iostream.obj (.const:_ZTISt12codecvt_base)
                  00829be8    0000000c                     : string.obj (.const:_ZTISt12length_error)
                  00829bf4    0000000c                     : string.obj (.const:_ZTISt12out_of_range)
                  00829c00    0000000c                     : iostream.obj (.const:_ZTISt13basic_filebufIcSt11char_traitsIcEE)
                  00829c0c    0000000c                     : wiostrea.obj (.const:_ZTISt13basic_filebufIwSt11char_traitsIwEE)
                  00829c18    0000000c                     : ios.obj (.const:_ZTISt13runtime_error)
                  00829c24    0000000c     blasFunctions.obj (.const:_ZTISt5ctypeIcE)
                  00829c30    0000000c     rts6600_elf.lib : wiostrea.obj (.const:_ZTISt5ctypeIwE)
                  00829c3c    0000000c                     : iostream.obj (.const:_ZTISt7codecvtIcciE)
                  00829c48    0000000c                     : wiostrea.obj (.const:_ZTISt7codecvtIwciE)
                  00829c54    0000000c     dynamicMemory.obj (.const:_ZTISt7num_putIcSt19ostreambuf_iteratorIcSt11char_traitsIcEEE)
                  00829c60    0000000c     rts6600_elf.lib : ios.obj (.const:_ZTISt8ios_base)
                  00829c6c    0000000c     dynamicMemory.obj (.const:_ZTISt8numpunctIcE)
                  00829c78    0000000c     rts6600_elf.lib : iostream.obj (.const:_ZTISt9basic_iosIcSt11char_traitsIcEE)
                  00829c84    0000000c                     : wiostrea.obj (.const:_ZTISt9basic_iosIwSt11char_traitsIwEE)
                  00829c90    0000000c     scheduler_pe66.oe66 (.const:ti_sysbios_family_c66_Cache_initSize__C)
                  00829c9c    00000009     dynamicMemory.obj (.const)
                  00829ca5    00000001     --HOLE-- [fill = 0]
                  00829ca6    00000002     scheduler_pe66.oe66 (.const:ti_sysbios_timers_timer64_Timer_Module__id__C)
                  00829ca8    00000008     ti.targets.rts6000.ae66 : System.oe66 (.const:.string)
                  00829cb0    00000008     blasFunctions.obj (.const:_ZTINSt6locale5facetE)
                  00829cb8    00000008     rts6600_elf.lib : iostream.obj (.const:_ZTISt15basic_streambufIcSt11char_traitsIcEE)
                  00829cc0    00000008                     : wiostrea.obj (.const:_ZTISt15basic_streambufIwSt11char_traitsIwEE)
                  00829cc8    00000008                     : ios.obj (.const:_ZTISt5_IosbIiE)
                  00829cd0    00000008                     : ios.obj (.const:_ZTISt9exception)
                  00829cd8    00000008                     : typeinfo_.obj (.const:_ZTISt9type_info)
                  00829ce0    00000008     blasFunctions.obj (.const)
                  00829ce8    00000008     scheduler_pe66.oe66 (.const:ti_sysbios_knl_Idle_funcList__C)
                  00829cf0    00000008     scheduler_pe66.oe66 (.const:xdc_runtime_Startup_firstFxns__A)
                  00829cf8    00000008     scheduler_pe66.oe66 (.const:xdc_runtime_Startup_firstFxns__C)
                  00829d00    00000008     scheduler_pe66.oe66 (.const:xdc_runtime_Startup_lastFxns__C)
                  00829d08    00000006     dynamicMemory.obj (.const:.string:_ZZNKSt8_Locinfo9_GetfalseEvEs)
                  00829d0e    00000002     scheduler_pe66.oe66 (.const:ti_sysbios_timers_timer64_Timer_startupNeeded__C)
                  00829d10    00000005     dynamicMemory.obj (.const:.string:_ZZNKSt8_Locinfo8_GettrueEvEs)
                  00829d15    00000001     --HOLE-- [fill = 0]
                  00829d16    00000002     scheduler_pe66.oe66 (.const:ti_sysbios_timers_timer64_Timer_useTimer64pRegMap__C)
                  00829d18    00000004     scheduler_pe66.oe66 (.const:ti_sysbios_heaps_HeapMem_Module__gateObj__C)
                  00829d1c    00000004     scheduler_pe66.oe66 (.const:ti_sysbios_heaps_HeapMem_Object__count__C)
                  00829d20    00000004     scheduler_pe66.oe66 (.const:ti_sysbios_heaps_HeapMem_reqAlign__C)
                  00829d24    00000004     scheduler_pe66.oe66 (.const:ti_sysbios_knl_Clock_LM_begin__C)
                  00829d28    00000004     scheduler_pe66.oe66 (.const:ti_sysbios_knl_Clock_LM_tick__C)
                  00829d2c    00000004     scheduler_pe66.oe66 (.const:ti_sysbios_knl_Clock_LW_delayed__C)
                  00829d30    00000004     scheduler_pe66.oe66 (.const:ti_sysbios_knl_Clock_Module_State_clockQ__O)
                  00829d34    00000004     scheduler_pe66.oe66 (.const:ti_sysbios_knl_Clock_Module__diagsEnabled__C)
                  00829d38    00000004     scheduler_pe66.oe66 (.const:ti_sysbios_knl_Clock_Module__diagsIncluded__C)
                  00829d3c    00000004     scheduler_pe66.oe66 (.const:ti_sysbios_knl_Clock_Module__diagsMask__C)
                  00829d40    00000004     scheduler_pe66.oe66 (.const:ti_sysbios_knl_Clock_Module__loggerFxn1__C)
                  00829d44    00000004     scheduler_pe66.oe66 (.const:ti_sysbios_knl_Clock_Module__loggerFxn2__C)
                  00829d48    00000004     scheduler_pe66.oe66 (.const:ti_sysbios_knl_Clock_Module__loggerObj__C)
                  00829d4c    00000004     scheduler_pe66.oe66 (.const:ti_sysbios_knl_Semaphore_Instance_State_pendQ__O)
                  00829d50    00000004     scheduler_pe66.oe66 (.const:ti_sysbios_knl_Idle_funcList__A)
                  00829d54    00000004     scheduler_pe66.oe66 (.const:ti_sysbios_knl_Semaphore_LM_pend__C)
                  00829d58    00000004     scheduler_pe66.oe66 (.const:ti_sysbios_knl_Semaphore_LM_post__C)
                  00829d5c    00000004     scheduler_pe66.oe66 (.const:ti_sysbios_knl_Semaphore_Module__diagsEnabled__C)
                  00829d60    00000004     scheduler_pe66.oe66 (.const:ti_sysbios_knl_Semaphore_Module__diagsIncluded__C)
                  00829d64    00000004     scheduler_pe66.oe66 (.const:ti_sysbios_knl_Semaphore_Module__diagsMask__C)
                  00829d68    00000004     scheduler_pe66.oe66 (.const:ti_sysbios_knl_Semaphore_Module__loggerFxn2__C)
                  00829d6c    00000004     scheduler_pe66.oe66 (.const:ti_sysbios_knl_Semaphore_Module__loggerFxn4__C)
                  00829d70    00000004     scheduler_pe66.oe66 (.const:ti_sysbios_knl_Semaphore_Module__loggerObj__C)
                  00829d74    00000004     scheduler_pe66.oe66 (.const:ti_sysbios_knl_Swi_LD_end__C)
                  00829d78    00000004     scheduler_pe66.oe66 (.const:ti_sysbios_knl_Swi_LM_begin__C)
                  00829d7c    00000004     scheduler_pe66.oe66 (.const:ti_sysbios_knl_Swi_LM_post__C)
                  00829d80    00000004     scheduler_pe66.oe66 (.const:ti_sysbios_knl_Swi_Module__diagsEnabled__C)
                  00829d84    00000004     scheduler_pe66.oe66 (.const:ti_sysbios_knl_Swi_Module__diagsIncluded__C)
                  00829d88    00000004     scheduler_pe66.oe66 (.const:ti_sysbios_knl_Swi_Module__diagsMask__C)
                  00829d8c    00000004     scheduler_pe66.oe66 (.const:ti_sysbios_knl_Swi_Module__loggerFxn1__C)
                  00829d90    00000004     scheduler_pe66.oe66 (.const:ti_sysbios_knl_Swi_Module__loggerFxn4__C)
                  00829d94    00000004     scheduler_pe66.oe66 (.const:ti_sysbios_knl_Swi_Module__loggerObj__C)
                  00829d98    00000004     scheduler_pe66.oe66 (.const:ti_sysbios_knl_Swi_Object__count__C)
                  00829d9c    00000004     scheduler_pe66.oe66 (.const:ti_sysbios_knl_Task_E_spOutOfBounds__C)
                  00829da0    00000004     scheduler_pe66.oe66 (.const:ti_sysbios_knl_Task_E_stackOverflow__C)
                  00829da4    00000004     scheduler_pe66.oe66 (.const:ti_sysbios_knl_Task_LD_block__C)
                  00829da8    00000004     scheduler_pe66.oe66 (.const:ti_sysbios_knl_Task_LD_exit__C)
                  00829dac    00000004     scheduler_pe66.oe66 (.const:ti_sysbios_knl_Task_LD_ready__C)
                  00829db0    00000004     scheduler_pe66.oe66 (.const:ti_sysbios_knl_Task_LM_switch__C)
                  00829db4    00000004     scheduler_pe66.oe66 (.const:ti_sysbios_knl_Task_Module_State_inactiveQ__O)
                  00829db8    00000004     scheduler_pe66.oe66 (.const:ti_sysbios_knl_Task_Module__diagsEnabled__C)
                  00829dbc    00000004     scheduler_pe66.oe66 (.const:ti_sysbios_knl_Task_Module__diagsIncluded__C)
                  00829dc0    00000004     scheduler_pe66.oe66 (.const:ti_sysbios_knl_Task_Module__diagsMask__C)
                  00829dc4    00000004     scheduler_pe66.oe66 (.const:ti_sysbios_knl_Task_Module__loggerFxn2__C)
                  00829dc8    00000004     scheduler_pe66.oe66 (.const:ti_sysbios_knl_Task_Module__loggerFxn4__C)
                  00829dcc    00000004     scheduler_pe66.oe66 (.const:ti_sysbios_knl_Task_Module__loggerObj__C)
                  00829dd0    00000004     scheduler_pe66.oe66 (.const:ti_sysbios_knl_Task_Object__count__C)
                  00829dd4    00000004     scheduler_pe66.oe66 (.const:ti_sysbios_knl_Task_allBlockedFunc__C)
                  00829dd8    00000004     scheduler_pe66.oe66 (.const:ti_sysbios_knl_Task_numConstructedTasks__C)
                  00829ddc    00000004     scheduler_pe66.oe66 (.const:ti_sysbios_timers_timer64_Timer_E_cannotSupport__C)
                  00829de0    00000004     scheduler_pe66.oe66 (.const:ti_sysbios_timers_timer64_Timer_anyMaskHigh__C)
                  00829de4    00000004     scheduler_pe66.oe66 (.const:ti_sysbios_timers_timer64_Timer_anyMask__C)
                  00829de8    00000004     scheduler_pe66.oe66 (.const:ti_sysbios_timers_timer64_Timer_freqDivisor__C)
                  00829dec    00000004     scheduler_pe66.oe66 (.const:ti_sysbios_timers_timer64_Timer_numLocalTimers__C)
                  00829df0    00000004     scheduler_pe66.oe66 (.const:ti_sysbios_timers_timer64_Timer_numTimerDevices__C)
                  00829df4    00000004     scheduler_pe66.oe66 (.const:xdc_runtime_Assert_E_assertFailed__C)
                  00829df8    00000004     scheduler_pe66.oe66 (.const:xdc_runtime_Core_A_initializedParams__C)
                  00829dfc    00000004     scheduler_pe66.oe66 (.const:xdc_runtime_Core_Module__diagsEnabled__C)
                  00829e00    00000004     scheduler_pe66.oe66 (.const:xdc_runtime_Core_Module__diagsIncluded__C)
                  00829e04    00000004     scheduler_pe66.oe66 (.const:xdc_runtime_Core_Module__diagsMask__C)
                  00829e08    00000004     scheduler_pe66.oe66 (.const:xdc_runtime_Error_E_memory__C)
                  00829e0c    00000004     scheduler_pe66.oe66 (.const:xdc_runtime_Error_Module__diagsEnabled__C)
                  00829e10    00000004     scheduler_pe66.oe66 (.const:xdc_runtime_Error_Module__diagsIncluded__C)
                  00829e14    00000004     scheduler_pe66.oe66 (.const:xdc_runtime_Error_Module__diagsMask__C)
                  00829e18    00000004     scheduler_pe66.oe66 (.const:xdc_runtime_Error_Module__loggerFxn8__C)
                  00829e1c    00000004     scheduler_pe66.oe66 (.const:xdc_runtime_Error_Module__loggerObj__C)
                  00829e20    00000004     scheduler_pe66.oe66 (.const:xdc_runtime_Error_policyFxn__C)
                  00829e24    00000004     scheduler_pe66.oe66 (.const:xdc_runtime_Error_policy__C)
                  00829e28    00000004     scheduler_pe66.oe66 (.const:xdc_runtime_Error_raiseHook__C)
                  00829e2c    00000004     scheduler_pe66.oe66 (.const:xdc_runtime_IFilterLogger_Interface__BASE__C)
                  00829e30    00000004     scheduler_pe66.oe66 (.const:xdc_runtime_IGateProvider_Interface__BASE__C)
                  00829e34    00000004     scheduler_pe66.oe66 (.const:xdc_runtime_IHeap_Interface__BASE__C)
                  00829e38    00000004     scheduler_pe66.oe66 (.const:xdc_runtime_ILogger_Interface__BASE__C)
                  00829e3c    00000004     scheduler_pe66.oe66 (.const:xdc_runtime_IModule_Interface__BASE__C)
                  00829e40    00000004     scheduler_pe66.oe66 (.const:xdc_runtime_Log_L_error__C)
                  00829e44    00000004     scheduler_pe66.oe66 (.const:xdc_runtime_LoggerBuf_E_badLevel__C)
                  00829e48    00000004     scheduler_pe66.oe66 (.const:xdc_runtime_LoggerBuf_Module__gateObj__C)
                  00829e4c    00000004     scheduler_pe66.oe66 (.const:xdc_runtime_LoggerBuf_Object__count__C)
                  00829e50    00000004     scheduler_pe66.oe66 (.const:xdc_runtime_LoggerBuf_statusLogger__C)
                  00829e54    00000004     scheduler_pe66.oe66 (.const:xdc_runtime_Memory_defaultHeapInstance__C)
                  00829e58    00000004     scheduler_pe66.oe66 (.const:xdc_runtime_Startup_execImpl__C)
                  00829e5c    00000004     scheduler_pe66.oe66 (.const:xdc_runtime_Startup_maxPasses__C)
                  00829e60    00000004     scheduler_pe66.oe66 (.const:xdc_runtime_Startup_sfxnRts__C)
                  00829e64    00000004     scheduler_pe66.oe66 (.const:xdc_runtime_Startup_sfxnTab__C)
                  00829e68    00000004     scheduler_pe66.oe66 (.const:xdc_runtime_SysMin_bufSize__C)
                  00829e6c    00000004     scheduler_pe66.oe66 (.const:xdc_runtime_SysMin_outputFunc__C)
                  00829e70    00000004     scheduler_pe66.oe66 (.const:xdc_runtime_System_Module__gateObj__C)
                  00829e74    00000004     scheduler_pe66.oe66 (.const:xdc_runtime_System_abortFxn__C)
                  00829e78    00000004     scheduler_pe66.oe66 (.const:xdc_runtime_System_exitFxn__C)
                  00829e7c    00000004     scheduler_pe66.oe66 (.const:xdc_runtime_System_extendFxn__C)
                  00829e80    00000004     scheduler_pe66.oe66 (.const:xdc_runtime_System_maxAtexitHandlers__C)
                  00829e84    00000004     scheduler_pe66.oe66 (.const:xdc_runtime_Text_charTab__C)
                  00829e88    00000004     scheduler_pe66.oe66 (.const:xdc_runtime_Text_nameEmpty__C)
                  00829e8c    00000004     scheduler_pe66.oe66 (.const:xdc_runtime_Text_nameStatic__C)
                  00829e90    00000004     scheduler_pe66.oe66 (.const:xdc_runtime_Text_nameUnknown__C)
                  00829e94    00000004     scheduler_pe66.oe66 (.const:xdc_runtime_Text_nodeTab__C)
                  00829e98    00000004     scheduler_pe66.oe66 (.const:xdc_runtime_Text_visitRopeFxn__C)
                  00829e9c    00000002     scheduler_pe66.oe66 (.const:xdc_runtime_Core_Module__id__C)
                  00829e9e    00000002     scheduler_pe66.oe66 (.const:xdc_runtime_Error_Module__loggerDefined__C)
                  00829ea0    00000003     rts6600_elf.lib : iostream.obj (.const:.string:_ZTSSi)
                  00829ea3    00000001     --HOLE-- [fill = 0]
                  00829ea4    00000002     scheduler_pe66.oe66 (.const:xdc_runtime_Error_maxDepth__C)
                  00829ea6    00000002     scheduler_pe66.oe66 (.const:xdc_runtime_LoggerBuf_Module__id__C)
                  00829ea8    00000003     rts6600_elf.lib : iostream.obj (.const:.string:_ZTSSo)
                  00829eab    00000001     --HOLE-- [fill = 0]
                  00829eac    00000002     scheduler_pe66.oe66 (.const:xdc_runtime_LoggerBuf_filterByLevel__C)
                  00829eae    00000002     scheduler_pe66.oe66 (.const:xdc_runtime_Memory_Module__id__C)
                  00829eb0    00000003     dynamicMemory.obj (.const:.string:_ZZNKSt7num_putIcSt19ostreambuf_iteratorIcSt11char_traitsIcEEE6do_putES3_RSt8ios_basecPKvEs)
                  00829eb3    00000001     --HOLE-- [fill = 0]
                  00829eb4    00000002     scheduler_pe66.oe66 (.const:xdc_runtime_SysMin_flushAtExit__C)
                  00829eb6    00000002     scheduler_pe66.oe66 (.const:xdc_runtime_Text_charCnt__C)
                  00829eb8    00000003     dynamicMemory.obj (.const:.string:_ZZNKSt7num_putIcSt19ostreambuf_iteratorIcSt11char_traitsIcEEE6do_putES3_RSt8ios_baseclEs)
                  00829ebb    00000001     --HOLE-- [fill = 0]
                  00829ebc    00000002     scheduler_pe66.oe66 (.const:xdc_runtime_Text_isLoaded__C)
                  00829ebe    00000002     scheduler_pe66.oe66 (.const:xdc_runtime_Text_registryModsLastId__C)
                  00829ec0    00000003     dynamicMemory.obj (.const:.string:_ZZNKSt7num_putIcSt19ostreambuf_iteratorIcSt11char_traitsIcEEE6do_putES3_RSt8ios_basecmEs)
                  00829ec3    00000001     --HOLE-- [fill = 0]
                  00829ec4    00000002     scheduler_pe66.oe66 (.const:xdc_runtime_Text_unnamedModsLastId__C)
                  00829ec6    00000002     --HOLE-- [fill = 0]
                  00829ec8    00000003     dynamicMemory.obj (.const:.string:_ZZNKSt7num_putIcSt19ostreambuf_iteratorIcSt11char_traitsIcEEE6do_putES3_RSt8ios_basecxEs)
                  00829ecb    00000005     --HOLE-- [fill = 0]
                  00829ed0    00000003     dynamicMemory.obj (.const:.string:_ZZNKSt7num_putIcSt19ostreambuf_iteratorIcSt11char_traitsIcEEE6do_putES3_RSt8ios_basecyEs)
                  00829ed3    00000005     --HOLE-- [fill = 0]
                  00829ed8    00000002     dynamicMemory.obj (.const:.string:_ZZNKSt7num_putIcSt19ostreambuf_iteratorIcSt11char_traitsIcEEE5_FputES3_RSt8ios_basecPKcjjjjEs)
                  00829eda    00000006     --HOLE-- [fill = 0]
                  00829ee0    00000002     dynamicMemory.obj (.const:.string:_ZZNKSt7num_putIcSt19ostreambuf_iteratorIcSt11char_traitsIcEEE5_FputES3_RSt8ios_basecPKcjjjjEs_0)

.stack     0    00829ee8    00002000     UNINITIALIZED
                  00829ee8    00000008     boot.ae66 : boot.oe66 (.stack)
                  00829ef0    00001ff8     --HOLE--

.far       0    0082bee8    00001b20     UNINITIALIZED
                  0082bee8    00001000     scheduler_pe66.oe66 (.far:taskStackSection)
                  0082cee8    00000400     scheduler_pe66.oe66 (.far)
                  0082d2e8    000001d8     rts6600_elf.lib : wiostrea.obj (.far)
                  0082d4c0    000001d4                     : iostream.obj (.far)
                  0082d694    00000192     globalDeclarations.obj (.far)
                  0082d826    00000002     blasFunctions.obj (.far)
                  0082d828    00000140     rts6600_elf.lib : defs.obj (.far)
                  0082d968    0000000c                     : locale0.obj (.far)
                  0082d974    00000004                     : wlocale.obj (.far:_ZGVNSt10moneypunctIwLb0EE2idE)
                  0082d978    00000008                     : trgdrv.obj (.far)
                  0082d980    00000004                     : wlocale.obj (.far:_ZGVNSt10moneypunctIwLb1EE2idE)
                  0082d984    00000004                     : iostream.obj (.far:_ZGVNSt7codecvtIcciE2idE)
                  0082d988    00000004                     : wlocale.obj (.far:_ZGVNSt7collateIwE2idE)
                  0082d98c    00000004                     : wlocale.obj (.far:_ZGVNSt7num_getIwSt19istreambuf_iteratorIwSt11char_traitsIwEEE2idE)
                  0082d990    00000004                     : wlocale.obj (.far:_ZGVNSt7num_putIwSt19ostreambuf_iteratorIwSt11char_traitsIwEEE2idE)
                  0082d994    00000004                     : wlocale.obj (.far:_ZGVNSt8messagesIwE2idE)
                  0082d998    00000004                     : wlocale.obj (.far:_ZGVNSt8numpunctIwE2idE)
                  0082d99c    00000004                     : wlocale.obj (.far:_ZGVNSt8time_getIwSt19istreambuf_iteratorIwSt11char_traitsIwEEE2idE)
                  0082d9a0    00000004                     : wlocale.obj (.far:_ZGVNSt9money_getIwSt19istreambuf_iteratorIwSt11char_traitsIwEEE2idE)
                  0082d9a4    00000004                     : wlocale.obj (.far:_ZGVNSt9money_putIwSt19ostreambuf_iteratorIwSt11char_traitsIwEEE2idE)
                  0082d9a8    00000004                     : wlocale.obj (.far:_ZNSt10moneypunctIwLb0EE2idE)
                  0082d9ac    00000004                     : wlocale.obj (.far:_ZNSt10moneypunctIwLb1EE2idE)
                  0082d9b0    00000004                     : iostream.obj (.far:_ZNSt13basic_filebufIcSt11char_traitsIcEE7_StinitE)
                  0082d9b4    00000004                     : wiostrea.obj (.far:_ZNSt13basic_filebufIwSt11char_traitsIwEE7_StinitE)
                  0082d9b8    00000004                     : iostream.obj (.far:_ZNSt4fposIiE4_StzE)
                  0082d9bc    00000004                     : iostream.obj (.far:_ZNSt7codecvtIcciE2idE)
                  0082d9c0    00000004                     : wlocale.obj (.far:_ZNSt7collateIwE2idE)
                  0082d9c4    00000004                     : wlocale.obj (.far:_ZNSt7num_getIwSt19istreambuf_iteratorIwSt11char_traitsIwEEE2idE)
                  0082d9c8    00000004     dynamicMemory.obj (.far:_ZNSt7num_putIcSt19ostreambuf_iteratorIcSt11char_traitsIcEEE2idE)
                  0082d9cc    00000004     rts6600_elf.lib : wlocale.obj (.far:_ZNSt7num_putIwSt19ostreambuf_iteratorIwSt11char_traitsIwEEE2idE)
                  0082d9d0    00000004                     : wlocale.obj (.far:_ZNSt8messagesIwE2idE)
                  0082d9d4    00000004     dynamicMemory.obj (.far:_ZNSt8numpunctIcE2idE)
                  0082d9d8    00000004     rts6600_elf.lib : wlocale.obj (.far:_ZNSt8numpunctIwE2idE)
                  0082d9dc    00000004                     : wlocale.obj (.far:_ZNSt8time_getIwSt19istreambuf_iteratorIwSt11char_traitsIwEEE2idE)
                  0082d9e0    00000004                     : wlocale.obj (.far:_ZNSt8time_putIwSt19ostreambuf_iteratorIwSt11char_traitsIwEEE2idE)
                  0082d9e4    00000004                     : wlocale.obj (.far:_ZNSt9money_getIwSt19istreambuf_iteratorIwSt11char_traitsIwEEE2idE)
                  0082d9e8    00000004                     : wlocale.obj (.far:_ZNSt9money_putIwSt19ostreambuf_iteratorIwSt11char_traitsIwEEE2idE)
                  0082d9ec    00000004                     : wlocale.obj (.far)
                  0082d9f0    00000002     displayFunctions.obj (.far)
                  0082d9f2    00000002     dynamicMemory.obj (.far)
                  0082d9f4    00000002     frameworkFunctions.obj (.far)
                  0082d9f6    00000002     greedyScheduling.obj (.far)
                  0082d9f8    00000002     lapackFunctions.obj (.far)
                  0082d9fa    00000002     lteSystem.obj (.far)
                  0082d9fc    00000002     memoryManagement.obj (.far)
                  0082d9fe    00000002     pipdScheduling.obj (.far)
                  0082da00    00000002     randomScheduling.obj (.far)
                  0082da02    00000002     schedulingAlgorithms.obj (.far)
                  0082da04    00000002     succprojScheduling.obj (.far)
                  0082da06    00000002     supportingFunctions.obj (.far)

.fardata   0    0082da08    00000c1c     
                  0082da08    00000200     scheduler_pe66.oe66 (.fardata)
                  0082dc08    000001e0     rts6600_elf.lib : defs.obj (.fardata:_ftable)
                  0082dde8    000000c0     scheduler_pe66.oe66 (.fardata:ti_sysbios_knl_Swi_Object__table__V)
                  0082dea8    000000c0     scheduler_pe66.oe66 (.fardata:ti_sysbios_timers_timer64_Timer_Module_State_0_device__A)
                  0082df68    000000a0     rts6600_elf.lib : lowlev.obj (.fardata:_stream)
                  0082e008    00000098     scheduler_pe66.oe66 (.fardata:ti_sysbios_knl_Task_Object__table__V)
                  0082e0a0    00000080     scheduler_pe66.oe66 (.fardata:ti_sysbios_knl_Swi_Module_State_0_readyQ__A)
                  0082e120    00000080     scheduler_pe66.oe66 (.fardata:ti_sysbios_knl_Task_Module_State_0_readyQ__A)
                  0082e1a0    00000078     rts6600_elf.lib : lowlev.obj (.fardata:_device)
                  0082e218    00000068                     : xfvalues.obj (.fardata)
                  0082e280    00000060     scheduler_pe66.oe66 (.fardata:ti_sysbios_knl_Clock_Object__table__V)
                  0082e2e0    00000050     scheduler_pe66.oe66 (.fardata:ti_sysbios_timers_timer64_Timer_Object__table__V)
                  0082e330    00000044     rts6600_elf.lib : powf.obj (.fardata:A1$1)
                  0082e374    00000004     blasFunctions.obj (.fardata:_ZNSt9_FacetptrISt5ctypeIcEE6_PsaveE)
                  0082e378    00000040     scheduler_pe66.oe66 (.fardata:ti_sysbios_gates_GateMutex_Object__table__V)
                  0082e3b8    00000040     scheduler_pe66.oe66 (.fardata:ti_sysbios_timers_timer64_Timer_Module_State_0_gctrl__A)
                  0082e3f8    00000040     scheduler_pe66.oe66 (.fardata:ti_sysbios_timers_timer64_Timer_Module_State_0_handles__A)
                  0082e438    00000040     scheduler_pe66.oe66 (.fardata:ti_sysbios_timers_timer64_Timer_Module_State_0_intFreqs__A)
                  0082e478    00000034     rts6600_elf.lib : setlocale.obj (.fardata)
                  0082e4ac    00000004                     : wiostrea.obj (.fardata:_ZNSt9_FacetptrISt5ctypeIwEE6_PsaveE)
                  0082e4b0    00000030     scheduler_pe66.oe66 (.fardata:ti_sysbios_heaps_HeapMem_Object__table__V)
                  0082e4e0    00000028     rts6600_elf.lib : ios.obj (.fardata:_ZSt6stdstr)
                  0082e508    00000024     scheduler_pe66.oe66 (.fardata:xdc_runtime_LoggerBuf_Object__table__V)
                  0082e52c    00000004     rts6600_elf.lib : iostream.obj (.fardata:_ZNSt9_FacetptrISt7codecvtIcciEE6_PsaveE)
                  0082e530    00000020                     : powf.obj (.fardata:A2$2)
                  0082e550    00000018     scheduler_pe66.oe66 (.fardata:ti_sysbios_family_c64p_Hwi_Object__table__V)
                  0082e568    00000018     scheduler_pe66.oe66 (.fardata:ti_sysbios_knl_Semaphore_Object__table__V)
                  0082e580    00000011     rts6600_elf.lib : locale0.obj (.fardata)
                  0082e591    00000003     --HOLE--
                  0082e594    00000004                     : wiostrea.obj (.fardata:_ZNSt9_FacetptrISt7codecvtIwciEE6_PsaveE)
                  0082e598    00000010     scheduler_pe66.oe66 (.fardata:xdc_runtime_System_Module_State_0_atexitHandlers__A)
                  0082e5a8    0000000c     rts6600_elf.lib : powf.obj (.fardata:Q$4)
                  0082e5b4    0000000c                     : exit.obj (.fardata)
                  0082e5c0    0000000c                     : ios.obj (.fardata)
                  0082e5cc    00000004     dynamicMemory.obj (.fardata:_ZNSt9_FacetptrISt7num_putIcSt19ostreambuf_iteratorIcSt11char_traitsIcEEEE6_PsaveE)
                  0082e5d0    0000000a     rts6600_elf.lib : ios.obj (.fardata:_ZSt8stdopens)
                  0082e5da    00000002     --HOLE--
                  0082e5dc    00000008                     : _lock.obj (.fardata)
                  0082e5e4    00000004     dynamicMemory.obj (.fardata:_ZNSt9_FacetptrISt8numpunctIcEE6_PsaveE)
                  0082e5e8    00000008     scheduler_pe66.oe66 (.fardata:ti_sysbios_hal_Hwi_Object__table__V)
                  0082e5f0    00000004     rts6600_elf.lib : powf.obj (.fardata:P$3)
                  0082e5f4    00000004                     : defs.obj (.fardata)
                  0082e5f8    00000004                     : dtor_list.obj (.fardata)
                  0082e5fc    00000004                     : errno.obj (.fardata)
                  0082e600    00000004                     : iostream.obj (.fardata)
                  0082e604    00000004                     : raisehan.obj (.fardata)
                  0082e608    00000004                     : rand.obj (.fardata)
                  0082e60c    00000004                     : vars.obj (.fardata)
                  0082e610    00000004                     : wiostrea.obj (.fardata)
                  0082e614    00000004     --HOLE--
                  0082e618    00000004     scheduler_pe66.oe66 (.fardata:ti_sysbios_gates_GateHwi_Object__table__V)
                  0082e61c    00000004     --HOLE--
                  0082e620    00000004     scheduler_pe66.oe66 (.fardata:ti_sysbios_knl_Task_Module_State_0_idleTask__A)

.cio       0    0082e628    00000120     UNINITIALIZED
                  0082e628    00000120     rts6600_elf.lib : trgmsg.obj (.cio)

.init_array 
*          0    0082e748    00000048     
                  0082e748    00000004     blasFunctions.obj (.init_array)
                  0082e74c    00000004     displayFunctions.obj (.init_array)
                  0082e750    00000004     dynamicMemory.obj (.init_array)
                  0082e754    00000004     frameworkFunctions.obj (.init_array)
                  0082e758    00000004     globalDeclarations.obj (.init_array)
                  0082e75c    00000004     greedyScheduling.obj (.init_array)
                  0082e760    00000004     lapackFunctions.obj (.init_array)
                  0082e764    00000004     lteSystem.obj (.init_array)
                  0082e768    00000004     memoryManagement.obj (.init_array)
                  0082e76c    00000004     pipdScheduling.obj (.init_array)
                  0082e770    00000004     randomScheduling.obj (.init_array)
                  0082e774    00000004     rts6600_elf.lib : iostream.obj (.init_array)
                  0082e778    00000004                     : locale0.obj (.init_array)
                  0082e77c    00000004                     : wiostrea.obj (.init_array)
                  0082e780    00000004                     : wlocale.obj (.init_array)
                  0082e784    00000004     schedulingAlgorithms.obj (.init_array)
                  0082e788    00000004     succprojScheduling.obj (.init_array)
                  0082e78c    00000004     supportingFunctions.obj (.init_array)

.bss       0    0082e790    00000010     UNINITIALIZED
                  0082e790    00000004     dynamicMemory.obj (.bss:_ZGVNSt7num_putIcSt19ostreambuf_iteratorIcSt11char_traitsIcEEE2idE)
                  0082e794    00000004     dynamicMemory.obj (.bss:_ZGVNSt8numpunctIcE2idE)
                  0082e798    00000004     globalDeclarations.obj (.bss)
                  0082e79c    00000004     rts6600_elf.lib : dtor_list.obj (.bss)

.neardata 
*          0    0082e7a0    00000008     
                  0082e7a0    00000008     lteSystem.obj (.neardata)

.rodata    0    0082e7a8    00000028     
                  0082e7a8    00000028     scheduler_pe66.oe66 (.rodata)

.switch    0    0082e7d0    00000010     
                  0082e7d0    00000010     schedulingAlgorithms.obj (.switch:_Z21performUserSchedulingP14systemConfig_tP16downlinkConfig_t)

.vecs      0    0082e800    00000200     
                  0082e800    00000200     scheduler_pe66.oe66 (.vecs)

.cinit     0    0082ea00    000006fc     
                  0082ea00    00000655     (.cinit..fardata.load) [load image, compression = rle]
                  0082f055    00000003     --HOLE-- [fill = 0]
                  0082f058    0000002e     (.cinit..rodata.load) [load image, compression = rle]
                  0082f086    00000002     --HOLE-- [fill = 0]
                  0082f088    0000000e     (.cinit..neardata.load) [load image, compression = rle]
                  0082f096    00000002     --HOLE-- [fill = 0]
                  0082f098    0000000c     (__TI_handler_table)
                  0082f0a4    00000008     (.cinit..bigMem.load) [load image, compression = zero_init]
                  0082f0ac    00000008     (.cinit..bss.load) [load image, compression = zero_init]
                  0082f0b4    00000008     (.cinit..far.load) [load image, compression = zero_init]
                  0082f0bc    00000008     (.cinit..memHeap.load) [load image, compression = zero_init]
                  0082f0c4    00000038     (__TI_cinit_table)

.memHeap   0    0c000000    000ffff0     UNINITIALIZED
                  0c000000    000ffff0     scheduler_pe66.oe66 (.memHeap)

.bigMem    0    0c0ffff0    0000c800     UNINITIALIZED
                  0c0ffff0    0000c800     globalDeclarations.obj (.bigMem)


LINKER GENERATED COPY TABLES

__TI_cinit_table @ 0082f0c4 records: 7, size/record: 8, table size: 56
	.fardata: load addr=0082ea00, load size=00000655 bytes, run addr=0082da08, run size=00000c1c bytes, compression=rle
	.rodata: load addr=0082f058, load size=0000002e bytes, run addr=0082e7a8, run size=00000028 bytes, compression=rle
	.neardata: load addr=0082f088, load size=0000000e bytes, run addr=0082e7a0, run size=00000008 bytes, compression=rle
	.bigMem: load addr=0082f0a4, load size=00000008 bytes, run addr=0c0ffff0, run size=0000c800 bytes, compression=zero_init
	.bss: load addr=0082f0ac, load size=00000008 bytes, run addr=0082e790, run size=00000010 bytes, compression=zero_init
	.far: load addr=0082f0b4, load size=00000008 bytes, run addr=0082bee8, run size=00001b20 bytes, compression=zero_init
	.memHeap: load addr=0082f0bc, load size=00000008 bytes, run addr=0c000000, run size=000ffff0 bytes, compression=zero_init


LINKER GENERATED HANDLER TABLE

__TI_handler_table @ 0082f098 records: 3, size/record: 4, table size: 12
	index: 0, handler: __TI_zero_init
	index: 1, handler: __TI_decompress_rle24
	index: 2, handler: __TI_decompress_none


GLOBAL SYMBOLS: SORTED ALPHABETICALLY BY Name 

address    name
--------   ----
00825e20   C$$EXIT
00822958   C$$IO$$
0082e478   C_locale
0081d4a0   HOSTclose
00819b20   HOSTlseek
0081ab20   HOSTopen
0081ac00   HOSTread
008141c0   HOSTrename
0081bca0   HOSTunlink
0081bd60   HOSTwrite
0082e054   TSK_idle
008248c0   _Atexit
008209e0   _Deletegloballocale
0082e218   _FDenorm
00820a40   _FDtest
0082e228   _FEps
0082e238   _FInf
0082e248   _FNan
0082e268   _FRteps
0082e258   _FSnan
0082e278   _FXbig
0082e27c   _FZero
0081ace0   _Fac_tidy
00814360   _Getctyptab
008248e0   _Getgloballocale
0081d540   _Setgloballocale
00815b00   _Z10freeMatrixP9cmatrix_t
00815bec   _Z10freeMemoryPvj
008016ec   _Z10matrixCopyP9cmatrix_tS0_15CBLAS_TRANSPOSEb
00801a24   _Z10matrixMultP9cmatrix_tS0_S0_15CBLAS_TRANSPOSES1_b
0080208c   _Z11dotProductVPSt7complexIfES1_t
00801f44   _Z11matrixMultVP9cmatrix_tPSt7complexIfES3_b
00801650   _Z12cblas_isamaxjPvj
008015c0   _Z12cblas_scnrm2jPvj
00804168   _Z12cleanupUsersP16downlinkConfig_t
00815b14   _Z12createMatrixP9cmatrix_ttt
00809c40   _Z13displayMatrixP9cmatrix_t
00809d88   _Z13displayMatrixR9cmatrix_t
00803010   _Z13getNullMatrixP9cmatrix_tS0_
0080214c   _Z13outerProductVPSt7complexIfES1_P9cmatrix_tS0_
00815b74   _Z13reshapeMatrixP9cmatrix_ttt
00815bd4   _Z14allocateMemoryj
00802620   _Z15matrixHermitianP9cmatrix_t
00802440   _Z15matrixMultSafeAP9cmatrix_tS0_
00802264   _Z15matrixMultSafeBP9cmatrix_tS0_
00802818   _Z15matrixTransposeP9cmatrix_t
00815b44   _Z16createZeroMatrixP9cmatrix_ttt
00802b94   _Z16getMatrixInverseP9cmatrix_tS0_St7complexIfE
00803a2c   _Z16initializeSystemP16downlinkConfig_tP14systemConfig_tttttt
00809fc8   _Z17displaySystemInfov
008040f0   _Z17updateUserChannelP12userConfig_t
00803ef8   _Z18clearDLConfig_UserP16downlinkConfig_tt
00803188   _Z18getQRDecompositionP9cmatrix_tS0_S0_
00803d78   _Z19updateDLConfig_UserP16downlinkConfig_tP12userConfig_t
00809ed0   _Z20displayUserStructureP12userConfig_t
00815ba4   _Z20reshapeAndCopyMatrixP9cmatrix_ttt
00824900   _Z21__default_new_handlerv
0080a050   _Z21displayScheduledUsersP14systemConfig_tP16downlinkConfig_t
00805400   _Z21performPIPDSchedulingP14systemConfig_tP16downlinkConfig_t
0081a320   _Z21performUserSchedulingP14systemConfig_tP16downlinkConfig_t
00803b38   _Z22createNewUserStructurettt
00803840   _Z22randomizeChannelMatrixP9cmatrix_tb
0080ce40   _Z23performGreedySchedulingP14systemConfig_tP16downlinkConfig_t
008103a0   _Z23performRandomSchedulingP14systemConfig_tP16downlinkConfig_t
0080b700   _Z24decomposeChannelMatricesP14systemConfig_tP16downlinkConfig_t
0080bb50   _Z28clearSchedulerConfigurationsP14systemConfig_tP16downlinkConfig_t
00805bc0   _Z28performSuccessiveProjectionsP14systemConfig_tP16downlinkConfig_t
00803624   _Z6getSVDP9cmatrix_tS0_S0_S0_c
00803fd4   _Z8freeUserP12userConfig_t
00802a80   _Z9eyeMatrixP9cmatrix_t
0082d974   _ZGVNSt10moneypunctIwLb0EE2idE
0082d980   _ZGVNSt10moneypunctIwLb1EE2idE
0082d984   _ZGVNSt7codecvtIcciE2idE
0082d988   _ZGVNSt7collateIwE2idE
0082d98c   _ZGVNSt7num_getIwSt19istreambuf_iteratorIwSt11char_traitsIwEEE2idE
0082e790   _ZGVNSt7num_putIcSt19ostreambuf_iteratorIcSt11char_traitsIcEEE2idE
0082d990   _ZGVNSt7num_putIwSt19ostreambuf_iteratorIwSt11char_traitsIwEEE2idE
0082d994   _ZGVNSt8messagesIwE2idE
0082e794   _ZGVNSt8numpunctIcE2idE
0082d998   _ZGVNSt8numpunctIwE2idE
0082d99c   _ZGVNSt8time_getIwSt19istreambuf_iteratorIwSt11char_traitsIwEEE2idE
0082d9a0   _ZGVNSt9money_getIwSt19istreambuf_iteratorIwSt11char_traitsIwEEE2idE
0082d9a4   _ZGVNSt9money_putIwSt19ostreambuf_iteratorIwSt11char_traitsIwEEE2idE
00824920   _ZN10__cxxabiv117__class_type_infoD0Ev
00824940   _ZN10__cxxabiv117__class_type_infoD1Ev
00824940   _ZN10__cxxabiv117__class_type_infoD2Ev
00824960   _ZN10__cxxabiv120__si_class_type_infoD0Ev
00824980   _ZN10__cxxabiv120__si_class_type_infoD1Ev
00824980   _ZN10__cxxabiv120__si_class_type_infoD2Ev
008249a0   _ZN10__cxxabiv121__vmi_class_type_infoD0Ev
008249c0   _ZN10__cxxabiv121__vmi_class_type_infoD1Ev
008249c0   _ZN10__cxxabiv121__vmi_class_type_infoD2Ev
00800280   _ZN13DynamicMemory10clearListsEv
008006b0   _ZN13DynamicMemory10getMatrixREP9cmatrix_ttt
00800528   _ZN13DynamicMemory10getMatrixZEtt
008013e4   _ZN13DynamicMemory10resetQInfoEv
00801414   _ZN13DynamicMemory12displayQInfoEv
00800000   _ZN13DynamicMemory12getEmptyListEj
008008d4   _ZN13DynamicMemory12updateMatrixEP9cmatrix_ttt
00800b38   _ZN13DynamicMemory13reshapeMatrixEP9cmatrix_ttt
008009b8   _ZN13DynamicMemory13updateMatrixZEP9cmatrix_ttt
0080112c   _ZN13DynamicMemory15displayDMStatusEv
008003e0   _ZN13DynamicMemory16freeMatrixMemoryEP9cmatrix_t
008013c4   _ZN13DynamicMemory16freeMemoryBufferEPvj
00801398   _ZN13DynamicMemory18obtainMemoryBufferEj
00800c68   _ZN13DynamicMemory20reshapeMatrixAndCopyEP9cmatrix_ttt
008011e4   _ZN13DynamicMemory23displayDMCompleteStatusEv
00800440   _ZN13DynamicMemory9getMatrixEtt
008002d4   _ZN13DynamicMemoryC1Ev
008002d4   _ZN13DynamicMemoryC2Ev
008003ac   _ZN13DynamicMemoryD1Ev
008003ac   _ZN13DynamicMemoryD2Ev
008249e0   _ZNKSaIcE8max_sizeEv
00824a00   _ZNKSo6sentrycvbEv
00824a20   _ZNKSs4sizeEv
00824a40   _ZNKSs5c_strEv
00822c00   _ZNKSs6_MyptrEv
00822c40   _ZNKSs8max_sizeEv
00824a60   _ZNKSt11logic_error4whatEv
00824a80   _ZNKSt11logic_error8_DoraiseEv
00816400   _ZNKSt12_String_base5_XlenEv
00813900   _ZNKSt12_String_base5_XranEv
00824aa0   _ZNKSt12codecvt_base11do_encodingEv
00824ac0   _ZNKSt12codecvt_base13do_max_lengthEv
00824ae0   _ZNKSt12codecvt_base16do_always_noconvEv
00824b00   _ZNKSt12length_error8_DoraiseEv
00824b20   _ZNKSt12out_of_range8_DoraiseEv
00824b40   _ZNKSt13_Complex_baseIfSt16_C_float_complexE4imagEv
00824b60   _ZNKSt13_Complex_baseIfSt16_C_float_complexE4realEv
00824b80   _ZNKSt13runtime_error4whatEv
00824ba0   _ZNKSt13runtime_error8_DoraiseEv
00822c80   _ZNKSt15basic_streambufIcSt11char_traitsIcEE8_PnavailEv
00824bc0   _ZNKSt19ostreambuf_iteratorIcSt11char_traitsIcEE6failedEv
00820aa0   _ZNKSt5ctypeIcE10do_tolowerEPcPKc
00822cc0   _ZNKSt5ctypeIcE10do_tolowerEc
00820b00   _ZNKSt5ctypeIcE10do_toupperEPcPKc
00822d00   _ZNKSt5ctypeIcE10do_toupperEc
00822d40   _ZNKSt5ctypeIcE5widenEc
00822d80   _ZNKSt5ctypeIcE8do_widenEPKcS2_Pc
00824be0   _ZNKSt5ctypeIcE8do_widenEc
00822dc0   _ZNKSt5ctypeIcE9do_narrowEPKcS2_cPc
00824c00   _ZNKSt5ctypeIcE9do_narrowEcc
0081ec60   _ZNKSt5ctypeIwE10do_scan_isEsPKwS2_
0081bee0   _ZNKSt5ctypeIwE10do_tolowerEPwPKw
0081ece0   _ZNKSt5ctypeIwE10do_tolowerEw
00815200   _ZNKSt5ctypeIwE10do_toupperEPwPKw
00820b60   _ZNKSt5ctypeIwE10do_toupperEw
0081ed60   _ZNKSt5ctypeIwE11do_scan_notEsPKwS2_
00824c20   _ZNKSt5ctypeIwE2isEsw
008186e0   _ZNKSt5ctypeIwE5do_isEPKwS2_Ps
00822e00   _ZNKSt5ctypeIwE5do_isEsw
00824c40   _ZNKSt5ctypeIwE5widenEc
00824c60   _ZNKSt5ctypeIwE6narrowEwc
0081d5e0   _ZNKSt5ctypeIwE8do_widenEPKcS2_Pw
00822e40   _ZNKSt5ctypeIwE8do_widenEc
00818800   _ZNKSt5ctypeIwE9do_narrowEPKwS2_cPc
00822e80   _ZNKSt5ctypeIwE9do_narrowEwc
0081ede0   _ZNKSt6locale9_GetfacetEj
00824c80   _ZNKSt7codecvtIcciE10do_unshiftERiPcS2_RS2_
00824ca0   _ZNKSt7codecvtIcciE5do_inERiPKcS3_RS3_PcS5_RS5_
00824cc0   _ZNKSt7codecvtIcciE6do_outERiPKcS3_RS3_PcS5_RS5_
00824ce0   _ZNKSt7codecvtIcciE9do_lengthERKiPKcS4_j
0081bfa0   _ZNKSt7codecvtIwciE10do_unshiftERiPcS2_RS2_
00824d00   _ZNKSt7codecvtIwciE11do_encodingEv
00824d20   _ZNKSt7codecvtIwciE13do_max_lengthEv
00824d40   _ZNKSt7codecvtIwciE16do_always_noconvEv
008146a0   _ZNKSt7codecvtIwciE5do_inERiPKcS3_RS3_PwS5_RS5_
00815380   _ZNKSt7codecvtIwciE6do_outERiPKwS3_RS3_PcS5_RS5_
00818920   _ZNKSt7codecvtIwciE9do_lengthERKiPKcS4_j
0081c060   _ZNKSt7num_putIcSt19ostreambuf_iteratorIcSt11char_traitsIcEEE11_PutgroupedES3_PKcjc
00822ec0   _ZNKSt7num_putIcSt19ostreambuf_iteratorIcSt11char_traitsIcEEE3putES3_RSt8ios_basecb
00822f00   _ZNKSt7num_putIcSt19ostreambuf_iteratorIcSt11char_traitsIcEEE3putES3_RSt8ios_basecm
00820bc0   _ZNKSt7num_putIcSt19ostreambuf_iteratorIcSt11char_traitsIcEEE4_PutES3_PKcj
00820c20   _ZNKSt7num_putIcSt19ostreambuf_iteratorIcSt11char_traitsIcEEE4_RepES3_cj
00819c20   _ZNKSt7num_putIcSt19ostreambuf_iteratorIcSt11char_traitsIcEEE5_FfmtEPccNSt5_IosbIiE9_FmtflagsE
0080a1e0   _ZNKSt7num_putIcSt19ostreambuf_iteratorIcSt11char_traitsIcEEE5_FputES3_RSt8ios_basecPKcjjjj
00818a40   _ZNKSt7num_putIcSt19ostreambuf_iteratorIcSt11char_traitsIcEEE5_IfmtEPcPKcNSt5_IosbIiE9_FmtflagsE
0080e980   _ZNKSt7num_putIcSt19ostreambuf_iteratorIcSt11char_traitsIcEEE5_IputES3_RSt8ios_basecPcj
0081ee60   _ZNKSt7num_putIcSt19ostreambuf_iteratorIcSt11char_traitsIcEEE5_PutcES3_PKcj
0081d680   _ZNKSt7num_putIcSt19ostreambuf_iteratorIcSt11char_traitsIcEEE6do_putES3_RSt8ios_basecPKv
00813720   _ZNKSt7num_putIcSt19ostreambuf_iteratorIcSt11char_traitsIcEEE6do_putES3_RSt8ios_basecb
0080ec40   _ZNKSt7num_putIcSt19ostreambuf_iteratorIcSt11char_traitsIcEEE6do_putES3_RSt8ios_basecd
0080ef00   _ZNKSt7num_putIcSt19ostreambuf_iteratorIcSt11char_traitsIcEEE6do_putES3_RSt8ios_basece
0081eee0   _ZNKSt7num_putIcSt19ostreambuf_iteratorIcSt11char_traitsIcEEE6do_putES3_RSt8ios_basecl
0081ef60   _ZNKSt7num_putIcSt19ostreambuf_iteratorIcSt11char_traitsIcEEE6do_putES3_RSt8ios_basecm
0081efe0   _ZNKSt7num_putIcSt19ostreambuf_iteratorIcSt11char_traitsIcEEE6do_putES3_RSt8ios_basecx
0081f060   _ZNKSt7num_putIcSt19ostreambuf_iteratorIcSt11char_traitsIcEEE6do_putES3_RSt8ios_basecy
00822f40   _ZNKSt8_Locinfo7_GetcvtEv
00824d60   _ZNKSt8_Locinfo8_GettrueEv
00822f80   _ZNKSt8_Locinfo9_GetctypeEv
00824d80   _ZNKSt8_Locinfo9_GetfalseEv
00824da0   _ZNKSt8_Locinfo9_GetlconvEv
00824dc0   _ZNKSt8ios_base4failEv
00824de0   _ZNKSt8ios_base4goodEv
00824e00   _ZNKSt8ios_base5flagsEv
00824e20   _ZNKSt8ios_base5widthEv
00824e40   _ZNKSt8ios_base6getlocEv
00824e60   _ZNKSt8ios_base7failure8_DoraiseEv
00824e80   _ZNKSt8ios_base7rdstateEv
00824ea0   _ZNKSt8ios_base9precisionEv
00824ec0   _ZNKSt8numpunctIcE11do_groupingEv
00824ee0   _ZNKSt8numpunctIcE11do_truenameEv
00824f00   _ZNKSt8numpunctIcE12do_falsenameEv
00824f20   _ZNKSt8numpunctIcE13decimal_pointEv
00824f40   _ZNKSt8numpunctIcE13thousands_sepEv
00824f60   _ZNKSt8numpunctIcE16do_decimal_pointEv
00824f80   _ZNKSt8numpunctIcE16do_thousands_sepEv
00822fc0   _ZNKSt8numpunctIcE8groupingEv
00823000   _ZNKSt8numpunctIcE8truenameEv
00823040   _ZNKSt8numpunctIcE9falsenameEv
00824fa0   _ZNKSt9basic_iosIcSt11char_traitsIcEE3tieEv
00824fc0   _ZNKSt9basic_iosIcSt11char_traitsIcEE4fillEv
00824fe0   _ZNKSt9basic_iosIcSt11char_traitsIcEE5rdbufEv
00820c80   _ZNKSt9basic_iosIcSt11char_traitsIcEE5widenEc
00825000   _ZNKSt9exception4whatEv
0081f0e0   _ZNKSt9exception6_RaiseEv
00825020   _ZNKSt9exception8_DoraiseEv
00825040   _ZNSaIcE10deallocateEPcj
00825060   _ZNSaIcE8allocateEj
00825080   _ZNSaIcEC1ERKS_
008250a0   _ZNSaIcEC1Ev
00820ce0   _ZNSiD0Ev
00823080   _ZNSiD1Ev
0081d720   _ZNSo12_Sentry_baseC1ERSo
008250c0   _ZNSo12_Sentry_baseC2ERSo
0081f160   _ZNSo12_Sentry_baseD1Ev
008250e0   _ZNSo12_Sentry_baseD2Ev
0081c120   _ZNSo3putEc
008230c0   _ZNSo5_OsfxEv
0081f1e0   _ZNSo5flushEv
0081d7c0   _ZNSo6sentryC1ERSo
00825100   _ZNSo6sentryD1Ev
00820d40   _ZNSoD0Ev
00823100   _ZNSoD1Ev
00825120   _ZNSolsEPFRSoS_E
00817060   _ZNSolsEb
008171a0   _ZNSolsEj
00823140   _ZNSs4_EosEj
00828bec   _ZNSs4nposE
0081adc0   _ZNSs5_CopyEjj
0081c1e0   _ZNSs5_GrowEjb
0081f260   _ZNSs5_TidyEbj
0081aea0   _ZNSs5eraseEjj
00823180   _ZNSs6_MyptrEv
0081c2a0   _ZNSs6appendEPKcj
00819d20   _ZNSs6appendERKSsjj
0081f2e0   _ZNSs6appendEjc
008231c0   _ZNSs6assignEPKc
0081f360   _ZNSs6assignEPKcj
00825140   _ZNSs6assignERKSs
0081af80   _ZNSs6assignERKSsjj
00819e20   _ZNSs6insertEjjc
00820da0   _ZNSs7_InsideEPKc
00820e00   _ZNSs9_ChassignEjjc
00823200   _ZNSsC1EPKc
00823240   _ZNSsC1Ev
00825160   _ZNSsD1Ev
00825180   _ZNSsixEj
00823280   _ZNSt10ctype_baseC1Ej
008251a0   _ZNSt10ctype_baseC2Ej
008251c0   _ZNSt10ctype_baseD0Ev
008251e0   _ZNSt10ctype_baseD1Ev
00825200   _ZNSt10ctype_baseD2Ev
0082d9a8   _ZNSt10moneypunctIwLb0EE2idE
0082d9ac   _ZNSt10moneypunctIwLb1EE2idE
00825220   _ZNSt11_String_valIcSaIcEEC1ES0_
00825240   _ZNSt11_String_valIcSaIcEEC2ES0_
00825260   _ZNSt11char_traitsIcE11eq_int_typeERKiS2_
00825280   _ZNSt11char_traitsIcE11to_int_typeERKc
008252a0   _ZNSt11char_traitsIcE3eofEv
008252c0   _ZNSt11char_traitsIcE4copyEPcPKcj
008252e0   _ZNSt11char_traitsIcE4moveEPcPKcj
008232c0   _ZNSt11char_traitsIcE6assignEPcjc
00825300   _ZNSt11char_traitsIcE6assignERcRKc
00825320   _ZNSt11char_traitsIcE6lengthEPKc
0081f3e0   _ZNSt11logic_errorC2ERKSs
0081f460   _ZNSt11logic_errorD0Ev
0081d860   _ZNSt11logic_errorD1Ev
00825340   _ZNSt12codecvt_baseD0Ev
00825360   _ZNSt12codecvt_baseD1Ev
0081f4e0   _ZNSt12length_errorD0Ev
0081d900   _ZNSt12length_errorD1Ev
0081d9a0   _ZNSt12out_of_rangeC1ERKSs
0081f560   _ZNSt12out_of_rangeD0Ev
0081da40   _ZNSt12out_of_rangeD1Ev
00820e60   _ZNSt13_Complex_baseIfSt16_C_float_complexE4_AddIfEEvRKSt7complexIT_E
00810620   _ZNSt13_Complex_baseIfSt16_C_float_complexE4_DivIfEEvRKSt7complexIT_E
0081dae0   _ZNSt13_Complex_baseIfSt16_C_float_complexE4_MulIfEEvRKSt7complexIT_E
00820ec0   _ZNSt13_Complex_baseIfSt16_C_float_complexE4_SubIfEEvRKSt7complexIT_E
00825380   _ZNSt13_Complex_baseIfSt16_C_float_complexE4imagERKf
008253a0   _ZNSt13_Complex_baseIfSt16_C_float_complexE4realERKf
00823300   _ZNSt13_Complex_baseIfSt16_C_float_complexEC1ERKfS3_
008253c0   _ZNSt13_Complex_baseIfSt16_C_float_complexEC2ERKfS3_
0081f5e0   _ZNSt13basic_filebufIcSt11char_traitsIcEE4syncEv
0081c360   _ZNSt13basic_filebufIcSt11char_traitsIcEE5_InitEPSt4FILENS2_7_InitflE
008116c0   _ZNSt13basic_filebufIcSt11char_traitsIcEE5imbueERKSt6locale
00808500   _ZNSt13basic_filebufIcSt11char_traitsIcEE5uflowEv
008172e0   _ZNSt13basic_filebufIcSt11char_traitsIcEE6setbufEPci
0082d9b0   _ZNSt13basic_filebufIcSt11char_traitsIcEE7_StinitE
00814840   _ZNSt13basic_filebufIcSt11char_traitsIcEE7seekoffElNSt5_IosbIiE8_SeekdirENS4_9_OpenmodeE
00815500   _ZNSt13basic_filebufIcSt11char_traitsIcEE7seekposESt4fposIiENSt5_IosbIiE9_OpenmodeE
008078a0   _ZNSt13basic_filebufIcSt11char_traitsIcEE8overflowEi
0080a760   _ZNSt13basic_filebufIcSt11char_traitsIcEE9_EndwriteEv
00816560   _ZNSt13basic_filebufIcSt11char_traitsIcEE9pbackfailEi
0081db80   _ZNSt13basic_filebufIcSt11char_traitsIcEE9underflowEv
008166c0   _ZNSt13basic_filebufIcSt11char_traitsIcEED0Ev
00817420   _ZNSt13basic_filebufIcSt11char_traitsIcEED1Ev
0081f660   _ZNSt13basic_filebufIwSt11char_traitsIwEE4syncEv
00811900   _ZNSt13basic_filebufIwSt11char_traitsIwEE5imbueERKSt6locale
00807ee0   _ZNSt13basic_filebufIwSt11char_traitsIwEE5uflowEv
00818b60   _ZNSt13basic_filebufIwSt11char_traitsIwEE6setbufEPwi
0082d9b4   _ZNSt13basic_filebufIwSt11char_traitsIwEE7_StinitE
008149e0   _ZNSt13basic_filebufIwSt11char_traitsIwEE7seekoffElNSt5_IosbIiE8_SeekdirENS4_9_OpenmodeE
00815680   _ZNSt13basic_filebufIwSt11char_traitsIwEE7seekposESt4fposIiENSt5_IosbIiE9_OpenmodeE
00807220   _ZNSt13basic_filebufIwSt11char_traitsIwEE8overflowEj
0080aca0   _ZNSt13basic_filebufIwSt11char_traitsIwEE9_EndwriteEv
00816820   _ZNSt13basic_filebufIwSt11char_traitsIwEE9pbackfailEj
0081dc20   _ZNSt13basic_filebufIwSt11char_traitsIwEE9underflowEv
00816980   _ZNSt13basic_filebufIwSt11char_traitsIwEED0Ev
00817560   _ZNSt13basic_filebufIwSt11char_traitsIwEED1Ev
00820f20   _ZNSt13basic_istreamIwSt11char_traitsIwEED0Ev
00823340   _ZNSt13basic_istreamIwSt11char_traitsIwEED1Ev
00820f80   _ZNSt13basic_ostreamIwSt11char_traitsIwEED0Ev
00823380   _ZNSt13basic_ostreamIwSt11char_traitsIwEED1Ev
0081f6e0   _ZNSt13runtime_errorD0Ev
0081dcc0   _ZNSt13runtime_errorD1Ev
008253e0   _ZNSt15basic_streambufIcSt11char_traitsIcEE4syncEv
00820fe0   _ZNSt15basic_streambufIcSt11char_traitsIcEE5_InitEv
00825400   _ZNSt15basic_streambufIcSt11char_traitsIcEE5_LockEv
00825420   _ZNSt15basic_streambufIcSt11char_traitsIcEE5imbueERKSt6locale
0081f760   _ZNSt15basic_streambufIcSt11char_traitsIcEE5sputcEc
008233c0   _ZNSt15basic_streambufIcSt11char_traitsIcEE5sputnEPKci
00821040   _ZNSt15basic_streambufIcSt11char_traitsIcEE5uflowEv
00825440   _ZNSt15basic_streambufIcSt11char_traitsIcEE6_PnincEv
00825460   _ZNSt15basic_streambufIcSt11char_traitsIcEE6setbufEPci
00819f20   _ZNSt15basic_streambufIcSt11char_traitsIcEE6xsgetnEPci
0081a020   _ZNSt15basic_streambufIcSt11char_traitsIcEE6xsputnEPKci
00825480   _ZNSt15basic_streambufIcSt11char_traitsIcEE7_UnlockEv
008254a0   _ZNSt15basic_streambufIcSt11char_traitsIcEE7pubsyncEv
008210a0   _ZNSt15basic_streambufIcSt11char_traitsIcEE7seekoffElNSt5_IosbIiE8_SeekdirENS4_9_OpenmodeE
00821100   _ZNSt15basic_streambufIcSt11char_traitsIcEE7seekposESt4fposIiENSt5_IosbIiE9_OpenmodeE
008254c0   _ZNSt15basic_streambufIcSt11char_traitsIcEE8overflowEi
008254e0   _ZNSt15basic_streambufIcSt11char_traitsIcEE9pbackfailEi
00825500   _ZNSt15basic_streambufIcSt11char_traitsIcEE9showmanycEv
00825520   _ZNSt15basic_streambufIcSt11char_traitsIcEE9underflowEv
00821160   _ZNSt15basic_streambufIcSt11char_traitsIcEED0Ev
008211c0   _ZNSt15basic_streambufIcSt11char_traitsIcEED1Ev
00825540   _ZNSt15basic_streambufIwSt11char_traitsIwEE4syncEv
00821220   _ZNSt15basic_streambufIwSt11char_traitsIwEE5_InitEv
00825560   _ZNSt15basic_streambufIwSt11char_traitsIwEE5_LockEv
00825580   _ZNSt15basic_streambufIwSt11char_traitsIwEE5imbueERKSt6locale
00821280   _ZNSt15basic_streambufIwSt11char_traitsIwEE5uflowEv
008255a0   _ZNSt15basic_streambufIwSt11char_traitsIwEE6setbufEPwi
00818c80   _ZNSt15basic_streambufIwSt11char_traitsIwEE6xsgetnEPwi
0081a120   _ZNSt15basic_streambufIwSt11char_traitsIwEE6xsputnEPKwi
008255c0   _ZNSt15basic_streambufIwSt11char_traitsIwEE7_UnlockEv
008212e0   _ZNSt15basic_streambufIwSt11char_traitsIwEE7seekoffElNSt5_IosbIiE8_SeekdirENS4_9_OpenmodeE
00821340   _ZNSt15basic_streambufIwSt11char_traitsIwEE7seekposESt4fposIiENSt5_IosbIiE9_OpenmodeE
008255e0   _ZNSt15basic_streambufIwSt11char_traitsIwEE8overflowEj
00825600   _ZNSt15basic_streambufIwSt11char_traitsIwEE9pbackfailEj
00825620   _ZNSt15basic_streambufIwSt11char_traitsIwEE9showmanycEv
00825640   _ZNSt15basic_streambufIwSt11char_traitsIwEE9underflowEv
008213a0   _ZNSt15basic_streambufIwSt11char_traitsIwEED0Ev
00821400   _ZNSt15basic_streambufIwSt11char_traitsIwEED1Ev
00823400   _ZNSt19ostreambuf_iteratorIcSt11char_traitsIcEEC1EPSt15basic_streambufIcS1_E
0081f7e0   _ZNSt19ostreambuf_iteratorIcSt11char_traitsIcEEaSEc
00825660   _ZNSt19ostreambuf_iteratorIcSt11char_traitsIcEEdeEv
00825680   _ZNSt19ostreambuf_iteratorIcSt11char_traitsIcEEppEv
0082d9b8   _ZNSt4fposIiE4_StzE
0082d96c   _ZNSt5ctypeIcE2idE
008256a0   _ZNSt5ctypeIcE5_InitERKSt8_Locinfo
00823440   _ZNSt5ctypeIcE5_TidyEv
00821460   _ZNSt5ctypeIcE7_GetcatEPPKNSt6locale5facetE
0081dd60   _ZNSt5ctypeIcEC1EPKsbj
008256c0   _ZNSt5ctypeIcED0Ev
00823480   _ZNSt5ctypeIcED1Ev
0082d9ec   _ZNSt5ctypeIwE2idE
008214c0   _ZNSt5ctypeIwED0Ev
00821520   _ZNSt5ctypeIwED1Ev
0082e610   _ZNSt6_Winit9_Init_cntE
00804240   _ZNSt6_WinitC1Ev
00804240   _ZNSt6_WinitC2Ev
00810880   _ZNSt6_WinitD1Ev
00810880   _ZNSt6_WinitD2Ev
0082e580   _ZNSt6locale2id7_Id_cntE
008256e0   _ZNSt6locale2idC1Ej
00821580   _ZNSt6locale2idcvjEv
008176a0   _ZNSt6locale5_InitEv
008215e0   _ZNSt6locale5facet7_DecrefEv
008234c0   _ZNSt6locale5facet7_IncrefEv
0081f860   _ZNSt6locale5facet9_RegisterEv
00823500   _ZNSt6locale5facetC1Ej
00825700   _ZNSt6locale5facetC2Ej
00825720   _ZNSt6locale5facetD0Ev
00825740   _ZNSt6locale5facetD1Ev
00825760   _ZNSt6locale5facetD2Ev
0082e584   _ZNSt6locale7_Locimp8_ClocptrE
0081c420   _ZNSt6locale7_LocimpC1Eb
0081c420   _ZNSt6locale7_LocimpC2Eb
00821640   _ZNSt6locale7_LocimpD0Ev
008177e0   _ZNSt6locale7_LocimpD1Ev
008177e0   _ZNSt6locale7_LocimpD2Ev
00823540   _ZNSt6localeC1ERKS_
008216a0   _ZNSt6localeC1Ev
008216a0   _ZNSt6localeC2Ev
00823580   _ZNSt6localeD1Ev
00825780   _ZNSt7_LockitC1Ei
008257a0   _ZNSt7_LockitD1Ev
0082d9bc   _ZNSt7codecvtIcciE2idE
008257c0   _ZNSt7codecvtIcciED0Ev
008257e0   _ZNSt7codecvtIcciED1Ev
0082d968   _ZNSt7codecvtIwciE2idE
00825800   _ZNSt7codecvtIwciED0Ev
00825820   _ZNSt7codecvtIwciED1Ev
0082d9c0   _ZNSt7collateIwE2idE
00825840   _ZNSt7complexIfEC1ERKS0_
00825860   _ZNSt7complexIfEC1ERKfS2_
008235c0   _ZNSt7complexIfEaSERKf
00821700   _ZNSt7complexIfEdVERKf
00825880   _ZNSt7complexIfEdVIfEERS0_RKS_IT_E
008258a0   _ZNSt7complexIfEmIIfEERS0_RKS_IT_E
008258c0   _ZNSt7complexIfEmLIfEERS0_RKS_IT_E
008258e0   _ZNSt7complexIfEpLIfEERS0_RKS_IT_E
0082d9c4   _ZNSt7num_getIwSt19istreambuf_iteratorIwSt11char_traitsIwEEE2idE
0082d9c8   _ZNSt7num_putIcSt19ostreambuf_iteratorIcSt11char_traitsIcEEE2idE
00825900   _ZNSt7num_putIcSt19ostreambuf_iteratorIcSt11char_traitsIcEEE5_InitERKSt8_Locinfo
00823600   _ZNSt7num_putIcSt19ostreambuf_iteratorIcSt11char_traitsIcEEE7_GetcatEPPKNSt6locale5facetE
00821760   _ZNSt7num_putIcSt19ostreambuf_iteratorIcSt11char_traitsIcEEEC1Ej
00825920   _ZNSt7num_putIcSt19ostreambuf_iteratorIcSt11char_traitsIcEEED0Ev
00825940   _ZNSt7num_putIcSt19ostreambuf_iteratorIcSt11char_traitsIcEEED1Ev
0082d9cc   _ZNSt7num_putIwSt19ostreambuf_iteratorIwSt11char_traitsIwEEE2idE
00825960   _ZNSt8_CtraitsIfE4sqrtEf
00825980   _ZNSt8_CtraitsIfE5_InfvEf
008259a0   _ZNSt8_CtraitsIfE5_NanvEf
008259c0   _ZNSt8_CtraitsIfE5ldexpEfi
008259e0   _ZNSt8_CtraitsIfE6_IsinfEf
00825a00   _ZNSt8_CtraitsIfE6_IsnanEf
00817920   _ZNSt8_LocinfoC1EPKc
00817920   _ZNSt8_LocinfoC2EPKc
00818da0   _ZNSt8_LocinfoD1Ev
00818da0   _ZNSt8_LocinfoD2Ev
0082e600   _ZNSt8ios_base4Init9_Init_cntE
00806ac0   _ZNSt8ios_base4InitC1Ev
00806ac0   _ZNSt8ios_base4InitC2Ev
00813ac0   _ZNSt8ios_base4InitD1Ev
00813ac0   _ZNSt8ios_base4InitD2Ev
0081de00   _ZNSt8ios_base5_InitEv
0082e5c4   _ZNSt8ios_base5_SyncE
0081dea0   _ZNSt8ios_base5_TidyEv
0080bc20   _ZNSt8ios_base5clearENSt5_IosbIiE8_IostateEb
00823640   _ZNSt8ios_base5widthEi
0082e5c0   _ZNSt8ios_base6_IndexE
0081f8e0   _ZNSt8ios_base7_AddstdEv
0081f960   _ZNSt8ios_base7failureD0Ev
0081df40   _ZNSt8ios_base7failureD1Ev
0081f9e0   _ZNSt8ios_base8_CallfnsENS_5eventE
008217c0   _ZNSt8ios_baseD0Ev
0081c4e0   _ZNSt8ios_baseD1Ev
0081c4e0   _ZNSt8ios_baseD2Ev
0082d9d0   _ZNSt8messagesIwE2idE
0082d9d4   _ZNSt8numpunctIcE2idE
00817a60   _ZNSt8numpunctIcE5_InitERKSt8_Locinfo
00823680   _ZNSt8numpunctIcE5_TidyEv
008236c0   _ZNSt8numpunctIcE7_GetcatEPPKNSt6locale5facetE
00821820   _ZNSt8numpunctIcEC1Ej
00825a20   _ZNSt8numpunctIcED0Ev
00823700   _ZNSt8numpunctIcED1Ev
0082d9d8   _ZNSt8numpunctIwE2idE
0082d9dc   _ZNSt8time_getIwSt19istreambuf_iteratorIwSt11char_traitsIwEEE2idE
0082d9e0   _ZNSt8time_putIwSt19ostreambuf_iteratorIwSt11char_traitsIwEEE2idE
0082e374   _ZNSt9_FacetptrISt5ctypeIcEE6_PsaveE
0082e4ac   _ZNSt9_FacetptrISt5ctypeIwEE6_PsaveE
0082e52c   _ZNSt9_FacetptrISt7codecvtIcciEE6_PsaveE
0082e594   _ZNSt9_FacetptrISt7codecvtIwciEE6_PsaveE
0082e5cc   _ZNSt9_FacetptrISt7num_putIcSt19ostreambuf_iteratorIcSt11char_traitsIcEEEE6_PsaveE
0082e5e4   _ZNSt9_FacetptrISt8numpunctIcEE6_PsaveE
00816ae0   _ZNSt9basic_iosIcSt11char_traitsIcEE4initEPSt15basic_streambufIcS1_Eb
00823740   _ZNSt9basic_iosIcSt11char_traitsIcEE5clearENSt5_IosbIiE8_IostateEb
00823780   _ZNSt9basic_iosIcSt11char_traitsIcEE8setstateENSt5_IosbIiE8_IostateEb
00821880   _ZNSt9basic_iosIcSt11char_traitsIcEED0Ev
00825a40   _ZNSt9basic_iosIcSt11char_traitsIcEED1Ev
00816c40   _ZNSt9basic_iosIwSt11char_traitsIwEE4initEPSt15basic_streambufIwS1_Eb
008218e0   _ZNSt9basic_iosIwSt11char_traitsIwEED0Ev
00825a60   _ZNSt9basic_iosIwSt11char_traitsIwEED1Ev
00825a80   _ZNSt9exceptionD0Ev
00825aa0   _ZNSt9exceptionD1Ev
0082d9e4   _ZNSt9money_getIwSt19istreambuf_iteratorIwSt11char_traitsIwEEE2idE
0082d9e8   _ZNSt9money_putIwSt19ostreambuf_iteratorIwSt11char_traitsIwEEE2idE
00825ac0   _ZSt10_MaklocchrIcET_cPS0_RKSt7_Cvtvec
0081fa60   _ZSt10_MaklocstrIcEPT_PKcS1_RKSt7_Cvtvec
0081fae0   _ZSt14_Debug_messagePKcS0_
0082e604   _ZSt14_Raise_handler
008237c0   _ZSt3absIfET_RKSt7complexIS0_E
00823800   _ZSt3absf
0082d560   _ZSt3cin
00823840   _ZSt3powff
0082e5c8   _ZSt4_Fpz
0082d624   _ZSt4cerr
0082d65c   _ZSt4clog
00821940   _ZSt4conjIfESt7complexIT_ERKS2_
0082d59c   _ZSt4cout
00823880   _ZSt4endlIcSt11char_traitsIcEERSt13basic_ostreamIT_T0_ES6_
00825b00   _ZSt4imagIfET_RKSt7complexIS0_E
00825b20   _ZSt4realIfET_RKSt7complexIS0_E
00825b40   _ZSt4sqrtf
0082d3dc   _ZSt4wcin
0080f9a0   _ZSt5_FabsIfET_RKSt7complexIS0_EPi
0082d450   _ZSt5wcerr
0082d488   _ZSt5wclog
0082d418   _ZSt5wcout
008238c0   _ZSt6_ThrowRKSt9exception
008293e4   _ZSt7_BADOFF
00825b60   _ZSt8_ToloweriPKSt9_Ctypevec
00825b80   _ZSt8_ToupperiPKSt9_Ctypevec
00825ba0   _ZSt9_AllocateIcEPT_jS1_
0081c5a0   _ZSt9use_facetISt5ctypeIcEERKT_RKSt6locale
00815800   _ZSt9use_facetISt5ctypeIwEERKT_RKSt6locale
0081c660   _ZSt9use_facetISt7num_putIcSt19ostreambuf_iteratorIcSt11char_traitsIcEEEERKT_RKSt6locale
0081c720   _ZSt9use_facetISt8numpunctIcEERKT_RKSt6locale
00825bc0   _ZStanNSt5_IosbIiE9_FmtflagsES1_
00823900   _ZStdvIfESt7complexIT_ERKS1_RKS2_
008219a0   _ZStdvIfESt7complexIT_ERKS2_RKS1_
00823940   _ZStdvIfESt7complexIT_ERKS2_S4_
0080fc20   _ZStlsISt11char_traitsIcEERSt13basic_ostreamIcT_ES5_PKc
00823980   _ZStmiIfESt7complexIT_ERKS2_S4_
008239c0   _ZStmlIfESt7complexIT_ERKS1_RKS2_
00823a00   _ZStmlIfESt7complexIT_ERKS2_S4_
00823a40   _ZStoRRNSt5_IosbIiE8_IostateES1_
00823a80   _ZStplIfESt7complexIT_ERKS2_S4_
00829a24   _ZTIN10__cxxabiv117__class_type_infoE
00829b94   _ZTIN10__cxxabiv120__si_class_type_infoE
00829ba0   _ZTIN10__cxxabiv121__vmi_class_type_infoE
00829cb0   _ZTINSt6locale5facetE
00829bac   _ZTINSt6locale7_LocimpE
00829bb8   _ZTINSt8ios_base7failureE
00829804   _ZTISi
0082981c   _ZTISo
00829bc4   _ZTISt10ctype_base
00829bd0   _ZTISt11logic_error
00829bdc   _ZTISt12codecvt_base
00829be8   _ZTISt12length_error
00829bf4   _ZTISt12out_of_range
00829c00   _ZTISt13basic_filebufIcSt11char_traitsIcEE
00829c0c   _ZTISt13basic_filebufIwSt11char_traitsIwEE
00829834   _ZTISt13basic_istreamIwSt11char_traitsIwEE
0082984c   _ZTISt13basic_ostreamIwSt11char_traitsIwEE
00829c18   _ZTISt13runtime_error
00829cb8   _ZTISt15basic_streambufIcSt11char_traitsIcEE
00829cc0   _ZTISt15basic_streambufIwSt11char_traitsIwEE
00829cc8   _ZTISt5_IosbIiE
00829c24   _ZTISt5ctypeIcE
00829c30   _ZTISt5ctypeIwE
00829c3c   _ZTISt7codecvtIcciE
00829c48   _ZTISt7codecvtIwciE
00829c54   _ZTISt7num_putIcSt19ostreambuf_iteratorIcSt11char_traitsIcEEE
00829c60   _ZTISt8ios_base
00829c6c   _ZTISt8numpunctIcE
00829c78   _ZTISt9basic_iosIcSt11char_traitsIcEE
00829c84   _ZTISt9basic_iosIwSt11char_traitsIwEE
00829cd0   _ZTISt9exception
00829cd8   _ZTISt9type_info
00829690   _ZTSN10__cxxabiv117__class_type_infoE
00829590   _ZTSN10__cxxabiv120__si_class_type_infoE
00829568   _ZTSN10__cxxabiv121__vmi_class_type_infoE
008299b0   _ZTSNSt6locale5facetE
00829988   _ZTSNSt6locale7_LocimpE
00829958   _ZTSNSt8ios_base7failureE
00829ea0   _ZTSSi
00829ea8   _ZTSSo
00829b18   _ZTSSt10ctype_base
00829a48   _ZTSSt11logic_error
008299e0   _ZTSSt12codecvt_base
008299f8   _ZTSSt12length_error
00829a10   _ZTSSt12out_of_range
008294c8   _ZTSSt13basic_filebufIcSt11char_traitsIcEE
008294f0   _ZTSSt13basic_filebufIwSt11char_traitsIwEE
00829518   _ZTSSt13basic_istreamIwSt11char_traitsIwEE
00829540   _ZTSSt13basic_ostreamIwSt11char_traitsIwEE
008299c8   _ZTSSt13runtime_error
00829418   _ZTSSt15basic_streambufIcSt11char_traitsIcEE
00829448   _ZTSSt15basic_streambufIwSt11char_traitsIwEE
00829b58   _ZTSSt5_IosbIiE
00829b68   _ZTSSt5ctypeIcE
00829b78   _ZTSSt5ctypeIwE
00829a58   _ZTSSt7codecvtIcciE
00829a68   _ZTSSt7codecvtIwciE
008291c8   _ZTSSt7num_putIcSt19ostreambuf_iteratorIcSt11char_traitsIcEEE
00829b88   _ZTSSt8ios_base
00829b28   _ZTSSt8numpunctIcE
008296b8   _ZTSSt9basic_iosIcSt11char_traitsIcEE
008296e0   _ZTSSt9basic_iosIwSt11char_traitsIwEE
00829b38   _ZTSSt9exception
00829b48   _ZTSSt9type_info
00829260   _ZTTSi
00829290   _ZTTSo
008292c0   _ZTTSt13basic_istreamIwSt11char_traitsIwEE
008292f0   _ZTTSt13basic_ostreamIwSt11char_traitsIwEE
00829a88   _ZTVN10__cxxabiv117__class_type_infoE
00829a98   _ZTVN10__cxxabiv120__si_class_type_infoE
00829aa8   _ZTVN10__cxxabiv121__vmi_class_type_infoE
00829ab8   _ZTVNSt6locale5facetE
00829ac8   _ZTVNSt6locale7_LocimpE
00829868   _ZTVNSt8ios_base7failureE
00829238   _ZTVSi
00829268   _ZTVSo
00829ad8   _ZTVSt10ctype_base
00829880   _ZTVSt11logic_error
008297e8   _ZTVSt12codecvt_base
00829898   _ZTVSt12length_error
008298b0   _ZTVSt12out_of_range
00828fe8   _ZTVSt13basic_filebufIcSt11char_traitsIcEE
00829030   _ZTVSt13basic_filebufIwSt11char_traitsIwEE
00829298   _ZTVSt13basic_istreamIwSt11char_traitsIwEE
008292c8   _ZTVSt13basic_ostreamIwSt11char_traitsIwEE
008298c8   _ZTVSt13runtime_error
00829078   _ZTVSt15basic_streambufIcSt11char_traitsIcEE
008290c0   _ZTVSt15basic_streambufIwSt11char_traitsIwEE
008292f8   _ZTVSt5ctypeIcE
00829148   _ZTVSt5ctypeIwE
008293b8   _ZTVSt7codecvtIcciE
008293e8   _ZTVSt7codecvtIwciE
00829328   _ZTVSt7num_putIcSt19ostreambuf_iteratorIcSt11char_traitsIcEEE
00829ae8   _ZTVSt8ios_base
008295b8   _ZTVSt8numpunctIcE
00829af8   _ZTVSt9basic_iosIcSt11char_traitsIcEE
00829b08   _ZTVSt9basic_iosIwSt11char_traitsIwEE
008298e0   _ZTVSt9exception
00821a00   _ZTv0_n12_NSiD0Ev
00823ac0   _ZTv0_n12_NSiD1Ev
00821a60   _ZTv0_n12_NSoD0Ev
00823b00   _ZTv0_n12_NSoD1Ev
00821ac0   _ZTv0_n12_NSt13basic_istreamIwSt11char_traitsIwEED0Ev
00823b40   _ZTv0_n12_NSt13basic_istreamIwSt11char_traitsIwEED1Ev
00821b20   _ZTv0_n12_NSt13basic_ostreamIwSt11char_traitsIwEED0Ev
00823b80   _ZTv0_n12_NSt13basic_ostreamIwSt11char_traitsIwEED1Ev
00829ed8   _ZZNKSt7num_putIcSt19ostreambuf_iteratorIcSt11char_traitsIcEEE5_FputES3_RSt8ios_basecPKcjjjjEs
00829ee0   _ZZNKSt7num_putIcSt19ostreambuf_iteratorIcSt11char_traitsIcEEE5_FputES3_RSt8ios_basecPKcjjjjEs_0
00829eb0   _ZZNKSt7num_putIcSt19ostreambuf_iteratorIcSt11char_traitsIcEEE6do_putES3_RSt8ios_basecPKvEs
00829eb8   _ZZNKSt7num_putIcSt19ostreambuf_iteratorIcSt11char_traitsIcEEE6do_putES3_RSt8ios_baseclEs
00829ec0   _ZZNKSt7num_putIcSt19ostreambuf_iteratorIcSt11char_traitsIcEEE6do_putES3_RSt8ios_basecmEs
00829ec8   _ZZNKSt7num_putIcSt19ostreambuf_iteratorIcSt11char_traitsIcEEE6do_putES3_RSt8ios_basecxEs
00829ed0   _ZZNKSt7num_putIcSt19ostreambuf_iteratorIcSt11char_traitsIcEEE6do_putES3_RSt8ios_basecyEs
00829d10   _ZZNKSt8_Locinfo8_GettrueEvEs
00829d08   _ZZNKSt8_Locinfo9_GetfalseEvEs
00828ddc   _ZZSt5_FabsIfET_RKSt7complexIS0_EPiE16_Oneplusroot2low
008291c4   _ZZSt5_FabsIfET_RKSt7complexIS0_EPiE17_Oneplusroot2high
008293b4   _ZZSt5_FabsIfET_RKSt7complexIS0_EPiE6_Root2
00825be0   _ZdaPv
00825be0   _ZdlPv
0081dfe0   _Znaj
0081dfe0   _Znwj
00825c00   _ZnwjPv
00800000   __ASM__
0082e628   __CIOBUF_
00800068   __ISA__
00800080   __PLAT__
008000c0   __TARG__
0082f0c4   __TI_CINIT_Base
0082f0fc   __TI_CINIT_Limit
0082f098   __TI_Handler_Table_Base
0082f0a4   __TI_Handler_Table_Limit
0082e748   __TI_INITARRAY_Base
0082e790   __TI_INITARRAY_Limit
0082bee8   __TI_STACK_END
00002000   __TI_STACK_SIZE
0082e790   __TI_STATIC_BASE
00000001   __TI_args_main
00825e60   __TI_decompress_none
00825e80   __TI_decompress_rle24
0082e5bc   __TI_enable_exit_profile_output
ffffffff   __TI_pprof_out_hndl
ffffffff   __TI_prof_data_size
ffffffff   __TI_prof_data_start
0081b3e0   __TI_zero_init
008000e8   __TRDR__
ffffffff   __binit__
008090c0   __c6xabi_divd
0080fea0   __c6xabi_divf
0081b060   __c6xabi_divi
0081c8a0   __c6xabi_divu
00814b80   __c6xabi_divul
00811b40   __c6xabi_divull
00825c20   __c6xabi_errno_addr
0081fb60   __c6xabi_fixfu
00821b80   __c6xabi_frcmpyd_div
00823bc0   __c6xabi_isinf
0081fbe0   __c6xabi_llshl
00821be0   __c6xabi_llshru
00825c40   __c6xabi_negll
0081c960   __c6xabi_remi
0081e080   __c6xabi_remu
0081fc60   __c6xabi_roundf
00825c60   __c6xabi_truncf
ffffffff   __c_args__
00825c80   __cxa_atexit
0081c7e0   __cxa_finalize
00825ca0   __cxa_guard_acquire
00825cc0   __cxa_guard_release
00825ce0   __cxa_ia64_exit
00821c40   __cxa_vec_ctor
00821ca0   __cxa_vec_new
0081b060   __divi
0081c8a0   __divu
0082e79c   __dso_handle
0082e5fc   __errno
00825d00   __memzero
0081c960   __remi
0081e080   __remu
00823c40   __sti___11_locale0_cpp_36e19383
0080ca40   __sti___11_wlocale_cpp_5e80b67f
00810ae0   __sti___12_iostream_cpp_3a72482d
00810d40   __sti___12_wiostrea_cpp_5e80b67f
0080f688   __sti___13_lteSystem_cpp_g_nUsers
00802a10   __sti___17_blasFunctions_cpp_1c39e1a6
008014d8   __sti___17_dynamicMemory_cpp_87b2ba69
00805b4c   __sti___18_pipdScheduling_cpp_1c39e1a6
008037d8   __sti___19_lapackFunctions_cpp_4deb6974
0080a170   __sti___20_displayFunctions_cpp_dbd75e48
0080d1c8   __sti___20_greedyScheduling_cpp_b8e1509e
00815c0c   __sti___20_memoryManagement_cpp_bbe36996
008105b8   __sti___20_randomScheduling_cpp_1a9b9836
008041d0   __sti___22_frameworkFunctions_cpp_ce0052a8
0081cc60   __sti___22_globalDeclarations_cpp_286f88f8
008062e4   __sti___22_succprojScheduling_cpp_87bf4a20
0080bbb8   __sti___23_supportingFunctions_cpp_fd751b3a
0081a3ac   __sti___24_schedulingAlgorithms_cpp_fc6d3ca0
00825d20   __xdc__init
0082dc04   __xdc__init__addr
00823c80   _args_main
00000000   _argsize
00817ba0   _auto_init_elf
00818ec0   _buff_read
0081e120   _c_int00
0081e1c0   _cleanup
0082e5b4   _cleanup_ptr
00818fe0   _closefile
00828bf0   _ctypes_
0081ca20   _doflush
0082e5b8   _dtors_ptr
0082e5f4   _ft_end
0082dc08   _ftable
0082e5dc   _lock
0082e60c   _new_handler
00825d40   _nop
0080c5e0   _printfi
0081cae0   _rd_ok
00825dc0   _register_lock
00825de0   _register_unlock
00829ee8   _stack
00821d00   _subcull
0082d828   _tmpnams
0082e5e0   _unlock
0081a220   _wrt_ok
00825e20   abort
00825e40   atexit
0081b220   atoi
ffffffff   binit
0082e7c4   bufferHeap
00821e20   calloc
0080f4e0   channelUpdate
0082e7ac   clock0
0082e7b0   clock1
0082e7c8   clock2
0081cd48   clockISRA
0081cd78   clockISRB
0081cdac   clockISRC
0081b300   close
0082d694   dlConfig
0082e798   dynamicMemory
0082e5fc   errno
0081cba0   exit
00821e80   fclose
0081b4c0   fflush
00817e20   fgetc
00821ee0   fgetpos
00825ea0   fgetwc
00812ae0   fputc
0080da20   fputs
00825ec0   fputwc
00823d40   free
00816da0   frexpf
00819220   fseek
00825ee0   fsetpos
00819340   ftell
0080c120   fwrite
0082e7a4   g_nReceive
0082e7a6   g_nSchedBlocks
0082e7a2   g_nTransmit
0082e7a0   g_nUsers
0c0ffff0   globalChannelMatrix
00816f00   ldexpf
00825f00   localeconv
0082e7a8   log
0081e4e0   lseek
0080f460   lteSystemInit
0080f62c   lteSystemTerminate
0081b5a0   ltoa
0081cd20   main
0081fd60   malloc
00823d80   mbrtowc
00823dc0   mbtowc
00821f40   memccpy
0081fde0   memchr
0081e580   memcpy
00821fa0   memmove
0081b680   memset
00822000   modff
00808ae0   powf
0081b760   printf
0081fe60   rand
0082e7c0   reInitSystem
0081e620   read
0081fee0   readmsg
00820560   remove
0080f5d4   schedulingForCurrentSF
00822060   setlocale
00813320   setvbuf
008220c0   sprintf
00819460   sqrtf
00823e00   strcmp
00822120   strcspn
00823e40   strlen
0082e7b4   swiHandleA
0082e7b8   swiHandleB
0082e7cc   swiHandleC
0082d818   sysConfig
0082e7bc   task0
0082da08   ti_sysbios_BIOS_Module__state__V
00825f20   ti_sysbios_BIOS_RtsGateProxy_enter__E
00825f40   ti_sysbios_BIOS_RtsGateProxy_leave__E
00826180   ti_sysbios_BIOS_RtsGateProxy_query__E
00822180   ti_sysbios_BIOS_atExitFunc__I
008221e0   ti_sysbios_BIOS_errorRaiseHook__I
00823e80   ti_sysbios_BIOS_exitFunc__I
00825f60   ti_sysbios_BIOS_exit__E
00825f80   ti_sysbios_BIOS_nullFunc__I
00822240   ti_sysbios_BIOS_registerRTSLock__I
008222a0   ti_sysbios_BIOS_removeRTSLock__I
00823ec0   ti_sysbios_BIOS_rtsLock__I
00822300   ti_sysbios_BIOS_rtsUnlock__I
00825fa0   ti_sysbios_BIOS_setThreadType__E
00823f00   ti_sysbios_BIOS_startFunc__I
00825fc0   ti_sysbios_BIOS_start__E
00825fe0   ti_sysbios_family_c62_TaskSupport_Module__startupDone__S
00823d00   ti_sysbios_family_c62_TaskSupport_buildTaskStack
00826000   ti_sysbios_family_c62_TaskSupport_checkStack__E
00825e00   ti_sysbios_family_c62_TaskSupport_glue
0081ff60   ti_sysbios_family_c62_TaskSupport_start__E
0081fce0   ti_sysbios_family_c62_TaskSupport_swap__E
00829414   ti_sysbios_family_c64p_Exception_E_exceptionMax__C
00829442   ti_sysbios_family_c64p_Exception_Module__id__C
0082da2c   ti_sysbios_family_c64p_Exception_Module__state__V
0081e6c0   ti_sysbios_family_c64p_Exception_Module_startup__E
00815c80   ti_sysbios_family_c64p_Exception_dispatch__E
00829444   ti_sysbios_family_c64p_Exception_exceptionHook__C
008294c4   ti_sysbios_family_c64p_Exception_externalHook__C
00806340   ti_sysbios_family_c64p_Exception_handler__I
00812200   ti_sysbios_family_c64p_Exception_internalHandler__I
008296b4   ti_sysbios_family_c64p_Exception_internalHook__C
008296dc   ti_sysbios_family_c64p_Exception_nmiHook__C
00829472   ti_sysbios_family_c64p_Exception_useInternalBuffer__C
0082e800   ti_sysbios_family_c64p_Hwi0
008297e4   ti_sysbios_family_c64p_Hwi_LD_end__C
00829864   ti_sysbios_family_c64p_Hwi_LM_begin__C
00829984   ti_sysbios_family_c64p_Hwi_Module__diagsEnabled__C
008299c4   ti_sysbios_family_c64p_Hwi_Module__diagsIncluded__C
008299dc   ti_sysbios_family_c64p_Hwi_Module__diagsMask__C
0082958e   ti_sysbios_family_c64p_Hwi_Module__id__C
008295b6   ti_sysbios_family_c64p_Hwi_Module__loggerDefined__C
008299f4   ti_sysbios_family_c64p_Hwi_Module__loggerFxn1__C
00829a0c   ti_sysbios_family_c64p_Hwi_Module__loggerFxn8__C
00829a44   ti_sysbios_family_c64p_Hwi_Module__loggerObj__C
0082da5c   ti_sysbios_family_c64p_Hwi_Module__root__V
00823f40   ti_sysbios_family_c64p_Hwi_Module__startupDone__F
00823f40   ti_sysbios_family_c64p_Hwi_Module__startupDone__S
0082da64   ti_sysbios_family_c64p_Hwi_Module__state__V
00819580   ti_sysbios_family_c64p_Hwi_Module_startup__E
0082e550   ti_sysbios_family_c64p_Hwi_Object__table__V
00826020   ti_sysbios_family_c64p_Hwi_clearInterrupt__E
00823f80   ti_sysbios_family_c64p_Hwi_disableInterrupt__E
00813120   ti_sysbios_family_c64p_Hwi_dispatchAlways
00823fc0   ti_sysbios_family_c64p_Hwi_dispatchC__I
00810fa0   ti_sysbios_family_c64p_Hwi_dispatchCore__I
00824000   ti_sysbios_family_c64p_Hwi_enableInterrupt__E
0081ffe0   ti_sysbios_family_c64p_Hwi_eventMap__E
00820060   ti_sysbios_family_c64p_Hwi_getStackInfo__E
0082e800   ti_sysbios_family_c64p_Hwi_int0
0082e820   ti_sysbios_family_c64p_Hwi_int1
0082e940   ti_sysbios_family_c64p_Hwi_int10
0082e960   ti_sysbios_family_c64p_Hwi_int11
0082e980   ti_sysbios_family_c64p_Hwi_int12
0082e9a0   ti_sysbios_family_c64p_Hwi_int13
0082e9c0   ti_sysbios_family_c64p_Hwi_int14
0082e9e0   ti_sysbios_family_c64p_Hwi_int15
0082e840   ti_sysbios_family_c64p_Hwi_int2
0082e860   ti_sysbios_family_c64p_Hwi_int3
0082e880   ti_sysbios_family_c64p_Hwi_int4
0082e8a0   ti_sysbios_family_c64p_Hwi_int5
0082e8c0   ti_sysbios_family_c64p_Hwi_int6
0082e8e0   ti_sysbios_family_c64p_Hwi_int7
0082e900   ti_sysbios_family_c64p_Hwi_int8
0082e920   ti_sysbios_family_c64p_Hwi_int9
00826040   ti_sysbios_family_c64p_Hwi_startup__E
00821d60   ti_sysbios_family_c64p_Hwi_switchAndDispatch__I
00826060   ti_sysbios_family_c64p_Hwi_switchFromBootStack__E
00826080   ti_sysbios_family_c64p_TimestampProvider_Module_startup__E
008260a0   ti_sysbios_family_c64p_TimestampProvider_get64__E
008260c0   ti_sysbios_family_c64p_tci6488_TimerSupport_enable__E
00822360   ti_sysbios_family_c66_Cache_Module_startup__E
008200e0   ti_sysbios_family_c66_Cache_all__I
00829c90   ti_sysbios_family_c66_Cache_initSize__C
00828218   ti_sysbios_family_c66_Cache_marvalues__C
008223c0   ti_sysbios_family_c66_Cache_setSize__E
00821dc0   ti_sysbios_family_xxx_Hwi_switchAndRunFunc
00824040   ti_sysbios_gates_GateHwi_Handle__label__S
008260e0   ti_sysbios_gates_GateHwi_Instance_init__E
008295dc   ti_sysbios_gates_GateHwi_Module__FXNS__C
0082dacc   ti_sysbios_gates_GateHwi_Module__root__V
00829724   ti_sysbios_gates_GateHwi_Object__DESC__C
008298f8   ti_sysbios_gates_GateHwi_Object__PARAMS__C
00822420   ti_sysbios_gates_GateHwi_Object__create__S
00824080   ti_sysbios_gates_GateHwi_Object__delete__S
0082e618   ti_sysbios_gates_GateHwi_Object__table__V
00826100   ti_sysbios_gates_GateHwi_enter__E
00826120   ti_sysbios_gates_GateHwi_leave__E
00826140   ti_sysbios_gates_GateHwi_query__E
008240c0   ti_sysbios_gates_GateMutex_Handle__label__S
00829b64   ti_sysbios_gates_GateMutex_Instance_State_sem__O
00826160   ti_sysbios_gates_GateMutex_Instance_finalize__E
00824100   ti_sysbios_gates_GateMutex_Instance_init__E
00829600   ti_sysbios_gates_GateMutex_Module__FXNS__C
0082dad4   ti_sysbios_gates_GateMutex_Module__root__V
00829744   ti_sysbios_gates_GateMutex_Object__DESC__C
00829910   ti_sysbios_gates_GateMutex_Object__PARAMS__C
00822480   ti_sysbios_gates_GateMutex_Object__create__S
00824140   ti_sysbios_gates_GateMutex_Object__delete__S
0082e378   ti_sysbios_gates_GateMutex_Object__table__V
00820160   ti_sysbios_gates_GateMutex_enter__E
00824180   ti_sysbios_gates_GateMutex_leave__E
00826180   ti_sysbios_gates_GateMutex_query__E
00829b74   ti_sysbios_hal_Hwi_E_stackOverflow__C
008261a0   ti_sysbios_hal_Hwi_HwiProxy_Module__startupDone__S
00826020   ti_sysbios_hal_Hwi_HwiProxy_clearInterrupt__E
00823f80   ti_sysbios_hal_Hwi_HwiProxy_disableInterrupt__E
00824000   ti_sysbios_hal_Hwi_HwiProxy_enableInterrupt__E
00820060   ti_sysbios_hal_Hwi_HwiProxy_getStackInfo__E
00826040   ti_sysbios_hal_Hwi_HwiProxy_startup__E
00826060   ti_sysbios_hal_Hwi_HwiProxy_switchFromBootStack__E
008296b2   ti_sysbios_hal_Hwi_Module__id__C
0082dadc   ti_sysbios_hal_Hwi_Module__root__V
008261c0   ti_sysbios_hal_Hwi_Module_startup__E
0082e5e8   ti_sysbios_hal_Hwi_Object__table__V
008201e0   ti_sysbios_hal_Hwi_checkStack
00826020   ti_sysbios_hal_Hwi_clearInterrupt__E
00823f80   ti_sysbios_hal_Hwi_disableInterrupt__E
00824000   ti_sysbios_hal_Hwi_enableInterrupt__E
00820060   ti_sysbios_hal_Hwi_getStackInfo__E
00820260   ti_sysbios_hal_Hwi_initStack
00826040   ti_sysbios_hal_Hwi_startup__E
00829b84   ti_sysbios_heaps_HeapMem_E_memory__C
008241c0   ti_sysbios_heaps_HeapMem_Handle__label__S
0c000000   ti_sysbios_heaps_HeapMem_Instance_State_0_buf__A
0c07fff8   ti_sysbios_heaps_HeapMem_Instance_State_1_buf__A
008202e0   ti_sysbios_heaps_HeapMem_Instance_init__E
008261e0   ti_sysbios_heaps_HeapMem_Module_GateProxy_enter__E
00826200   ti_sysbios_heaps_HeapMem_Module_GateProxy_leave__E
00826180   ti_sysbios_heaps_HeapMem_Module_GateProxy_query__E
00829474   ti_sysbios_heaps_HeapMem_Module__FXNS__C
00829d18   ti_sysbios_heaps_HeapMem_Module__gateObj__C
008296da   ti_sysbios_heaps_HeapMem_Module__id__C
0082dae4   ti_sysbios_heaps_HeapMem_Module__root__V
00829764   ti_sysbios_heaps_HeapMem_Object__DESC__C
00829624   ti_sysbios_heaps_HeapMem_Object__PARAMS__C
00829d1c   ti_sysbios_heaps_HeapMem_Object__count__C
008224e0   ti_sysbios_heaps_HeapMem_Object__create__S
00824200   ti_sysbios_heaps_HeapMem_Object__delete__S
00824240   ti_sysbios_heaps_HeapMem_Object__get__S
0082e4b0   ti_sysbios_heaps_HeapMem_Object__table__V
00815e00   ti_sysbios_heaps_HeapMem_alloc__E
008180a0   ti_sysbios_heaps_HeapMem_free__E
0081cde0   ti_sysbios_heaps_HeapMem_getStats__E
0081e760   ti_sysbios_heaps_HeapMem_init__I
00826220   ti_sysbios_heaps_HeapMem_isBlocking__E
00829d20   ti_sysbios_heaps_HeapMem_reqAlign__C
00829d24   ti_sysbios_knl_Clock_LM_begin__C
00829d28   ti_sysbios_knl_Clock_LM_tick__C
00829d2c   ti_sysbios_knl_Clock_LW_delayed__C
00829d30   ti_sysbios_knl_Clock_Module_State_clockQ__O
00829d34   ti_sysbios_knl_Clock_Module__diagsEnabled__C
00829d38   ti_sysbios_knl_Clock_Module__diagsIncluded__C
00829d3c   ti_sysbios_knl_Clock_Module__diagsMask__C
00829702   ti_sysbios_knl_Clock_Module__id__C
008299c2   ti_sysbios_knl_Clock_Module__loggerDefined__C
00829d40   ti_sysbios_knl_Clock_Module__loggerFxn1__C
00829d44   ti_sysbios_knl_Clock_Module__loggerFxn2__C
00829d48   ti_sysbios_knl_Clock_Module__loggerObj__C
0082daec   ti_sysbios_knl_Clock_Module__root__V
0082daf4   ti_sysbios_knl_Clock_Module__state__V
00822540   ti_sysbios_knl_Clock_Module_startup__E
0082e280   ti_sysbios_knl_Clock_Object__table__V
00826240   ti_sysbios_knl_Clock_TimerProxy_Module__startupDone__S
00826260   ti_sysbios_knl_Clock_TimerProxy_getMaxTicks__E
0081ba00   ti_sysbios_knl_Clock_TimerProxy_startup__E
008225a0   ti_sysbios_knl_Clock_doTick__I
00826280   ti_sysbios_knl_Clock_getTicks__E
0081cea0   ti_sysbios_knl_Clock_logTick__E
0080f700   ti_sysbios_knl_Clock_workFunc__E
00829d50   ti_sysbios_knl_Idle_funcList__A
00829ce8   ti_sysbios_knl_Idle_funcList__C
008262a0   ti_sysbios_knl_Idle_loop__E
00820360   ti_sysbios_knl_Idle_run__E
008262c0   ti_sysbios_knl_Queue_Instance_init__E
0082db20   ti_sysbios_knl_Queue_Module__root__V
00829784   ti_sysbios_knl_Queue_Object__DESC__C
00829928   ti_sysbios_knl_Queue_Object__PARAMS__C
00824280   ti_sysbios_knl_Queue_Object__destruct__S
008262e0   ti_sysbios_knl_Queue_Object__get__S
00822600   ti_sysbios_knl_Queue_construct
00826300   ti_sysbios_knl_Queue_destruct
00826320   ti_sysbios_knl_Queue_empty__E
008242c0   ti_sysbios_knl_Queue_put__E
00829d4c   ti_sysbios_knl_Semaphore_Instance_State_pendQ__O
00826340   ti_sysbios_knl_Semaphore_Instance_finalize__E
00822660   ti_sysbios_knl_Semaphore_Instance_init__E
00829d54   ti_sysbios_knl_Semaphore_LM_pend__C
00829d58   ti_sysbios_knl_Semaphore_LM_post__C
00829d5c   ti_sysbios_knl_Semaphore_Module__diagsEnabled__C
00829d60   ti_sysbios_knl_Semaphore_Module__diagsIncluded__C
00829d64   ti_sysbios_knl_Semaphore_Module__diagsMask__C
008299da   ti_sysbios_knl_Semaphore_Module__id__C
008299f2   ti_sysbios_knl_Semaphore_Module__loggerDefined__C
00829d68   ti_sysbios_knl_Semaphore_Module__loggerFxn2__C
00829d6c   ti_sysbios_knl_Semaphore_Module__loggerFxn4__C
00829d70   ti_sysbios_knl_Semaphore_Module__loggerObj__C
0082db28   ti_sysbios_knl_Semaphore_Module__root__V
008297a4   ti_sysbios_knl_Semaphore_Object__DESC__C
00829648   ti_sysbios_knl_Semaphore_Object__PARAMS__C
00824300   ti_sysbios_knl_Semaphore_Object__destruct__S
0082e568   ti_sysbios_knl_Semaphore_Object__table__V
008226c0   ti_sysbios_knl_Semaphore_construct
00826360   ti_sysbios_knl_Semaphore_destruct
00822720   ti_sysbios_knl_Semaphore_pendTimeout__I
0080d240   ti_sysbios_knl_Semaphore_pend__E
00815f80   ti_sysbios_knl_Semaphore_post__E
00829d74   ti_sysbios_knl_Swi_LD_end__C
00829d78   ti_sysbios_knl_Swi_LM_begin__C
00829d7c   ti_sysbios_knl_Swi_LM_post__C
0082e0a0   ti_sysbios_knl_Swi_Module_State_0_readyQ__A
00829d80   ti_sysbios_knl_Swi_Module__diagsEnabled__C
00829d84   ti_sysbios_knl_Swi_Module__diagsIncluded__C
00829d88   ti_sysbios_knl_Swi_Module__diagsMask__C
00829a0a   ti_sysbios_knl_Swi_Module__id__C
00829a22   ti_sysbios_knl_Swi_Module__loggerDefined__C
00829d8c   ti_sysbios_knl_Swi_Module__loggerFxn1__C
00829d90   ti_sysbios_knl_Swi_Module__loggerFxn4__C
00829d94   ti_sysbios_knl_Swi_Module__loggerObj__C
0082db30   ti_sysbios_knl_Swi_Module__root__V
0082db38   ti_sysbios_knl_Swi_Module__state__V
00822780   ti_sysbios_knl_Swi_Module_startup__E
00829d98   ti_sysbios_knl_Swi_Object__count__C
00824340   ti_sysbios_knl_Swi_Object__get__S
0082dde8   ti_sysbios_knl_Swi_Object__table__V
00826380   ti_sysbios_knl_Swi_disable__E
008181e0   ti_sysbios_knl_Swi_post__E
0081a420   ti_sysbios_knl_Swi_restoreHwi__E
008203e0   ti_sysbios_knl_Swi_restore__E
0081b840   ti_sysbios_knl_Swi_runLoop__I
00812d00   ti_sysbios_knl_Swi_run__I
0081cf60   ti_sysbios_knl_Swi_schedule__I
008263a0   ti_sysbios_knl_Swi_startup__E
00829d9c   ti_sysbios_knl_Task_E_spOutOfBounds__C
00829da0   ti_sysbios_knl_Task_E_stackOverflow__C
0082bee8   ti_sysbios_knl_Task_Instance_State_0_stack__A
0082c6e8   ti_sysbios_knl_Task_Instance_State_1_stack__A
00829da4   ti_sysbios_knl_Task_LD_block__C
00829da8   ti_sysbios_knl_Task_LD_exit__C
00829dac   ti_sysbios_knl_Task_LD_ready__C
00829db0   ti_sysbios_knl_Task_LM_switch__C
0082e620   ti_sysbios_knl_Task_Module_State_0_idleTask__A
0082e120   ti_sysbios_knl_Task_Module_State_0_readyQ__A
00829db4   ti_sysbios_knl_Task_Module_State_inactiveQ__O
00829db8   ti_sysbios_knl_Task_Module__diagsEnabled__C
00829dbc   ti_sysbios_knl_Task_Module__diagsIncluded__C
00829dc0   ti_sysbios_knl_Task_Module__diagsMask__C
00829a42   ti_sysbios_knl_Task_Module__id__C
00829b46   ti_sysbios_knl_Task_Module__loggerDefined__C
00829dc4   ti_sysbios_knl_Task_Module__loggerFxn2__C
00829dc8   ti_sysbios_knl_Task_Module__loggerFxn4__C
00829dcc   ti_sysbios_knl_Task_Module__loggerObj__C
0082db54   ti_sysbios_knl_Task_Module__root__V
0082db5c   ti_sysbios_knl_Task_Module__state__V
0081b920   ti_sysbios_knl_Task_Module_startup__E
00829dd0   ti_sysbios_knl_Task_Object__count__C
00824380   ti_sysbios_knl_Task_Object__get__S
0082e008   ti_sysbios_knl_Task_Object__table__V
008263c0   ti_sysbios_knl_Task_SupportProxy_Module__startupDone__S
00826000   ti_sysbios_knl_Task_SupportProxy_checkStack__E
0081ff60   ti_sysbios_knl_Task_SupportProxy_start__E
0081fce0   ti_sysbios_knl_Task_SupportProxy_swap__E
00829dd4   ti_sysbios_knl_Task_allBlockedFunc__C
0081d020   ti_sysbios_knl_Task_allBlockedFunction__I
00818320   ti_sysbios_knl_Task_blockI__E
00813e40   ti_sysbios_knl_Task_checkStacks__E
008263e0   ti_sysbios_knl_Task_disable__E
008227e0   ti_sysbios_knl_Task_enter__I
008196a0   ti_sysbios_knl_Task_exit__E
00829b56   ti_sysbios_knl_Task_initStackFlag__C
00829dd8   ti_sysbios_knl_Task_numConstructedTasks__C
008197c0   ti_sysbios_knl_Task_postInit__I
00822840   ti_sysbios_knl_Task_processVitalTaskFlag__I
00820460   ti_sysbios_knl_Task_restoreHwi__E
008204e0   ti_sysbios_knl_Task_restore__E
00814d20   ti_sysbios_knl_Task_schedule__I
00816100   ti_sysbios_knl_Task_startCore__E
00826400   ti_sysbios_knl_Task_startup__E
0081a520   ti_sysbios_knl_Task_unblockI__E
00829ddc   ti_sysbios_timers_timer64_Timer_E_cannotSupport__C
0082dea8   ti_sysbios_timers_timer64_Timer_Module_State_0_device__A
0082e3b8   ti_sysbios_timers_timer64_Timer_Module_State_0_gctrl__A
0082e3f8   ti_sysbios_timers_timer64_Timer_Module_State_0_handles__A
0082e438   ti_sysbios_timers_timer64_Timer_Module_State_0_intFreqs__A
00829ca6   ti_sysbios_timers_timer64_Timer_Module__id__C
0082dba0   ti_sysbios_timers_timer64_Timer_Module__root__V
008243c0   ti_sysbios_timers_timer64_Timer_Module__startupDone__F
008243c0   ti_sysbios_timers_timer64_Timer_Module__startupDone__S
0082dba8   ti_sysbios_timers_timer64_Timer_Module__state__V
0080d640   ti_sysbios_timers_timer64_Timer_Module_startup__E
0082e2e0   ti_sysbios_timers_timer64_Timer_Object__table__V
008260c0   ti_sysbios_timers_timer64_Timer_TimerSupportProxy_enable__E
00829de0   ti_sysbios_timers_timer64_Timer_anyMaskHigh__C
00829de4   ti_sysbios_timers_timer64_Timer_anyMask__C
0080e3c0   ti_sysbios_timers_timer64_Timer_deviceConfig__I
00829de8   ti_sysbios_timers_timer64_Timer_freqDivisor__C
00826420   ti_sysbios_timers_timer64_Timer_getMaxTicks__E
0081a620   ti_sysbios_timers_timer64_Timer_initDevice__I
00828cf3   ti_sysbios_timers_timer64_Timer_localTimerBaseId__C
00829dec   ti_sysbios_timers_timer64_Timer_numLocalTimers__C
00829df0   ti_sysbios_timers_timer64_Timer_numTimerDevices__C
0080e6a0   ti_sysbios_timers_timer64_Timer_setPeriodMicroSecs__E
00814ec0   ti_sysbios_timers_timer64_Timer_start__E
00829d0e   ti_sysbios_timers_timer64_Timer_startupNeeded__C
0081ba00   ti_sysbios_timers_timer64_Timer_startup__E
0081d0e0   ti_sysbios_timers_timer64_Timer_stop__E
00829d16   ti_sysbios_timers_timer64_Timer_useTimer64pRegMap__C
00826440   tolower
00826460   toupper
00818460   ungetc
008228a0   ungetwc
00820560   unlink
00824400   wcrtomb
00826480   wctomb
008205e0   wmemcpy
0081e800   write
00822900   writemsg
00829df4   xdc_runtime_Assert_E_assertFailed__C
0081e8a0   xdc_runtime_Assert_raise__I
00829df8   xdc_runtime_Core_A_initializedParams__C
00829dfc   xdc_runtime_Core_Module__diagsEnabled__C
00829e00   xdc_runtime_Core_Module__diagsIncluded__C
00829e04   xdc_runtime_Core_Module__diagsMask__C
00829e9c   xdc_runtime_Core_Module__id__C
00820660   xdc_runtime_Core_assignLabel__I
008206e0   xdc_runtime_Core_assignParams__I
00816280   xdc_runtime_Core_constructObject__I
00812440   xdc_runtime_Core_createObject__I
0081a720   xdc_runtime_Core_deleteObject__I
00829e08   xdc_runtime_Error_E_memory__C
00829e0c   xdc_runtime_Error_Module__diagsEnabled__C
00829e10   xdc_runtime_Error_Module__diagsIncluded__C
00829e14   xdc_runtime_Error_Module__diagsMask__C
00829e9e   xdc_runtime_Error_Module__loggerDefined__C
00829e18   xdc_runtime_Error_Module__loggerFxn8__C
00829e1c   xdc_runtime_Error_Module__loggerObj__C
0082dbc0   xdc_runtime_Error_Module__state__V
00824440   xdc_runtime_Error_check__E
00824480   xdc_runtime_Error_init__E
00829ea4   xdc_runtime_Error_maxDepth__C
00813520   xdc_runtime_Error_policyDefault__E
00829e20   xdc_runtime_Error_policyFxn__C
00829e24   xdc_runtime_Error_policy__C
0081bae0   xdc_runtime_Error_print__E
00829e28   xdc_runtime_Error_raiseHook__C
008244c0   xdc_runtime_Error_raiseX__E
0081d1a0   xdc_runtime_Error_setX__E
008264a0   xdc_runtime_Gate_enterSystem__E
00824500   xdc_runtime_Gate_leaveSystem__E
00829e2c   xdc_runtime_IFilterLogger_Interface__BASE__C
00829e30   xdc_runtime_IGateProvider_Interface__BASE__C
00829e34   xdc_runtime_IHeap_Interface__BASE__C
00829e38   xdc_runtime_ILogger_Interface__BASE__C
00829e3c   xdc_runtime_IModule_Interface__BASE__C
00829e40   xdc_runtime_Log_L_error__C
00829e44   xdc_runtime_LoggerBuf_E_badLevel__C
00824540   xdc_runtime_LoggerBuf_Handle__label__S
0082cee8   xdc_runtime_LoggerBuf_Instance_State_0_entryArr__A
00824580   xdc_runtime_LoggerBuf_Instance_finalize__E
0081d260   xdc_runtime_LoggerBuf_Instance_init__E
00826500   xdc_runtime_LoggerBuf_Module_GateProxy_enter__E
00826520   xdc_runtime_LoggerBuf_Module_GateProxy_leave__E
00826140   xdc_runtime_LoggerBuf_Module_GateProxy_query__E
00829188   xdc_runtime_LoggerBuf_Module__FXNS__C
00829e48   xdc_runtime_LoggerBuf_Module__gateObj__C
00829ea6   xdc_runtime_LoggerBuf_Module__id__C
0082dbc4   xdc_runtime_LoggerBuf_Module__root__V
0082dbcc   xdc_runtime_LoggerBuf_Module__state__V
0081e940   xdc_runtime_LoggerBuf_Module_startup__E
008297c4   xdc_runtime_LoggerBuf_Object__DESC__C
0082949c   xdc_runtime_LoggerBuf_Object__PARAMS__C
00829e4c   xdc_runtime_LoggerBuf_Object__count__C
0081d320   xdc_runtime_LoggerBuf_Object__create__S
008245c0   xdc_runtime_LoggerBuf_Object__delete__S
00824600   xdc_runtime_LoggerBuf_Object__get__S
0082e508   xdc_runtime_LoggerBuf_Object__table__V
008260a0   xdc_runtime_LoggerBuf_TimestampProxy_get64__E
00826540   xdc_runtime_LoggerBuf_disable__E
00826560   xdc_runtime_LoggerBuf_enable__E
00829eac   xdc_runtime_LoggerBuf_filterByLevel__C
00820760   xdc_runtime_LoggerBuf_filterOutEvent__I
0081a820   xdc_runtime_LoggerBuf_getFilterLevel__E
008198e0   xdc_runtime_LoggerBuf_setFilterLevel__E
00829e50   xdc_runtime_LoggerBuf_statusLogger__C
00824640   xdc_runtime_LoggerBuf_write0__E
00824680   xdc_runtime_LoggerBuf_write1__E
008246c0   xdc_runtime_LoggerBuf_write2__E
00815060   xdc_runtime_LoggerBuf_write4__E
00812680   xdc_runtime_LoggerBuf_write8__E
00826140   xdc_runtime_Main_Module_GateProxy_query__E
00826580   xdc_runtime_Memory_HeapProxy_alloc__E
008265a0   xdc_runtime_Memory_HeapProxy_free__E
00829eae   xdc_runtime_Memory_Module__id__C
0082dbd4   xdc_runtime_Memory_Module__state__V
0081bbc0   xdc_runtime_Memory_alloc__E
00822960   xdc_runtime_Memory_calloc__E
00829e54   xdc_runtime_Memory_defaultHeapInstance__C
00824700   xdc_runtime_Memory_free__E
0082dbd8   xdc_runtime_Registry_Module__state__V
00824740   xdc_runtime_Registry_findById__E
0082dbe0   xdc_runtime_Startup_Module__state__V
00000001   xdc_runtime_Startup__EXECFXN__C
00000001   xdc_runtime_Startup__RESETFXN__C
00829e58   xdc_runtime_Startup_execImpl__C
0081a920   xdc_runtime_Startup_exec__E
008265c0   xdc_runtime_Startup_exec__I
00829cf0   xdc_runtime_Startup_firstFxns__A
00829cf8   xdc_runtime_Startup_firstFxns__C
00829d00   xdc_runtime_Startup_lastFxns__C
00829e5c   xdc_runtime_Startup_maxPasses__C
008265e0   xdc_runtime_Startup_reset__I
00829940   xdc_runtime_Startup_sfxnRts__A
00829e60   xdc_runtime_Startup_sfxnRts__C
00829358   xdc_runtime_Startup_sfxnTab__A
00829e64   xdc_runtime_Startup_sfxnTab__C
00811200   xdc_runtime_Startup_startMods__I
0082d0e8   xdc_runtime_SysMin_Module_State_0_outbuf__A
0082dbe8   xdc_runtime_SysMin_Module__state__V
008229c0   xdc_runtime_SysMin_Module_startup__E
0081e9e0   xdc_runtime_SysMin_abort__E
00829e68   xdc_runtime_SysMin_bufSize__C
00822a20   xdc_runtime_SysMin_exit__E
00829eb4   xdc_runtime_SysMin_flushAtExit__C
0081ea80   xdc_runtime_SysMin_flush__E
00829e6c   xdc_runtime_SysMin_outputFunc__C
00822a80   xdc_runtime_SysMin_output__I
0081eb20   xdc_runtime_SysMin_putch__E
00826600   xdc_runtime_SysMin_ready__E
00826620   xdc_runtime_System_Module_GateProxy_enter__E
00826640   xdc_runtime_System_Module_GateProxy_leave__E
00826140   xdc_runtime_System_Module_GateProxy_query__E
0082e598   xdc_runtime_System_Module_State_0_atexitHandlers__A
00829e70   xdc_runtime_System_Module__gateObj__C
0082dbf4   xdc_runtime_System_Module__state__V
00826660   xdc_runtime_System_Module_startup__E
0081e9e0   xdc_runtime_System_SupportProxy_abort__E
00822a20   xdc_runtime_System_SupportProxy_exit__E
0081ea80   xdc_runtime_System_SupportProxy_flush__E
0081eb20   xdc_runtime_System_SupportProxy_putch__E
00826600   xdc_runtime_System_SupportProxy_ready__E
00829e74   xdc_runtime_System_abortFxn__C
00825e20   xdc_runtime_System_abortStd__E
00824780   xdc_runtime_System_abort__E
008247c0   xdc_runtime_System_aprintf__E
00822ae0   xdc_runtime_System_aprintf_va__E
00822ae0   xdc_runtime_System_aprintf_va__F
008207e0   xdc_runtime_System_atexit__E
00822ae0   xdc_runtime_System_avprintf__E
00804b60   xdc_runtime_System_doPrint__I
00829e78   xdc_runtime_System_exitFxn__C
0081cba0   xdc_runtime_System_exitStd__E
00824800   xdc_runtime_System_exit__E
00829e7c   xdc_runtime_System_extendFxn__C
0081ea80   xdc_runtime_System_flush__E
0081d3e0   xdc_runtime_System_formatNum__I
00829e80   xdc_runtime_System_maxAtexitHandlers__C
00811460   xdc_runtime_System_printfExtend__I
00824840   xdc_runtime_System_printf__E
00822b40   xdc_runtime_System_printf_va__E
00822b40   xdc_runtime_System_printf_va__F
00820860   xdc_runtime_System_processAtExit__E
008208e0   xdc_runtime_System_putchar__I
00826680   xdc_runtime_System_snprintf_va__E
00826680   xdc_runtime_System_snprintf_va__F
00822b40   xdc_runtime_System_vprintf__E
00826680   xdc_runtime_System_vsnprintf__E
0082dbfc   xdc_runtime_Text_Module__state__V
00829eb6   xdc_runtime_Text_charCnt__C
008266c0   xdc_runtime_Text_charTab__A
00829e84   xdc_runtime_Text_charTab__C
00822ba0   xdc_runtime_Text_cordText__E
00829ebc   xdc_runtime_Text_isLoaded__C
00829e88   xdc_runtime_Text_nameEmpty__C
00829e8c   xdc_runtime_Text_nameStatic__C
00829e90   xdc_runtime_Text_nameUnknown__C
00828de0   xdc_runtime_Text_nodeTab__A
00829e94   xdc_runtime_Text_nodeTab__C
00820960   xdc_runtime_Text_printVisFxn__I
008185a0   xdc_runtime_Text_putLab__E
00819a00   xdc_runtime_Text_putMod__E
00814000   xdc_runtime_Text_putSite__E
00829ebe   xdc_runtime_Text_registryModsLastId__C
00824880   xdc_runtime_Text_ropeText__E
00829ec4   xdc_runtime_Text_unnamedModsLastId__C
0081aa20   xdc_runtime_Text_visitRope2__I
00829e98   xdc_runtime_Text_visitRopeFxn__C
008266a0   xdc_runtime_Text_visitRope__I
0081ebc0   xdc_runtime_Text_xprintf__I


GLOBAL SYMBOLS: SORTED BY Symbol Address 

address    name
--------   ----
00000000   _argsize
00000001   __TI_args_main
00000001   xdc_runtime_Startup__EXECFXN__C
00000001   xdc_runtime_Startup__RESETFXN__C
00002000   __TI_STACK_SIZE
00800000   _ZN13DynamicMemory12getEmptyListEj
00800000   __ASM__
00800068   __ISA__
00800080   __PLAT__
008000c0   __TARG__
008000e8   __TRDR__
00800280   _ZN13DynamicMemory10clearListsEv
008002d4   _ZN13DynamicMemoryC1Ev
008002d4   _ZN13DynamicMemoryC2Ev
008003ac   _ZN13DynamicMemoryD1Ev
008003ac   _ZN13DynamicMemoryD2Ev
008003e0   _ZN13DynamicMemory16freeMatrixMemoryEP9cmatrix_t
00800440   _ZN13DynamicMemory9getMatrixEtt
00800528   _ZN13DynamicMemory10getMatrixZEtt
008006b0   _ZN13DynamicMemory10getMatrixREP9cmatrix_ttt
008008d4   _ZN13DynamicMemory12updateMatrixEP9cmatrix_ttt
008009b8   _ZN13DynamicMemory13updateMatrixZEP9cmatrix_ttt
00800b38   _ZN13DynamicMemory13reshapeMatrixEP9cmatrix_ttt
00800c68   _ZN13DynamicMemory20reshapeMatrixAndCopyEP9cmatrix_ttt
0080112c   _ZN13DynamicMemory15displayDMStatusEv
008011e4   _ZN13DynamicMemory23displayDMCompleteStatusEv
00801398   _ZN13DynamicMemory18obtainMemoryBufferEj
008013c4   _ZN13DynamicMemory16freeMemoryBufferEPvj
008013e4   _ZN13DynamicMemory10resetQInfoEv
00801414   _ZN13DynamicMemory12displayQInfoEv
008014d8   __sti___17_dynamicMemory_cpp_87b2ba69
008015c0   _Z12cblas_scnrm2jPvj
00801650   _Z12cblas_isamaxjPvj
008016ec   _Z10matrixCopyP9cmatrix_tS0_15CBLAS_TRANSPOSEb
00801a24   _Z10matrixMultP9cmatrix_tS0_S0_15CBLAS_TRANSPOSES1_b
00801f44   _Z11matrixMultVP9cmatrix_tPSt7complexIfES3_b
0080208c   _Z11dotProductVPSt7complexIfES1_t
0080214c   _Z13outerProductVPSt7complexIfES1_P9cmatrix_tS0_
00802264   _Z15matrixMultSafeBP9cmatrix_tS0_
00802440   _Z15matrixMultSafeAP9cmatrix_tS0_
00802620   _Z15matrixHermitianP9cmatrix_t
00802818   _Z15matrixTransposeP9cmatrix_t
00802a10   __sti___17_blasFunctions_cpp_1c39e1a6
00802a80   _Z9eyeMatrixP9cmatrix_t
00802b94   _Z16getMatrixInverseP9cmatrix_tS0_St7complexIfE
00803010   _Z13getNullMatrixP9cmatrix_tS0_
00803188   _Z18getQRDecompositionP9cmatrix_tS0_S0_
00803624   _Z6getSVDP9cmatrix_tS0_S0_S0_c
008037d8   __sti___19_lapackFunctions_cpp_4deb6974
00803840   _Z22randomizeChannelMatrixP9cmatrix_tb
00803a2c   _Z16initializeSystemP16downlinkConfig_tP14systemConfig_tttttt
00803b38   _Z22createNewUserStructurettt
00803d78   _Z19updateDLConfig_UserP16downlinkConfig_tP12userConfig_t
00803ef8   _Z18clearDLConfig_UserP16downlinkConfig_tt
00803fd4   _Z8freeUserP12userConfig_t
008040f0   _Z17updateUserChannelP12userConfig_t
00804168   _Z12cleanupUsersP16downlinkConfig_t
008041d0   __sti___22_frameworkFunctions_cpp_ce0052a8
00804240   _ZNSt6_WinitC1Ev
00804240   _ZNSt6_WinitC2Ev
00804b60   xdc_runtime_System_doPrint__I
00805400   _Z21performPIPDSchedulingP14systemConfig_tP16downlinkConfig_t
00805b4c   __sti___18_pipdScheduling_cpp_1c39e1a6
00805bc0   _Z28performSuccessiveProjectionsP14systemConfig_tP16downlinkConfig_t
008062e4   __sti___22_succprojScheduling_cpp_87bf4a20
00806340   ti_sysbios_family_c64p_Exception_handler__I
00806ac0   _ZNSt8ios_base4InitC1Ev
00806ac0   _ZNSt8ios_base4InitC2Ev
00807220   _ZNSt13basic_filebufIwSt11char_traitsIwEE8overflowEj
008078a0   _ZNSt13basic_filebufIcSt11char_traitsIcEE8overflowEi
00807ee0   _ZNSt13basic_filebufIwSt11char_traitsIwEE5uflowEv
00808500   _ZNSt13basic_filebufIcSt11char_traitsIcEE5uflowEv
00808ae0   powf
008090c0   __c6xabi_divd
00809c40   _Z13displayMatrixP9cmatrix_t
00809d88   _Z13displayMatrixR9cmatrix_t
00809ed0   _Z20displayUserStructureP12userConfig_t
00809fc8   _Z17displaySystemInfov
0080a050   _Z21displayScheduledUsersP14systemConfig_tP16downlinkConfig_t
0080a170   __sti___20_displayFunctions_cpp_dbd75e48
0080a1e0   _ZNKSt7num_putIcSt19ostreambuf_iteratorIcSt11char_traitsIcEEE5_FputES3_RSt8ios_basecPKcjjjj
0080a760   _ZNSt13basic_filebufIcSt11char_traitsIcEE9_EndwriteEv
0080aca0   _ZNSt13basic_filebufIwSt11char_traitsIwEE9_EndwriteEv
0080b700   _Z24decomposeChannelMatricesP14systemConfig_tP16downlinkConfig_t
0080bb50   _Z28clearSchedulerConfigurationsP14systemConfig_tP16downlinkConfig_t
0080bbb8   __sti___23_supportingFunctions_cpp_fd751b3a
0080bc20   _ZNSt8ios_base5clearENSt5_IosbIiE8_IostateEb
0080c120   fwrite
0080c5e0   _printfi
0080ca40   __sti___11_wlocale_cpp_5e80b67f
0080ce40   _Z23performGreedySchedulingP14systemConfig_tP16downlinkConfig_t
0080d1c8   __sti___20_greedyScheduling_cpp_b8e1509e
0080d240   ti_sysbios_knl_Semaphore_pend__E
0080d640   ti_sysbios_timers_timer64_Timer_Module_startup__E
0080da20   fputs
0080e3c0   ti_sysbios_timers_timer64_Timer_deviceConfig__I
0080e6a0   ti_sysbios_timers_timer64_Timer_setPeriodMicroSecs__E
0080e980   _ZNKSt7num_putIcSt19ostreambuf_iteratorIcSt11char_traitsIcEEE5_IputES3_RSt8ios_basecPcj
0080ec40   _ZNKSt7num_putIcSt19ostreambuf_iteratorIcSt11char_traitsIcEEE6do_putES3_RSt8ios_basecd
0080ef00   _ZNKSt7num_putIcSt19ostreambuf_iteratorIcSt11char_traitsIcEEE6do_putES3_RSt8ios_basece
0080f460   lteSystemInit
0080f4e0   channelUpdate
0080f5d4   schedulingForCurrentSF
0080f62c   lteSystemTerminate
0080f688   __sti___13_lteSystem_cpp_g_nUsers
0080f700   ti_sysbios_knl_Clock_workFunc__E
0080f9a0   _ZSt5_FabsIfET_RKSt7complexIS0_EPi
0080fc20   _ZStlsISt11char_traitsIcEERSt13basic_ostreamIcT_ES5_PKc
0080fea0   __c6xabi_divf
008103a0   _Z23performRandomSchedulingP14systemConfig_tP16downlinkConfig_t
008105b8   __sti___20_randomScheduling_cpp_1a9b9836
00810620   _ZNSt13_Complex_baseIfSt16_C_float_complexE4_DivIfEEvRKSt7complexIT_E
00810880   _ZNSt6_WinitD1Ev
00810880   _ZNSt6_WinitD2Ev
00810ae0   __sti___12_iostream_cpp_3a72482d
00810d40   __sti___12_wiostrea_cpp_5e80b67f
00810fa0   ti_sysbios_family_c64p_Hwi_dispatchCore__I
00811200   xdc_runtime_Startup_startMods__I
00811460   xdc_runtime_System_printfExtend__I
008116c0   _ZNSt13basic_filebufIcSt11char_traitsIcEE5imbueERKSt6locale
00811900   _ZNSt13basic_filebufIwSt11char_traitsIwEE5imbueERKSt6locale
00811b40   __c6xabi_divull
00812200   ti_sysbios_family_c64p_Exception_internalHandler__I
00812440   xdc_runtime_Core_createObject__I
00812680   xdc_runtime_LoggerBuf_write8__E
00812ae0   fputc
00812d00   ti_sysbios_knl_Swi_run__I
00813120   ti_sysbios_family_c64p_Hwi_dispatchAlways
00813320   setvbuf
00813520   xdc_runtime_Error_policyDefault__E
00813720   _ZNKSt7num_putIcSt19ostreambuf_iteratorIcSt11char_traitsIcEEE6do_putES3_RSt8ios_basecb
00813900   _ZNKSt12_String_base5_XranEv
00813ac0   _ZNSt8ios_base4InitD1Ev
00813ac0   _ZNSt8ios_base4InitD2Ev
00813e40   ti_sysbios_knl_Task_checkStacks__E
00814000   xdc_runtime_Text_putSite__E
008141c0   HOSTrename
00814360   _Getctyptab
008146a0   _ZNKSt7codecvtIwciE5do_inERiPKcS3_RS3_PwS5_RS5_
00814840   _ZNSt13basic_filebufIcSt11char_traitsIcEE7seekoffElNSt5_IosbIiE8_SeekdirENS4_9_OpenmodeE
008149e0   _ZNSt13basic_filebufIwSt11char_traitsIwEE7seekoffElNSt5_IosbIiE8_SeekdirENS4_9_OpenmodeE
00814b80   __c6xabi_divul
00814d20   ti_sysbios_knl_Task_schedule__I
00814ec0   ti_sysbios_timers_timer64_Timer_start__E
00815060   xdc_runtime_LoggerBuf_write4__E
00815200   _ZNKSt5ctypeIwE10do_toupperEPwPKw
00815380   _ZNKSt7codecvtIwciE6do_outERiPKwS3_RS3_PcS5_RS5_
00815500   _ZNSt13basic_filebufIcSt11char_traitsIcEE7seekposESt4fposIiENSt5_IosbIiE9_OpenmodeE
00815680   _ZNSt13basic_filebufIwSt11char_traitsIwEE7seekposESt4fposIiENSt5_IosbIiE9_OpenmodeE
00815800   _ZSt9use_facetISt5ctypeIwEERKT_RKSt6locale
00815b00   _Z10freeMatrixP9cmatrix_t
00815b14   _Z12createMatrixP9cmatrix_ttt
00815b44   _Z16createZeroMatrixP9cmatrix_ttt
00815b74   _Z13reshapeMatrixP9cmatrix_ttt
00815ba4   _Z20reshapeAndCopyMatrixP9cmatrix_ttt
00815bd4   _Z14allocateMemoryj
00815bec   _Z10freeMemoryPvj
00815c0c   __sti___20_memoryManagement_cpp_bbe36996
00815c80   ti_sysbios_family_c64p_Exception_dispatch__E
00815e00   ti_sysbios_heaps_HeapMem_alloc__E
00815f80   ti_sysbios_knl_Semaphore_post__E
00816100   ti_sysbios_knl_Task_startCore__E
00816280   xdc_runtime_Core_constructObject__I
00816400   _ZNKSt12_String_base5_XlenEv
00816560   _ZNSt13basic_filebufIcSt11char_traitsIcEE9pbackfailEi
008166c0   _ZNSt13basic_filebufIcSt11char_traitsIcEED0Ev
00816820   _ZNSt13basic_filebufIwSt11char_traitsIwEE9pbackfailEj
00816980   _ZNSt13basic_filebufIwSt11char_traitsIwEED0Ev
00816ae0   _ZNSt9basic_iosIcSt11char_traitsIcEE4initEPSt15basic_streambufIcS1_Eb
00816c40   _ZNSt9basic_iosIwSt11char_traitsIwEE4initEPSt15basic_streambufIwS1_Eb
00816da0   frexpf
00816f00   ldexpf
00817060   _ZNSolsEb
008171a0   _ZNSolsEj
008172e0   _ZNSt13basic_filebufIcSt11char_traitsIcEE6setbufEPci
00817420   _ZNSt13basic_filebufIcSt11char_traitsIcEED1Ev
00817560   _ZNSt13basic_filebufIwSt11char_traitsIwEED1Ev
008176a0   _ZNSt6locale5_InitEv
008177e0   _ZNSt6locale7_LocimpD1Ev
008177e0   _ZNSt6locale7_LocimpD2Ev
00817920   _ZNSt8_LocinfoC1EPKc
00817920   _ZNSt8_LocinfoC2EPKc
00817a60   _ZNSt8numpunctIcE5_InitERKSt8_Locinfo
00817ba0   _auto_init_elf
00817e20   fgetc
008180a0   ti_sysbios_heaps_HeapMem_free__E
008181e0   ti_sysbios_knl_Swi_post__E
00818320   ti_sysbios_knl_Task_blockI__E
00818460   ungetc
008185a0   xdc_runtime_Text_putLab__E
008186e0   _ZNKSt5ctypeIwE5do_isEPKwS2_Ps
00818800   _ZNKSt5ctypeIwE9do_narrowEPKwS2_cPc
00818920   _ZNKSt7codecvtIwciE9do_lengthERKiPKcS4_j
00818a40   _ZNKSt7num_putIcSt19ostreambuf_iteratorIcSt11char_traitsIcEEE5_IfmtEPcPKcNSt5_IosbIiE9_FmtflagsE
00818b60   _ZNSt13basic_filebufIwSt11char_traitsIwEE6setbufEPwi
00818c80   _ZNSt15basic_streambufIwSt11char_traitsIwEE6xsgetnEPwi
00818da0   _ZNSt8_LocinfoD1Ev
00818da0   _ZNSt8_LocinfoD2Ev
00818ec0   _buff_read
00818fe0   _closefile
00819220   fseek
00819340   ftell
00819460   sqrtf
00819580   ti_sysbios_family_c64p_Hwi_Module_startup__E
008196a0   ti_sysbios_knl_Task_exit__E
008197c0   ti_sysbios_knl_Task_postInit__I
008198e0   xdc_runtime_LoggerBuf_setFilterLevel__E
00819a00   xdc_runtime_Text_putMod__E
00819b20   HOSTlseek
00819c20   _ZNKSt7num_putIcSt19ostreambuf_iteratorIcSt11char_traitsIcEEE5_FfmtEPccNSt5_IosbIiE9_FmtflagsE
00819d20   _ZNSs6appendERKSsjj
00819e20   _ZNSs6insertEjjc
00819f20   _ZNSt15basic_streambufIcSt11char_traitsIcEE6xsgetnEPci
0081a020   _ZNSt15basic_streambufIcSt11char_traitsIcEE6xsputnEPKci
0081a120   _ZNSt15basic_streambufIwSt11char_traitsIwEE6xsputnEPKwi
0081a220   _wrt_ok
0081a320   _Z21performUserSchedulingP14systemConfig_tP16downlinkConfig_t
0081a3ac   __sti___24_schedulingAlgorithms_cpp_fc6d3ca0
0081a420   ti_sysbios_knl_Swi_restoreHwi__E
0081a520   ti_sysbios_knl_Task_unblockI__E
0081a620   ti_sysbios_timers_timer64_Timer_initDevice__I
0081a720   xdc_runtime_Core_deleteObject__I
0081a820   xdc_runtime_LoggerBuf_getFilterLevel__E
0081a920   xdc_runtime_Startup_exec__E
0081aa20   xdc_runtime_Text_visitRope2__I
0081ab20   HOSTopen
0081ac00   HOSTread
0081ace0   _Fac_tidy
0081adc0   _ZNSs5_CopyEjj
0081aea0   _ZNSs5eraseEjj
0081af80   _ZNSs6assignERKSsjj
0081b060   __c6xabi_divi
0081b060   __divi
0081b220   atoi
0081b300   close
0081b3e0   __TI_zero_init
0081b4c0   fflush
0081b5a0   ltoa
0081b680   memset
0081b760   printf
0081b840   ti_sysbios_knl_Swi_runLoop__I
0081b920   ti_sysbios_knl_Task_Module_startup__E
0081ba00   ti_sysbios_knl_Clock_TimerProxy_startup__E
0081ba00   ti_sysbios_timers_timer64_Timer_startup__E
0081bae0   xdc_runtime_Error_print__E
0081bbc0   xdc_runtime_Memory_alloc__E
0081bca0   HOSTunlink
0081bd60   HOSTwrite
0081bee0   _ZNKSt5ctypeIwE10do_tolowerEPwPKw
0081bfa0   _ZNKSt7codecvtIwciE10do_unshiftERiPcS2_RS2_
0081c060   _ZNKSt7num_putIcSt19ostreambuf_iteratorIcSt11char_traitsIcEEE11_PutgroupedES3_PKcjc
0081c120   _ZNSo3putEc
0081c1e0   _ZNSs5_GrowEjb
0081c2a0   _ZNSs6appendEPKcj
0081c360   _ZNSt13basic_filebufIcSt11char_traitsIcEE5_InitEPSt4FILENS2_7_InitflE
0081c420   _ZNSt6locale7_LocimpC1Eb
0081c420   _ZNSt6locale7_LocimpC2Eb
0081c4e0   _ZNSt8ios_baseD1Ev
0081c4e0   _ZNSt8ios_baseD2Ev
0081c5a0   _ZSt9use_facetISt5ctypeIcEERKT_RKSt6locale
0081c660   _ZSt9use_facetISt7num_putIcSt19ostreambuf_iteratorIcSt11char_traitsIcEEEERKT_RKSt6locale
0081c720   _ZSt9use_facetISt8numpunctIcEERKT_RKSt6locale
0081c7e0   __cxa_finalize
0081c8a0   __c6xabi_divu
0081c8a0   __divu
0081c960   __c6xabi_remi
0081c960   __remi
0081ca20   _doflush
0081cae0   _rd_ok
0081cba0   exit
0081cba0   xdc_runtime_System_exitStd__E
0081cc60   __sti___22_globalDeclarations_cpp_286f88f8
0081cd20   main
0081cd48   clockISRA
0081cd78   clockISRB
0081cdac   clockISRC
0081cde0   ti_sysbios_heaps_HeapMem_getStats__E
0081cea0   ti_sysbios_knl_Clock_logTick__E
0081cf60   ti_sysbios_knl_Swi_schedule__I
0081d020   ti_sysbios_knl_Task_allBlockedFunction__I
0081d0e0   ti_sysbios_timers_timer64_Timer_stop__E
0081d1a0   xdc_runtime_Error_setX__E
0081d260   xdc_runtime_LoggerBuf_Instance_init__E
0081d320   xdc_runtime_LoggerBuf_Object__create__S
0081d3e0   xdc_runtime_System_formatNum__I
0081d4a0   HOSTclose
0081d540   _Setgloballocale
0081d5e0   _ZNKSt5ctypeIwE8do_widenEPKcS2_Pw
0081d680   _ZNKSt7num_putIcSt19ostreambuf_iteratorIcSt11char_traitsIcEEE6do_putES3_RSt8ios_basecPKv
0081d720   _ZNSo12_Sentry_baseC1ERSo
0081d7c0   _ZNSo6sentryC1ERSo
0081d860   _ZNSt11logic_errorD1Ev
0081d900   _ZNSt12length_errorD1Ev
0081d9a0   _ZNSt12out_of_rangeC1ERKSs
0081da40   _ZNSt12out_of_rangeD1Ev
0081dae0   _ZNSt13_Complex_baseIfSt16_C_float_complexE4_MulIfEEvRKSt7complexIT_E
0081db80   _ZNSt13basic_filebufIcSt11char_traitsIcEE9underflowEv
0081dc20   _ZNSt13basic_filebufIwSt11char_traitsIwEE9underflowEv
0081dcc0   _ZNSt13runtime_errorD1Ev
0081dd60   _ZNSt5ctypeIcEC1EPKsbj
0081de00   _ZNSt8ios_base5_InitEv
0081dea0   _ZNSt8ios_base5_TidyEv
0081df40   _ZNSt8ios_base7failureD1Ev
0081dfe0   _Znaj
0081dfe0   _Znwj
0081e080   __c6xabi_remu
0081e080   __remu
0081e120   _c_int00
0081e1c0   _cleanup
0081e4e0   lseek
0081e580   memcpy
0081e620   read
0081e6c0   ti_sysbios_family_c64p_Exception_Module_startup__E
0081e760   ti_sysbios_heaps_HeapMem_init__I
0081e800   write
0081e8a0   xdc_runtime_Assert_raise__I
0081e940   xdc_runtime_LoggerBuf_Module_startup__E
0081e9e0   xdc_runtime_SysMin_abort__E
0081e9e0   xdc_runtime_System_SupportProxy_abort__E
0081ea80   xdc_runtime_SysMin_flush__E
0081ea80   xdc_runtime_System_SupportProxy_flush__E
0081ea80   xdc_runtime_System_flush__E
0081eb20   xdc_runtime_SysMin_putch__E
0081eb20   xdc_runtime_System_SupportProxy_putch__E
0081ebc0   xdc_runtime_Text_xprintf__I
0081ec60   _ZNKSt5ctypeIwE10do_scan_isEsPKwS2_
0081ece0   _ZNKSt5ctypeIwE10do_tolowerEw
0081ed60   _ZNKSt5ctypeIwE11do_scan_notEsPKwS2_
0081ede0   _ZNKSt6locale9_GetfacetEj
0081ee60   _ZNKSt7num_putIcSt19ostreambuf_iteratorIcSt11char_traitsIcEEE5_PutcES3_PKcj
0081eee0   _ZNKSt7num_putIcSt19ostreambuf_iteratorIcSt11char_traitsIcEEE6do_putES3_RSt8ios_basecl
0081ef60   _ZNKSt7num_putIcSt19ostreambuf_iteratorIcSt11char_traitsIcEEE6do_putES3_RSt8ios_basecm
0081efe0   _ZNKSt7num_putIcSt19ostreambuf_iteratorIcSt11char_traitsIcEEE6do_putES3_RSt8ios_basecx
0081f060   _ZNKSt7num_putIcSt19ostreambuf_iteratorIcSt11char_traitsIcEEE6do_putES3_RSt8ios_basecy
0081f0e0   _ZNKSt9exception6_RaiseEv
0081f160   _ZNSo12_Sentry_baseD1Ev
0081f1e0   _ZNSo5flushEv
0081f260   _ZNSs5_TidyEbj
0081f2e0   _ZNSs6appendEjc
0081f360   _ZNSs6assignEPKcj
0081f3e0   _ZNSt11logic_errorC2ERKSs
0081f460   _ZNSt11logic_errorD0Ev
0081f4e0   _ZNSt12length_errorD0Ev
0081f560   _ZNSt12out_of_rangeD0Ev
0081f5e0   _ZNSt13basic_filebufIcSt11char_traitsIcEE4syncEv
0081f660   _ZNSt13basic_filebufIwSt11char_traitsIwEE4syncEv
0081f6e0   _ZNSt13runtime_errorD0Ev
0081f760   _ZNSt15basic_streambufIcSt11char_traitsIcEE5sputcEc
0081f7e0   _ZNSt19ostreambuf_iteratorIcSt11char_traitsIcEEaSEc
0081f860   _ZNSt6locale5facet9_RegisterEv
0081f8e0   _ZNSt8ios_base7_AddstdEv
0081f960   _ZNSt8ios_base7failureD0Ev
0081f9e0   _ZNSt8ios_base8_CallfnsENS_5eventE
0081fa60   _ZSt10_MaklocstrIcEPT_PKcS1_RKSt7_Cvtvec
0081fae0   _ZSt14_Debug_messagePKcS0_
0081fb60   __c6xabi_fixfu
0081fbe0   __c6xabi_llshl
0081fc60   __c6xabi_roundf
0081fce0   ti_sysbios_family_c62_TaskSupport_swap__E
0081fce0   ti_sysbios_knl_Task_SupportProxy_swap__E
0081fd60   malloc
0081fde0   memchr
0081fe60   rand
0081fee0   readmsg
0081ff60   ti_sysbios_family_c62_TaskSupport_start__E
0081ff60   ti_sysbios_knl_Task_SupportProxy_start__E
0081ffe0   ti_sysbios_family_c64p_Hwi_eventMap__E
00820060   ti_sysbios_family_c64p_Hwi_getStackInfo__E
00820060   ti_sysbios_hal_Hwi_HwiProxy_getStackInfo__E
00820060   ti_sysbios_hal_Hwi_getStackInfo__E
008200e0   ti_sysbios_family_c66_Cache_all__I
00820160   ti_sysbios_gates_GateMutex_enter__E
008201e0   ti_sysbios_hal_Hwi_checkStack
00820260   ti_sysbios_hal_Hwi_initStack
008202e0   ti_sysbios_heaps_HeapMem_Instance_init__E
00820360   ti_sysbios_knl_Idle_run__E
008203e0   ti_sysbios_knl_Swi_restore__E
00820460   ti_sysbios_knl_Task_restoreHwi__E
008204e0   ti_sysbios_knl_Task_restore__E
00820560   remove
00820560   unlink
008205e0   wmemcpy
00820660   xdc_runtime_Core_assignLabel__I
008206e0   xdc_runtime_Core_assignParams__I
00820760   xdc_runtime_LoggerBuf_filterOutEvent__I
008207e0   xdc_runtime_System_atexit__E
00820860   xdc_runtime_System_processAtExit__E
008208e0   xdc_runtime_System_putchar__I
00820960   xdc_runtime_Text_printVisFxn__I
008209e0   _Deletegloballocale
00820a40   _FDtest
00820aa0   _ZNKSt5ctypeIcE10do_tolowerEPcPKc
00820b00   _ZNKSt5ctypeIcE10do_toupperEPcPKc
00820b60   _ZNKSt5ctypeIwE10do_toupperEw
00820bc0   _ZNKSt7num_putIcSt19ostreambuf_iteratorIcSt11char_traitsIcEEE4_PutES3_PKcj
00820c20   _ZNKSt7num_putIcSt19ostreambuf_iteratorIcSt11char_traitsIcEEE4_RepES3_cj
00820c80   _ZNKSt9basic_iosIcSt11char_traitsIcEE5widenEc
00820ce0   _ZNSiD0Ev
00820d40   _ZNSoD0Ev
00820da0   _ZNSs7_InsideEPKc
00820e00   _ZNSs9_ChassignEjjc
00820e60   _ZNSt13_Complex_baseIfSt16_C_float_complexE4_AddIfEEvRKSt7complexIT_E
00820ec0   _ZNSt13_Complex_baseIfSt16_C_float_complexE4_SubIfEEvRKSt7complexIT_E
00820f20   _ZNSt13basic_istreamIwSt11char_traitsIwEED0Ev
00820f80   _ZNSt13basic_ostreamIwSt11char_traitsIwEED0Ev
00820fe0   _ZNSt15basic_streambufIcSt11char_traitsIcEE5_InitEv
00821040   _ZNSt15basic_streambufIcSt11char_traitsIcEE5uflowEv
008210a0   _ZNSt15basic_streambufIcSt11char_traitsIcEE7seekoffElNSt5_IosbIiE8_SeekdirENS4_9_OpenmodeE
00821100   _ZNSt15basic_streambufIcSt11char_traitsIcEE7seekposESt4fposIiENSt5_IosbIiE9_OpenmodeE
00821160   _ZNSt15basic_streambufIcSt11char_traitsIcEED0Ev
008211c0   _ZNSt15basic_streambufIcSt11char_traitsIcEED1Ev
00821220   _ZNSt15basic_streambufIwSt11char_traitsIwEE5_InitEv
00821280   _ZNSt15basic_streambufIwSt11char_traitsIwEE5uflowEv
008212e0   _ZNSt15basic_streambufIwSt11char_traitsIwEE7seekoffElNSt5_IosbIiE8_SeekdirENS4_9_OpenmodeE
00821340   _ZNSt15basic_streambufIwSt11char_traitsIwEE7seekposESt4fposIiENSt5_IosbIiE9_OpenmodeE
008213a0   _ZNSt15basic_streambufIwSt11char_traitsIwEED0Ev
00821400   _ZNSt15basic_streambufIwSt11char_traitsIwEED1Ev
00821460   _ZNSt5ctypeIcE7_GetcatEPPKNSt6locale5facetE
008214c0   _ZNSt5ctypeIwED0Ev
00821520   _ZNSt5ctypeIwED1Ev
00821580   _ZNSt6locale2idcvjEv
008215e0   _ZNSt6locale5facet7_DecrefEv
00821640   _ZNSt6locale7_LocimpD0Ev
008216a0   _ZNSt6localeC1Ev
008216a0   _ZNSt6localeC2Ev
00821700   _ZNSt7complexIfEdVERKf
00821760   _ZNSt7num_putIcSt19ostreambuf_iteratorIcSt11char_traitsIcEEEC1Ej
008217c0   _ZNSt8ios_baseD0Ev
00821820   _ZNSt8numpunctIcEC1Ej
00821880   _ZNSt9basic_iosIcSt11char_traitsIcEED0Ev
008218e0   _ZNSt9basic_iosIwSt11char_traitsIwEED0Ev
00821940   _ZSt4conjIfESt7complexIT_ERKS2_
008219a0   _ZStdvIfESt7complexIT_ERKS2_RKS1_
00821a00   _ZTv0_n12_NSiD0Ev
00821a60   _ZTv0_n12_NSoD0Ev
00821ac0   _ZTv0_n12_NSt13basic_istreamIwSt11char_traitsIwEED0Ev
00821b20   _ZTv0_n12_NSt13basic_ostreamIwSt11char_traitsIwEED0Ev
00821b80   __c6xabi_frcmpyd_div
00821be0   __c6xabi_llshru
00821c40   __cxa_vec_ctor
00821ca0   __cxa_vec_new
00821d00   _subcull
00821d60   ti_sysbios_family_c64p_Hwi_switchAndDispatch__I
00821dc0   ti_sysbios_family_xxx_Hwi_switchAndRunFunc
00821e20   calloc
00821e80   fclose
00821ee0   fgetpos
00821f40   memccpy
00821fa0   memmove
00822000   modff
00822060   setlocale
008220c0   sprintf
00822120   strcspn
00822180   ti_sysbios_BIOS_atExitFunc__I
008221e0   ti_sysbios_BIOS_errorRaiseHook__I
00822240   ti_sysbios_BIOS_registerRTSLock__I
008222a0   ti_sysbios_BIOS_removeRTSLock__I
00822300   ti_sysbios_BIOS_rtsUnlock__I
00822360   ti_sysbios_family_c66_Cache_Module_startup__E
008223c0   ti_sysbios_family_c66_Cache_setSize__E
00822420   ti_sysbios_gates_GateHwi_Object__create__S
00822480   ti_sysbios_gates_GateMutex_Object__create__S
008224e0   ti_sysbios_heaps_HeapMem_Object__create__S
00822540   ti_sysbios_knl_Clock_Module_startup__E
008225a0   ti_sysbios_knl_Clock_doTick__I
00822600   ti_sysbios_knl_Queue_construct
00822660   ti_sysbios_knl_Semaphore_Instance_init__E
008226c0   ti_sysbios_knl_Semaphore_construct
00822720   ti_sysbios_knl_Semaphore_pendTimeout__I
00822780   ti_sysbios_knl_Swi_Module_startup__E
008227e0   ti_sysbios_knl_Task_enter__I
00822840   ti_sysbios_knl_Task_processVitalTaskFlag__I
008228a0   ungetwc
00822900   writemsg
00822958   C$$IO$$
00822960   xdc_runtime_Memory_calloc__E
008229c0   xdc_runtime_SysMin_Module_startup__E
00822a20   xdc_runtime_SysMin_exit__E
00822a20   xdc_runtime_System_SupportProxy_exit__E
00822a80   xdc_runtime_SysMin_output__I
00822ae0   xdc_runtime_System_aprintf_va__E
00822ae0   xdc_runtime_System_aprintf_va__F
00822ae0   xdc_runtime_System_avprintf__E
00822b40   xdc_runtime_System_printf_va__E
00822b40   xdc_runtime_System_printf_va__F
00822b40   xdc_runtime_System_vprintf__E
00822ba0   xdc_runtime_Text_cordText__E
00822c00   _ZNKSs6_MyptrEv
00822c40   _ZNKSs8max_sizeEv
00822c80   _ZNKSt15basic_streambufIcSt11char_traitsIcEE8_PnavailEv
00822cc0   _ZNKSt5ctypeIcE10do_tolowerEc
00822d00   _ZNKSt5ctypeIcE10do_toupperEc
00822d40   _ZNKSt5ctypeIcE5widenEc
00822d80   _ZNKSt5ctypeIcE8do_widenEPKcS2_Pc
00822dc0   _ZNKSt5ctypeIcE9do_narrowEPKcS2_cPc
00822e00   _ZNKSt5ctypeIwE5do_isEsw
00822e40   _ZNKSt5ctypeIwE8do_widenEc
00822e80   _ZNKSt5ctypeIwE9do_narrowEwc
00822ec0   _ZNKSt7num_putIcSt19ostreambuf_iteratorIcSt11char_traitsIcEEE3putES3_RSt8ios_basecb
00822f00   _ZNKSt7num_putIcSt19ostreambuf_iteratorIcSt11char_traitsIcEEE3putES3_RSt8ios_basecm
00822f40   _ZNKSt8_Locinfo7_GetcvtEv
00822f80   _ZNKSt8_Locinfo9_GetctypeEv
00822fc0   _ZNKSt8numpunctIcE8groupingEv
00823000   _ZNKSt8numpunctIcE8truenameEv
00823040   _ZNKSt8numpunctIcE9falsenameEv
00823080   _ZNSiD1Ev
008230c0   _ZNSo5_OsfxEv
00823100   _ZNSoD1Ev
00823140   _ZNSs4_EosEj
00823180   _ZNSs6_MyptrEv
008231c0   _ZNSs6assignEPKc
00823200   _ZNSsC1EPKc
00823240   _ZNSsC1Ev
00823280   _ZNSt10ctype_baseC1Ej
008232c0   _ZNSt11char_traitsIcE6assignEPcjc
00823300   _ZNSt13_Complex_baseIfSt16_C_float_complexEC1ERKfS3_
00823340   _ZNSt13basic_istreamIwSt11char_traitsIwEED1Ev
00823380   _ZNSt13basic_ostreamIwSt11char_traitsIwEED1Ev
008233c0   _ZNSt15basic_streambufIcSt11char_traitsIcEE5sputnEPKci
00823400   _ZNSt19ostreambuf_iteratorIcSt11char_traitsIcEEC1EPSt15basic_streambufIcS1_E
00823440   _ZNSt5ctypeIcE5_TidyEv
00823480   _ZNSt5ctypeIcED1Ev
008234c0   _ZNSt6locale5facet7_IncrefEv
00823500   _ZNSt6locale5facetC1Ej
00823540   _ZNSt6localeC1ERKS_
00823580   _ZNSt6localeD1Ev
008235c0   _ZNSt7complexIfEaSERKf
00823600   _ZNSt7num_putIcSt19ostreambuf_iteratorIcSt11char_traitsIcEEE7_GetcatEPPKNSt6locale5facetE
00823640   _ZNSt8ios_base5widthEi
00823680   _ZNSt8numpunctIcE5_TidyEv
008236c0   _ZNSt8numpunctIcE7_GetcatEPPKNSt6locale5facetE
00823700   _ZNSt8numpunctIcED1Ev
00823740   _ZNSt9basic_iosIcSt11char_traitsIcEE5clearENSt5_IosbIiE8_IostateEb
00823780   _ZNSt9basic_iosIcSt11char_traitsIcEE8setstateENSt5_IosbIiE8_IostateEb
008237c0   _ZSt3absIfET_RKSt7complexIS0_E
00823800   _ZSt3absf
00823840   _ZSt3powff
00823880   _ZSt4endlIcSt11char_traitsIcEERSt13basic_ostreamIT_T0_ES6_
008238c0   _ZSt6_ThrowRKSt9exception
00823900   _ZStdvIfESt7complexIT_ERKS1_RKS2_
00823940   _ZStdvIfESt7complexIT_ERKS2_S4_
00823980   _ZStmiIfESt7complexIT_ERKS2_S4_
008239c0   _ZStmlIfESt7complexIT_ERKS1_RKS2_
00823a00   _ZStmlIfESt7complexIT_ERKS2_S4_
00823a40   _ZStoRRNSt5_IosbIiE8_IostateES1_
00823a80   _ZStplIfESt7complexIT_ERKS2_S4_
00823ac0   _ZTv0_n12_NSiD1Ev
00823b00   _ZTv0_n12_NSoD1Ev
00823b40   _ZTv0_n12_NSt13basic_istreamIwSt11char_traitsIwEED1Ev
00823b80   _ZTv0_n12_NSt13basic_ostreamIwSt11char_traitsIwEED1Ev
00823bc0   __c6xabi_isinf
00823c40   __sti___11_locale0_cpp_36e19383
00823c80   _args_main
00823d00   ti_sysbios_family_c62_TaskSupport_buildTaskStack
00823d40   free
00823d80   mbrtowc
00823dc0   mbtowc
00823e00   strcmp
00823e40   strlen
00823e80   ti_sysbios_BIOS_exitFunc__I
00823ec0   ti_sysbios_BIOS_rtsLock__I
00823f00   ti_sysbios_BIOS_startFunc__I
00823f40   ti_sysbios_family_c64p_Hwi_Module__startupDone__F
00823f40   ti_sysbios_family_c64p_Hwi_Module__startupDone__S
00823f80   ti_sysbios_family_c64p_Hwi_disableInterrupt__E
00823f80   ti_sysbios_hal_Hwi_HwiProxy_disableInterrupt__E
00823f80   ti_sysbios_hal_Hwi_disableInterrupt__E
00823fc0   ti_sysbios_family_c64p_Hwi_dispatchC__I
00824000   ti_sysbios_family_c64p_Hwi_enableInterrupt__E
00824000   ti_sysbios_hal_Hwi_HwiProxy_enableInterrupt__E
00824000   ti_sysbios_hal_Hwi_enableInterrupt__E
00824040   ti_sysbios_gates_GateHwi_Handle__label__S
00824080   ti_sysbios_gates_GateHwi_Object__delete__S
008240c0   ti_sysbios_gates_GateMutex_Handle__label__S
00824100   ti_sysbios_gates_GateMutex_Instance_init__E
00824140   ti_sysbios_gates_GateMutex_Object__delete__S
00824180   ti_sysbios_gates_GateMutex_leave__E
008241c0   ti_sysbios_heaps_HeapMem_Handle__label__S
00824200   ti_sysbios_heaps_HeapMem_Object__delete__S
00824240   ti_sysbios_heaps_HeapMem_Object__get__S
00824280   ti_sysbios_knl_Queue_Object__destruct__S
008242c0   ti_sysbios_knl_Queue_put__E
00824300   ti_sysbios_knl_Semaphore_Object__destruct__S
00824340   ti_sysbios_knl_Swi_Object__get__S
00824380   ti_sysbios_knl_Task_Object__get__S
008243c0   ti_sysbios_timers_timer64_Timer_Module__startupDone__F
008243c0   ti_sysbios_timers_timer64_Timer_Module__startupDone__S
00824400   wcrtomb
00824440   xdc_runtime_Error_check__E
00824480   xdc_runtime_Error_init__E
008244c0   xdc_runtime_Error_raiseX__E
00824500   xdc_runtime_Gate_leaveSystem__E
00824540   xdc_runtime_LoggerBuf_Handle__label__S
00824580   xdc_runtime_LoggerBuf_Instance_finalize__E
008245c0   xdc_runtime_LoggerBuf_Object__delete__S
00824600   xdc_runtime_LoggerBuf_Object__get__S
00824640   xdc_runtime_LoggerBuf_write0__E
00824680   xdc_runtime_LoggerBuf_write1__E
008246c0   xdc_runtime_LoggerBuf_write2__E
00824700   xdc_runtime_Memory_free__E
00824740   xdc_runtime_Registry_findById__E
00824780   xdc_runtime_System_abort__E
008247c0   xdc_runtime_System_aprintf__E
00824800   xdc_runtime_System_exit__E
00824840   xdc_runtime_System_printf__E
00824880   xdc_runtime_Text_ropeText__E
008248c0   _Atexit
008248e0   _Getgloballocale
00824900   _Z21__default_new_handlerv
00824920   _ZN10__cxxabiv117__class_type_infoD0Ev
00824940   _ZN10__cxxabiv117__class_type_infoD1Ev
00824940   _ZN10__cxxabiv117__class_type_infoD2Ev
00824960   _ZN10__cxxabiv120__si_class_type_infoD0Ev
00824980   _ZN10__cxxabiv120__si_class_type_infoD1Ev
00824980   _ZN10__cxxabiv120__si_class_type_infoD2Ev
008249a0   _ZN10__cxxabiv121__vmi_class_type_infoD0Ev
008249c0   _ZN10__cxxabiv121__vmi_class_type_infoD1Ev
008249c0   _ZN10__cxxabiv121__vmi_class_type_infoD2Ev
008249e0   _ZNKSaIcE8max_sizeEv
00824a00   _ZNKSo6sentrycvbEv
00824a20   _ZNKSs4sizeEv
00824a40   _ZNKSs5c_strEv
00824a60   _ZNKSt11logic_error4whatEv
00824a80   _ZNKSt11logic_error8_DoraiseEv
00824aa0   _ZNKSt12codecvt_base11do_encodingEv
00824ac0   _ZNKSt12codecvt_base13do_max_lengthEv
00824ae0   _ZNKSt12codecvt_base16do_always_noconvEv
00824b00   _ZNKSt12length_error8_DoraiseEv
00824b20   _ZNKSt12out_of_range8_DoraiseEv
00824b40   _ZNKSt13_Complex_baseIfSt16_C_float_complexE4imagEv
00824b60   _ZNKSt13_Complex_baseIfSt16_C_float_complexE4realEv
00824b80   _ZNKSt13runtime_error4whatEv
00824ba0   _ZNKSt13runtime_error8_DoraiseEv
00824bc0   _ZNKSt19ostreambuf_iteratorIcSt11char_traitsIcEE6failedEv
00824be0   _ZNKSt5ctypeIcE8do_widenEc
00824c00   _ZNKSt5ctypeIcE9do_narrowEcc
00824c20   _ZNKSt5ctypeIwE2isEsw
00824c40   _ZNKSt5ctypeIwE5widenEc
00824c60   _ZNKSt5ctypeIwE6narrowEwc
00824c80   _ZNKSt7codecvtIcciE10do_unshiftERiPcS2_RS2_
00824ca0   _ZNKSt7codecvtIcciE5do_inERiPKcS3_RS3_PcS5_RS5_
00824cc0   _ZNKSt7codecvtIcciE6do_outERiPKcS3_RS3_PcS5_RS5_
00824ce0   _ZNKSt7codecvtIcciE9do_lengthERKiPKcS4_j
00824d00   _ZNKSt7codecvtIwciE11do_encodingEv
00824d20   _ZNKSt7codecvtIwciE13do_max_lengthEv
00824d40   _ZNKSt7codecvtIwciE16do_always_noconvEv
00824d60   _ZNKSt8_Locinfo8_GettrueEv
00824d80   _ZNKSt8_Locinfo9_GetfalseEv
00824da0   _ZNKSt8_Locinfo9_GetlconvEv
00824dc0   _ZNKSt8ios_base4failEv
00824de0   _ZNKSt8ios_base4goodEv
00824e00   _ZNKSt8ios_base5flagsEv
00824e20   _ZNKSt8ios_base5widthEv
00824e40   _ZNKSt8ios_base6getlocEv
00824e60   _ZNKSt8ios_base7failure8_DoraiseEv
00824e80   _ZNKSt8ios_base7rdstateEv
00824ea0   _ZNKSt8ios_base9precisionEv
00824ec0   _ZNKSt8numpunctIcE11do_groupingEv
00824ee0   _ZNKSt8numpunctIcE11do_truenameEv
00824f00   _ZNKSt8numpunctIcE12do_falsenameEv
00824f20   _ZNKSt8numpunctIcE13decimal_pointEv
00824f40   _ZNKSt8numpunctIcE13thousands_sepEv
00824f60   _ZNKSt8numpunctIcE16do_decimal_pointEv
00824f80   _ZNKSt8numpunctIcE16do_thousands_sepEv
00824fa0   _ZNKSt9basic_iosIcSt11char_traitsIcEE3tieEv
00824fc0   _ZNKSt9basic_iosIcSt11char_traitsIcEE4fillEv
00824fe0   _ZNKSt9basic_iosIcSt11char_traitsIcEE5rdbufEv
00825000   _ZNKSt9exception4whatEv
00825020   _ZNKSt9exception8_DoraiseEv
00825040   _ZNSaIcE10deallocateEPcj
00825060   _ZNSaIcE8allocateEj
00825080   _ZNSaIcEC1ERKS_
008250a0   _ZNSaIcEC1Ev
008250c0   _ZNSo12_Sentry_baseC2ERSo
008250e0   _ZNSo12_Sentry_baseD2Ev
00825100   _ZNSo6sentryD1Ev
00825120   _ZNSolsEPFRSoS_E
00825140   _ZNSs6assignERKSs
00825160   _ZNSsD1Ev
00825180   _ZNSsixEj
008251a0   _ZNSt10ctype_baseC2Ej
008251c0   _ZNSt10ctype_baseD0Ev
008251e0   _ZNSt10ctype_baseD1Ev
00825200   _ZNSt10ctype_baseD2Ev
00825220   _ZNSt11_String_valIcSaIcEEC1ES0_
00825240   _ZNSt11_String_valIcSaIcEEC2ES0_
00825260   _ZNSt11char_traitsIcE11eq_int_typeERKiS2_
00825280   _ZNSt11char_traitsIcE11to_int_typeERKc
008252a0   _ZNSt11char_traitsIcE3eofEv
008252c0   _ZNSt11char_traitsIcE4copyEPcPKcj
008252e0   _ZNSt11char_traitsIcE4moveEPcPKcj
00825300   _ZNSt11char_traitsIcE6assignERcRKc
00825320   _ZNSt11char_traitsIcE6lengthEPKc
00825340   _ZNSt12codecvt_baseD0Ev
00825360   _ZNSt12codecvt_baseD1Ev
00825380   _ZNSt13_Complex_baseIfSt16_C_float_complexE4imagERKf
008253a0   _ZNSt13_Complex_baseIfSt16_C_float_complexE4realERKf
008253c0   _ZNSt13_Complex_baseIfSt16_C_float_complexEC2ERKfS3_
008253e0   _ZNSt15basic_streambufIcSt11char_traitsIcEE4syncEv
00825400   _ZNSt15basic_streambufIcSt11char_traitsIcEE5_LockEv
00825420   _ZNSt15basic_streambufIcSt11char_traitsIcEE5imbueERKSt6locale
00825440   _ZNSt15basic_streambufIcSt11char_traitsIcEE6_PnincEv
00825460   _ZNSt15basic_streambufIcSt11char_traitsIcEE6setbufEPci
00825480   _ZNSt15basic_streambufIcSt11char_traitsIcEE7_UnlockEv
008254a0   _ZNSt15basic_streambufIcSt11char_traitsIcEE7pubsyncEv
008254c0   _ZNSt15basic_streambufIcSt11char_traitsIcEE8overflowEi
008254e0   _ZNSt15basic_streambufIcSt11char_traitsIcEE9pbackfailEi
00825500   _ZNSt15basic_streambufIcSt11char_traitsIcEE9showmanycEv
00825520   _ZNSt15basic_streambufIcSt11char_traitsIcEE9underflowEv
00825540   _ZNSt15basic_streambufIwSt11char_traitsIwEE4syncEv
00825560   _ZNSt15basic_streambufIwSt11char_traitsIwEE5_LockEv
00825580   _ZNSt15basic_streambufIwSt11char_traitsIwEE5imbueERKSt6locale
008255a0   _ZNSt15basic_streambufIwSt11char_traitsIwEE6setbufEPwi
008255c0   _ZNSt15basic_streambufIwSt11char_traitsIwEE7_UnlockEv
008255e0   _ZNSt15basic_streambufIwSt11char_traitsIwEE8overflowEj
00825600   _ZNSt15basic_streambufIwSt11char_traitsIwEE9pbackfailEj
00825620   _ZNSt15basic_streambufIwSt11char_traitsIwEE9showmanycEv
00825640   _ZNSt15basic_streambufIwSt11char_traitsIwEE9underflowEv
00825660   _ZNSt19ostreambuf_iteratorIcSt11char_traitsIcEEdeEv
00825680   _ZNSt19ostreambuf_iteratorIcSt11char_traitsIcEEppEv
008256a0   _ZNSt5ctypeIcE5_InitERKSt8_Locinfo
008256c0   _ZNSt5ctypeIcED0Ev
008256e0   _ZNSt6locale2idC1Ej
00825700   _ZNSt6locale5facetC2Ej
00825720   _ZNSt6locale5facetD0Ev
00825740   _ZNSt6locale5facetD1Ev
00825760   _ZNSt6locale5facetD2Ev
00825780   _ZNSt7_LockitC1Ei
008257a0   _ZNSt7_LockitD1Ev
008257c0   _ZNSt7codecvtIcciED0Ev
008257e0   _ZNSt7codecvtIcciED1Ev
00825800   _ZNSt7codecvtIwciED0Ev
00825820   _ZNSt7codecvtIwciED1Ev
00825840   _ZNSt7complexIfEC1ERKS0_
00825860   _ZNSt7complexIfEC1ERKfS2_
00825880   _ZNSt7complexIfEdVIfEERS0_RKS_IT_E
008258a0   _ZNSt7complexIfEmIIfEERS0_RKS_IT_E
008258c0   _ZNSt7complexIfEmLIfEERS0_RKS_IT_E
008258e0   _ZNSt7complexIfEpLIfEERS0_RKS_IT_E
00825900   _ZNSt7num_putIcSt19ostreambuf_iteratorIcSt11char_traitsIcEEE5_InitERKSt8_Locinfo
00825920   _ZNSt7num_putIcSt19ostreambuf_iteratorIcSt11char_traitsIcEEED0Ev
00825940   _ZNSt7num_putIcSt19ostreambuf_iteratorIcSt11char_traitsIcEEED1Ev
00825960   _ZNSt8_CtraitsIfE4sqrtEf
00825980   _ZNSt8_CtraitsIfE5_InfvEf
008259a0   _ZNSt8_CtraitsIfE5_NanvEf
008259c0   _ZNSt8_CtraitsIfE5ldexpEfi
008259e0   _ZNSt8_CtraitsIfE6_IsinfEf
00825a00   _ZNSt8_CtraitsIfE6_IsnanEf
00825a20   _ZNSt8numpunctIcED0Ev
00825a40   _ZNSt9basic_iosIcSt11char_traitsIcEED1Ev
00825a60   _ZNSt9basic_iosIwSt11char_traitsIwEED1Ev
00825a80   _ZNSt9exceptionD0Ev
00825aa0   _ZNSt9exceptionD1Ev
00825ac0   _ZSt10_MaklocchrIcET_cPS0_RKSt7_Cvtvec
00825b00   _ZSt4imagIfET_RKSt7complexIS0_E
00825b20   _ZSt4realIfET_RKSt7complexIS0_E
00825b40   _ZSt4sqrtf
00825b60   _ZSt8_ToloweriPKSt9_Ctypevec
00825b80   _ZSt8_ToupperiPKSt9_Ctypevec
00825ba0   _ZSt9_AllocateIcEPT_jS1_
00825bc0   _ZStanNSt5_IosbIiE9_FmtflagsES1_
00825be0   _ZdaPv
00825be0   _ZdlPv
00825c00   _ZnwjPv
00825c20   __c6xabi_errno_addr
00825c40   __c6xabi_negll
00825c60   __c6xabi_truncf
00825c80   __cxa_atexit
00825ca0   __cxa_guard_acquire
00825cc0   __cxa_guard_release
00825ce0   __cxa_ia64_exit
00825d00   __memzero
00825d20   __xdc__init
00825d40   _nop
00825dc0   _register_lock
00825de0   _register_unlock
00825e00   ti_sysbios_family_c62_TaskSupport_glue
00825e20   C$$EXIT
00825e20   abort
00825e20   xdc_runtime_System_abortStd__E
00825e40   atexit
00825e60   __TI_decompress_none
00825e80   __TI_decompress_rle24
00825ea0   fgetwc
00825ec0   fputwc
00825ee0   fsetpos
00825f00   localeconv
00825f20   ti_sysbios_BIOS_RtsGateProxy_enter__E
00825f40   ti_sysbios_BIOS_RtsGateProxy_leave__E
00825f60   ti_sysbios_BIOS_exit__E
00825f80   ti_sysbios_BIOS_nullFunc__I
00825fa0   ti_sysbios_BIOS_setThreadType__E
00825fc0   ti_sysbios_BIOS_start__E
00825fe0   ti_sysbios_family_c62_TaskSupport_Module__startupDone__S
00826000   ti_sysbios_family_c62_TaskSupport_checkStack__E
00826000   ti_sysbios_knl_Task_SupportProxy_checkStack__E
00826020   ti_sysbios_family_c64p_Hwi_clearInterrupt__E
00826020   ti_sysbios_hal_Hwi_HwiProxy_clearInterrupt__E
00826020   ti_sysbios_hal_Hwi_clearInterrupt__E
00826040   ti_sysbios_family_c64p_Hwi_startup__E
00826040   ti_sysbios_hal_Hwi_HwiProxy_startup__E
00826040   ti_sysbios_hal_Hwi_startup__E
00826060   ti_sysbios_family_c64p_Hwi_switchFromBootStack__E
00826060   ti_sysbios_hal_Hwi_HwiProxy_switchFromBootStack__E
00826080   ti_sysbios_family_c64p_TimestampProvider_Module_startup__E
008260a0   ti_sysbios_family_c64p_TimestampProvider_get64__E
008260a0   xdc_runtime_LoggerBuf_TimestampProxy_get64__E
008260c0   ti_sysbios_family_c64p_tci6488_TimerSupport_enable__E
008260c0   ti_sysbios_timers_timer64_Timer_TimerSupportProxy_enable__E
008260e0   ti_sysbios_gates_GateHwi_Instance_init__E
00826100   ti_sysbios_gates_GateHwi_enter__E
00826120   ti_sysbios_gates_GateHwi_leave__E
00826140   ti_sysbios_gates_GateHwi_query__E
00826140   xdc_runtime_LoggerBuf_Module_GateProxy_query__E
00826140   xdc_runtime_Main_Module_GateProxy_query__E
00826140   xdc_runtime_System_Module_GateProxy_query__E
00826160   ti_sysbios_gates_GateMutex_Instance_finalize__E
00826180   ti_sysbios_BIOS_RtsGateProxy_query__E
00826180   ti_sysbios_gates_GateMutex_query__E
00826180   ti_sysbios_heaps_HeapMem_Module_GateProxy_query__E
008261a0   ti_sysbios_hal_Hwi_HwiProxy_Module__startupDone__S
008261c0   ti_sysbios_hal_Hwi_Module_startup__E
008261e0   ti_sysbios_heaps_HeapMem_Module_GateProxy_enter__E
00826200   ti_sysbios_heaps_HeapMem_Module_GateProxy_leave__E
00826220   ti_sysbios_heaps_HeapMem_isBlocking__E
00826240   ti_sysbios_knl_Clock_TimerProxy_Module__startupDone__S
00826260   ti_sysbios_knl_Clock_TimerProxy_getMaxTicks__E
00826280   ti_sysbios_knl_Clock_getTicks__E
008262a0   ti_sysbios_knl_Idle_loop__E
008262c0   ti_sysbios_knl_Queue_Instance_init__E
008262e0   ti_sysbios_knl_Queue_Object__get__S
00826300   ti_sysbios_knl_Queue_destruct
00826320   ti_sysbios_knl_Queue_empty__E
00826340   ti_sysbios_knl_Semaphore_Instance_finalize__E
00826360   ti_sysbios_knl_Semaphore_destruct
00826380   ti_sysbios_knl_Swi_disable__E
008263a0   ti_sysbios_knl_Swi_startup__E
008263c0   ti_sysbios_knl_Task_SupportProxy_Module__startupDone__S
008263e0   ti_sysbios_knl_Task_disable__E
00826400   ti_sysbios_knl_Task_startup__E
00826420   ti_sysbios_timers_timer64_Timer_getMaxTicks__E
00826440   tolower
00826460   toupper
00826480   wctomb
008264a0   xdc_runtime_Gate_enterSystem__E
00826500   xdc_runtime_LoggerBuf_Module_GateProxy_enter__E
00826520   xdc_runtime_LoggerBuf_Module_GateProxy_leave__E
00826540   xdc_runtime_LoggerBuf_disable__E
00826560   xdc_runtime_LoggerBuf_enable__E
00826580   xdc_runtime_Memory_HeapProxy_alloc__E
008265a0   xdc_runtime_Memory_HeapProxy_free__E
008265c0   xdc_runtime_Startup_exec__I
008265e0   xdc_runtime_Startup_reset__I
00826600   xdc_runtime_SysMin_ready__E
00826600   xdc_runtime_System_SupportProxy_ready__E
00826620   xdc_runtime_System_Module_GateProxy_enter__E
00826640   xdc_runtime_System_Module_GateProxy_leave__E
00826660   xdc_runtime_System_Module_startup__E
00826680   xdc_runtime_System_snprintf_va__E
00826680   xdc_runtime_System_snprintf_va__F
00826680   xdc_runtime_System_vsnprintf__E
008266a0   xdc_runtime_Text_visitRope__I
008266c0   xdc_runtime_Text_charTab__A
00828218   ti_sysbios_family_c66_Cache_marvalues__C
00828bec   _ZNSs4nposE
00828bf0   _ctypes_
00828cf3   ti_sysbios_timers_timer64_Timer_localTimerBaseId__C
00828ddc   _ZZSt5_FabsIfET_RKSt7complexIS0_EPiE16_Oneplusroot2low
00828de0   xdc_runtime_Text_nodeTab__A
00828fe8   _ZTVSt13basic_filebufIcSt11char_traitsIcEE
00829030   _ZTVSt13basic_filebufIwSt11char_traitsIwEE
00829078   _ZTVSt15basic_streambufIcSt11char_traitsIcEE
008290c0   _ZTVSt15basic_streambufIwSt11char_traitsIwEE
00829148   _ZTVSt5ctypeIwE
00829188   xdc_runtime_LoggerBuf_Module__FXNS__C
008291c4   _ZZSt5_FabsIfET_RKSt7complexIS0_EPiE17_Oneplusroot2high
008291c8   _ZTSSt7num_putIcSt19ostreambuf_iteratorIcSt11char_traitsIcEEE
00829238   _ZTVSi
00829260   _ZTTSi
00829268   _ZTVSo
00829290   _ZTTSo
00829298   _ZTVSt13basic_istreamIwSt11char_traitsIwEE
008292c0   _ZTTSt13basic_istreamIwSt11char_traitsIwEE
008292c8   _ZTVSt13basic_ostreamIwSt11char_traitsIwEE
008292f0   _ZTTSt13basic_ostreamIwSt11char_traitsIwEE
008292f8   _ZTVSt5ctypeIcE
00829328   _ZTVSt7num_putIcSt19ostreambuf_iteratorIcSt11char_traitsIcEEE
00829358   xdc_runtime_Startup_sfxnTab__A
008293b4   _ZZSt5_FabsIfET_RKSt7complexIS0_EPiE6_Root2
008293b8   _ZTVSt7codecvtIcciE
008293e4   _ZSt7_BADOFF
008293e8   _ZTVSt7codecvtIwciE
00829414   ti_sysbios_family_c64p_Exception_E_exceptionMax__C
00829418   _ZTSSt15basic_streambufIcSt11char_traitsIcEE
00829442   ti_sysbios_family_c64p_Exception_Module__id__C
00829444   ti_sysbios_family_c64p_Exception_exceptionHook__C
00829448   _ZTSSt15basic_streambufIwSt11char_traitsIwEE
00829472   ti_sysbios_family_c64p_Exception_useInternalBuffer__C
00829474   ti_sysbios_heaps_HeapMem_Module__FXNS__C
0082949c   xdc_runtime_LoggerBuf_Object__PARAMS__C
008294c4   ti_sysbios_family_c64p_Exception_externalHook__C
008294c8   _ZTSSt13basic_filebufIcSt11char_traitsIcEE
008294f0   _ZTSSt13basic_filebufIwSt11char_traitsIwEE
00829518   _ZTSSt13basic_istreamIwSt11char_traitsIwEE
00829540   _ZTSSt13basic_ostreamIwSt11char_traitsIwEE
00829568   _ZTSN10__cxxabiv121__vmi_class_type_infoE
0082958e   ti_sysbios_family_c64p_Hwi_Module__id__C
00829590   _ZTSN10__cxxabiv120__si_class_type_infoE
008295b6   ti_sysbios_family_c64p_Hwi_Module__loggerDefined__C
008295b8   _ZTVSt8numpunctIcE
008295dc   ti_sysbios_gates_GateHwi_Module__FXNS__C
00829600   ti_sysbios_gates_GateMutex_Module__FXNS__C
00829624   ti_sysbios_heaps_HeapMem_Object__PARAMS__C
00829648   ti_sysbios_knl_Semaphore_Object__PARAMS__C
00829690   _ZTSN10__cxxabiv117__class_type_infoE
008296b2   ti_sysbios_hal_Hwi_Module__id__C
008296b4   ti_sysbios_family_c64p_Exception_internalHook__C
008296b8   _ZTSSt9basic_iosIcSt11char_traitsIcEE
008296da   ti_sysbios_heaps_HeapMem_Module__id__C
008296dc   ti_sysbios_family_c64p_Exception_nmiHook__C
008296e0   _ZTSSt9basic_iosIwSt11char_traitsIwEE
00829702   ti_sysbios_knl_Clock_Module__id__C
00829724   ti_sysbios_gates_GateHwi_Object__DESC__C
00829744   ti_sysbios_gates_GateMutex_Object__DESC__C
00829764   ti_sysbios_heaps_HeapMem_Object__DESC__C
00829784   ti_sysbios_knl_Queue_Object__DESC__C
008297a4   ti_sysbios_knl_Semaphore_Object__DESC__C
008297c4   xdc_runtime_LoggerBuf_Object__DESC__C
008297e4   ti_sysbios_family_c64p_Hwi_LD_end__C
008297e8   _ZTVSt12codecvt_base
00829804   _ZTISi
0082981c   _ZTISo
00829834   _ZTISt13basic_istreamIwSt11char_traitsIwEE
0082984c   _ZTISt13basic_ostreamIwSt11char_traitsIwEE
00829864   ti_sysbios_family_c64p_Hwi_LM_begin__C
00829868   _ZTVNSt8ios_base7failureE
00829880   _ZTVSt11logic_error
00829898   _ZTVSt12length_error
008298b0   _ZTVSt12out_of_range
008298c8   _ZTVSt13runtime_error
008298e0   _ZTVSt9exception
008298f8   ti_sysbios_gates_GateHwi_Object__PARAMS__C
00829910   ti_sysbios_gates_GateMutex_Object__PARAMS__C
00829928   ti_sysbios_knl_Queue_Object__PARAMS__C
00829940   xdc_runtime_Startup_sfxnRts__A
00829958   _ZTSNSt8ios_base7failureE
00829984   ti_sysbios_family_c64p_Hwi_Module__diagsEnabled__C
00829988   _ZTSNSt6locale7_LocimpE
008299b0   _ZTSNSt6locale5facetE
008299c2   ti_sysbios_knl_Clock_Module__loggerDefined__C
008299c4   ti_sysbios_family_c64p_Hwi_Module__diagsIncluded__C
008299c8   _ZTSSt13runtime_error
008299da   ti_sysbios_knl_Semaphore_Module__id__C
008299dc   ti_sysbios_family_c64p_Hwi_Module__diagsMask__C
008299e0   _ZTSSt12codecvt_base
008299f2   ti_sysbios_knl_Semaphore_Module__loggerDefined__C
008299f4   ti_sysbios_family_c64p_Hwi_Module__loggerFxn1__C
008299f8   _ZTSSt12length_error
00829a0a   ti_sysbios_knl_Swi_Module__id__C
00829a0c   ti_sysbios_family_c64p_Hwi_Module__loggerFxn8__C
00829a10   _ZTSSt12out_of_range
00829a22   ti_sysbios_knl_Swi_Module__loggerDefined__C
00829a24   _ZTIN10__cxxabiv117__class_type_infoE
00829a42   ti_sysbios_knl_Task_Module__id__C
00829a44   ti_sysbios_family_c64p_Hwi_Module__loggerObj__C
00829a48   _ZTSSt11logic_error
00829a58   _ZTSSt7codecvtIcciE
00829a68   _ZTSSt7codecvtIwciE
00829a88   _ZTVN10__cxxabiv117__class_type_infoE
00829a98   _ZTVN10__cxxabiv120__si_class_type_infoE
00829aa8   _ZTVN10__cxxabiv121__vmi_class_type_infoE
00829ab8   _ZTVNSt6locale5facetE
00829ac8   _ZTVNSt6locale7_LocimpE
00829ad8   _ZTVSt10ctype_base
00829ae8   _ZTVSt8ios_base
00829af8   _ZTVSt9basic_iosIcSt11char_traitsIcEE
00829b08   _ZTVSt9basic_iosIwSt11char_traitsIwEE
00829b18   _ZTSSt10ctype_base
00829b28   _ZTSSt8numpunctIcE
00829b38   _ZTSSt9exception
00829b46   ti_sysbios_knl_Task_Module__loggerDefined__C
00829b48   _ZTSSt9type_info
00829b56   ti_sysbios_knl_Task_initStackFlag__C
00829b58   _ZTSSt5_IosbIiE
00829b64   ti_sysbios_gates_GateMutex_Instance_State_sem__O
00829b68   _ZTSSt5ctypeIcE
00829b74   ti_sysbios_hal_Hwi_E_stackOverflow__C
00829b78   _ZTSSt5ctypeIwE
00829b84   ti_sysbios_heaps_HeapMem_E_memory__C
00829b88   _ZTSSt8ios_base
00829b94   _ZTIN10__cxxabiv120__si_class_type_infoE
00829ba0   _ZTIN10__cxxabiv121__vmi_class_type_infoE
00829bac   _ZTINSt6locale7_LocimpE
00829bb8   _ZTINSt8ios_base7failureE
00829bc4   _ZTISt10ctype_base
00829bd0   _ZTISt11logic_error
00829bdc   _ZTISt12codecvt_base
00829be8   _ZTISt12length_error
00829bf4   _ZTISt12out_of_range
00829c00   _ZTISt13basic_filebufIcSt11char_traitsIcEE
00829c0c   _ZTISt13basic_filebufIwSt11char_traitsIwEE
00829c18   _ZTISt13runtime_error
00829c24   _ZTISt5ctypeIcE
00829c30   _ZTISt5ctypeIwE
00829c3c   _ZTISt7codecvtIcciE
00829c48   _ZTISt7codecvtIwciE
00829c54   _ZTISt7num_putIcSt19ostreambuf_iteratorIcSt11char_traitsIcEEE
00829c60   _ZTISt8ios_base
00829c6c   _ZTISt8numpunctIcE
00829c78   _ZTISt9basic_iosIcSt11char_traitsIcEE
00829c84   _ZTISt9basic_iosIwSt11char_traitsIwEE
00829c90   ti_sysbios_family_c66_Cache_initSize__C
00829ca6   ti_sysbios_timers_timer64_Timer_Module__id__C
00829cb0   _ZTINSt6locale5facetE
00829cb8   _ZTISt15basic_streambufIcSt11char_traitsIcEE
00829cc0   _ZTISt15basic_streambufIwSt11char_traitsIwEE
00829cc8   _ZTISt5_IosbIiE
00829cd0   _ZTISt9exception
00829cd8   _ZTISt9type_info
00829ce8   ti_sysbios_knl_Idle_funcList__C
00829cf0   xdc_runtime_Startup_firstFxns__A
00829cf8   xdc_runtime_Startup_firstFxns__C
00829d00   xdc_runtime_Startup_lastFxns__C
00829d08   _ZZNKSt8_Locinfo9_GetfalseEvEs
00829d0e   ti_sysbios_timers_timer64_Timer_startupNeeded__C
00829d10   _ZZNKSt8_Locinfo8_GettrueEvEs
00829d16   ti_sysbios_timers_timer64_Timer_useTimer64pRegMap__C
00829d18   ti_sysbios_heaps_HeapMem_Module__gateObj__C
00829d1c   ti_sysbios_heaps_HeapMem_Object__count__C
00829d20   ti_sysbios_heaps_HeapMem_reqAlign__C
00829d24   ti_sysbios_knl_Clock_LM_begin__C
00829d28   ti_sysbios_knl_Clock_LM_tick__C
00829d2c   ti_sysbios_knl_Clock_LW_delayed__C
00829d30   ti_sysbios_knl_Clock_Module_State_clockQ__O
00829d34   ti_sysbios_knl_Clock_Module__diagsEnabled__C
00829d38   ti_sysbios_knl_Clock_Module__diagsIncluded__C
00829d3c   ti_sysbios_knl_Clock_Module__diagsMask__C
00829d40   ti_sysbios_knl_Clock_Module__loggerFxn1__C
00829d44   ti_sysbios_knl_Clock_Module__loggerFxn2__C
00829d48   ti_sysbios_knl_Clock_Module__loggerObj__C
00829d4c   ti_sysbios_knl_Semaphore_Instance_State_pendQ__O
00829d50   ti_sysbios_knl_Idle_funcList__A
00829d54   ti_sysbios_knl_Semaphore_LM_pend__C
00829d58   ti_sysbios_knl_Semaphore_LM_post__C
00829d5c   ti_sysbios_knl_Semaphore_Module__diagsEnabled__C
00829d60   ti_sysbios_knl_Semaphore_Module__diagsIncluded__C
00829d64   ti_sysbios_knl_Semaphore_Module__diagsMask__C
00829d68   ti_sysbios_knl_Semaphore_Module__loggerFxn2__C
00829d6c   ti_sysbios_knl_Semaphore_Module__loggerFxn4__C
00829d70   ti_sysbios_knl_Semaphore_Module__loggerObj__C
00829d74   ti_sysbios_knl_Swi_LD_end__C
00829d78   ti_sysbios_knl_Swi_LM_begin__C
00829d7c   ti_sysbios_knl_Swi_LM_post__C
00829d80   ti_sysbios_knl_Swi_Module__diagsEnabled__C
00829d84   ti_sysbios_knl_Swi_Module__diagsIncluded__C
00829d88   ti_sysbios_knl_Swi_Module__diagsMask__C
00829d8c   ti_sysbios_knl_Swi_Module__loggerFxn1__C
00829d90   ti_sysbios_knl_Swi_Module__loggerFxn4__C
00829d94   ti_sysbios_knl_Swi_Module__loggerObj__C
00829d98   ti_sysbios_knl_Swi_Object__count__C
00829d9c   ti_sysbios_knl_Task_E_spOutOfBounds__C
00829da0   ti_sysbios_knl_Task_E_stackOverflow__C
00829da4   ti_sysbios_knl_Task_LD_block__C
00829da8   ti_sysbios_knl_Task_LD_exit__C
00829dac   ti_sysbios_knl_Task_LD_ready__C
00829db0   ti_sysbios_knl_Task_LM_switch__C
00829db4   ti_sysbios_knl_Task_Module_State_inactiveQ__O
00829db8   ti_sysbios_knl_Task_Module__diagsEnabled__C
00829dbc   ti_sysbios_knl_Task_Module__diagsIncluded__C
00829dc0   ti_sysbios_knl_Task_Module__diagsMask__C
00829dc4   ti_sysbios_knl_Task_Module__loggerFxn2__C
00829dc8   ti_sysbios_knl_Task_Module__loggerFxn4__C
00829dcc   ti_sysbios_knl_Task_Module__loggerObj__C
00829dd0   ti_sysbios_knl_Task_Object__count__C
00829dd4   ti_sysbios_knl_Task_allBlockedFunc__C
00829dd8   ti_sysbios_knl_Task_numConstructedTasks__C
00829ddc   ti_sysbios_timers_timer64_Timer_E_cannotSupport__C
00829de0   ti_sysbios_timers_timer64_Timer_anyMaskHigh__C
00829de4   ti_sysbios_timers_timer64_Timer_anyMask__C
00829de8   ti_sysbios_timers_timer64_Timer_freqDivisor__C
00829dec   ti_sysbios_timers_timer64_Timer_numLocalTimers__C
00829df0   ti_sysbios_timers_timer64_Timer_numTimerDevices__C
00829df4   xdc_runtime_Assert_E_assertFailed__C
00829df8   xdc_runtime_Core_A_initializedParams__C
00829dfc   xdc_runtime_Core_Module__diagsEnabled__C
00829e00   xdc_runtime_Core_Module__diagsIncluded__C
00829e04   xdc_runtime_Core_Module__diagsMask__C
00829e08   xdc_runtime_Error_E_memory__C
00829e0c   xdc_runtime_Error_Module__diagsEnabled__C
00829e10   xdc_runtime_Error_Module__diagsIncluded__C
00829e14   xdc_runtime_Error_Module__diagsMask__C
00829e18   xdc_runtime_Error_Module__loggerFxn8__C
00829e1c   xdc_runtime_Error_Module__loggerObj__C
00829e20   xdc_runtime_Error_policyFxn__C
00829e24   xdc_runtime_Error_policy__C
00829e28   xdc_runtime_Error_raiseHook__C
00829e2c   xdc_runtime_IFilterLogger_Interface__BASE__C
00829e30   xdc_runtime_IGateProvider_Interface__BASE__C
00829e34   xdc_runtime_IHeap_Interface__BASE__C
00829e38   xdc_runtime_ILogger_Interface__BASE__C
00829e3c   xdc_runtime_IModule_Interface__BASE__C
00829e40   xdc_runtime_Log_L_error__C
00829e44   xdc_runtime_LoggerBuf_E_badLevel__C
00829e48   xdc_runtime_LoggerBuf_Module__gateObj__C
00829e4c   xdc_runtime_LoggerBuf_Object__count__C
00829e50   xdc_runtime_LoggerBuf_statusLogger__C
00829e54   xdc_runtime_Memory_defaultHeapInstance__C
00829e58   xdc_runtime_Startup_execImpl__C
00829e5c   xdc_runtime_Startup_maxPasses__C
00829e60   xdc_runtime_Startup_sfxnRts__C
00829e64   xdc_runtime_Startup_sfxnTab__C
00829e68   xdc_runtime_SysMin_bufSize__C
00829e6c   xdc_runtime_SysMin_outputFunc__C
00829e70   xdc_runtime_System_Module__gateObj__C
00829e74   xdc_runtime_System_abortFxn__C
00829e78   xdc_runtime_System_exitFxn__C
00829e7c   xdc_runtime_System_extendFxn__C
00829e80   xdc_runtime_System_maxAtexitHandlers__C
00829e84   xdc_runtime_Text_charTab__C
00829e88   xdc_runtime_Text_nameEmpty__C
00829e8c   xdc_runtime_Text_nameStatic__C
00829e90   xdc_runtime_Text_nameUnknown__C
00829e94   xdc_runtime_Text_nodeTab__C
00829e98   xdc_runtime_Text_visitRopeFxn__C
00829e9c   xdc_runtime_Core_Module__id__C
00829e9e   xdc_runtime_Error_Module__loggerDefined__C
00829ea0   _ZTSSi
00829ea4   xdc_runtime_Error_maxDepth__C
00829ea6   xdc_runtime_LoggerBuf_Module__id__C
00829ea8   _ZTSSo
00829eac   xdc_runtime_LoggerBuf_filterByLevel__C
00829eae   xdc_runtime_Memory_Module__id__C
00829eb0   _ZZNKSt7num_putIcSt19ostreambuf_iteratorIcSt11char_traitsIcEEE6do_putES3_RSt8ios_basecPKvEs
00829eb4   xdc_runtime_SysMin_flushAtExit__C
00829eb6   xdc_runtime_Text_charCnt__C
00829eb8   _ZZNKSt7num_putIcSt19ostreambuf_iteratorIcSt11char_traitsIcEEE6do_putES3_RSt8ios_baseclEs
00829ebc   xdc_runtime_Text_isLoaded__C
00829ebe   xdc_runtime_Text_registryModsLastId__C
00829ec0   _ZZNKSt7num_putIcSt19ostreambuf_iteratorIcSt11char_traitsIcEEE6do_putES3_RSt8ios_basecmEs
00829ec4   xdc_runtime_Text_unnamedModsLastId__C
00829ec8   _ZZNKSt7num_putIcSt19ostreambuf_iteratorIcSt11char_traitsIcEEE6do_putES3_RSt8ios_basecxEs
00829ed0   _ZZNKSt7num_putIcSt19ostreambuf_iteratorIcSt11char_traitsIcEEE6do_putES3_RSt8ios_basecyEs
00829ed8   _ZZNKSt7num_putIcSt19ostreambuf_iteratorIcSt11char_traitsIcEEE5_FputES3_RSt8ios_basecPKcjjjjEs
00829ee0   _ZZNKSt7num_putIcSt19ostreambuf_iteratorIcSt11char_traitsIcEEE5_FputES3_RSt8ios_basecPKcjjjjEs_0
00829ee8   _stack
0082bee8   __TI_STACK_END
0082bee8   ti_sysbios_knl_Task_Instance_State_0_stack__A
0082c6e8   ti_sysbios_knl_Task_Instance_State_1_stack__A
0082cee8   xdc_runtime_LoggerBuf_Instance_State_0_entryArr__A
0082d0e8   xdc_runtime_SysMin_Module_State_0_outbuf__A
0082d3dc   _ZSt4wcin
0082d418   _ZSt5wcout
0082d450   _ZSt5wcerr
0082d488   _ZSt5wclog
0082d560   _ZSt3cin
0082d59c   _ZSt4cout
0082d624   _ZSt4cerr
0082d65c   _ZSt4clog
0082d694   dlConfig
0082d818   sysConfig
0082d828   _tmpnams
0082d968   _ZNSt7codecvtIwciE2idE
0082d96c   _ZNSt5ctypeIcE2idE
0082d974   _ZGVNSt10moneypunctIwLb0EE2idE
0082d980   _ZGVNSt10moneypunctIwLb1EE2idE
0082d984   _ZGVNSt7codecvtIcciE2idE
0082d988   _ZGVNSt7collateIwE2idE
0082d98c   _ZGVNSt7num_getIwSt19istreambuf_iteratorIwSt11char_traitsIwEEE2idE
0082d990   _ZGVNSt7num_putIwSt19ostreambuf_iteratorIwSt11char_traitsIwEEE2idE
0082d994   _ZGVNSt8messagesIwE2idE
0082d998   _ZGVNSt8numpunctIwE2idE
0082d99c   _ZGVNSt8time_getIwSt19istreambuf_iteratorIwSt11char_traitsIwEEE2idE
0082d9a0   _ZGVNSt9money_getIwSt19istreambuf_iteratorIwSt11char_traitsIwEEE2idE
0082d9a4   _ZGVNSt9money_putIwSt19ostreambuf_iteratorIwSt11char_traitsIwEEE2idE
0082d9a8   _ZNSt10moneypunctIwLb0EE2idE
0082d9ac   _ZNSt10moneypunctIwLb1EE2idE
0082d9b0   _ZNSt13basic_filebufIcSt11char_traitsIcEE7_StinitE
0082d9b4   _ZNSt13basic_filebufIwSt11char_traitsIwEE7_StinitE
0082d9b8   _ZNSt4fposIiE4_StzE
0082d9bc   _ZNSt7codecvtIcciE2idE
0082d9c0   _ZNSt7collateIwE2idE
0082d9c4   _ZNSt7num_getIwSt19istreambuf_iteratorIwSt11char_traitsIwEEE2idE
0082d9c8   _ZNSt7num_putIcSt19ostreambuf_iteratorIcSt11char_traitsIcEEE2idE
0082d9cc   _ZNSt7num_putIwSt19ostreambuf_iteratorIwSt11char_traitsIwEEE2idE
0082d9d0   _ZNSt8messagesIwE2idE
0082d9d4   _ZNSt8numpunctIcE2idE
0082d9d8   _ZNSt8numpunctIwE2idE
0082d9dc   _ZNSt8time_getIwSt19istreambuf_iteratorIwSt11char_traitsIwEEE2idE
0082d9e0   _ZNSt8time_putIwSt19ostreambuf_iteratorIwSt11char_traitsIwEEE2idE
0082d9e4   _ZNSt9money_getIwSt19istreambuf_iteratorIwSt11char_traitsIwEEE2idE
0082d9e8   _ZNSt9money_putIwSt19ostreambuf_iteratorIwSt11char_traitsIwEEE2idE
0082d9ec   _ZNSt5ctypeIwE2idE
0082da08   ti_sysbios_BIOS_Module__state__V
0082da2c   ti_sysbios_family_c64p_Exception_Module__state__V
0082da5c   ti_sysbios_family_c64p_Hwi_Module__root__V
0082da64   ti_sysbios_family_c64p_Hwi_Module__state__V
0082dacc   ti_sysbios_gates_GateHwi_Module__root__V
0082dad4   ti_sysbios_gates_GateMutex_Module__root__V
0082dadc   ti_sysbios_hal_Hwi_Module__root__V
0082dae4   ti_sysbios_heaps_HeapMem_Module__root__V
0082daec   ti_sysbios_knl_Clock_Module__root__V
0082daf4   ti_sysbios_knl_Clock_Module__state__V
0082db20   ti_sysbios_knl_Queue_Module__root__V
0082db28   ti_sysbios_knl_Semaphore_Module__root__V
0082db30   ti_sysbios_knl_Swi_Module__root__V
0082db38   ti_sysbios_knl_Swi_Module__state__V
0082db54   ti_sysbios_knl_Task_Module__root__V
0082db5c   ti_sysbios_knl_Task_Module__state__V
0082dba0   ti_sysbios_timers_timer64_Timer_Module__root__V
0082dba8   ti_sysbios_timers_timer64_Timer_Module__state__V
0082dbc0   xdc_runtime_Error_Module__state__V
0082dbc4   xdc_runtime_LoggerBuf_Module__root__V
0082dbcc   xdc_runtime_LoggerBuf_Module__state__V
0082dbd4   xdc_runtime_Memory_Module__state__V
0082dbd8   xdc_runtime_Registry_Module__state__V
0082dbe0   xdc_runtime_Startup_Module__state__V
0082dbe8   xdc_runtime_SysMin_Module__state__V
0082dbf4   xdc_runtime_System_Module__state__V
0082dbfc   xdc_runtime_Text_Module__state__V
0082dc04   __xdc__init__addr
0082dc08   _ftable
0082dde8   ti_sysbios_knl_Swi_Object__table__V
0082dea8   ti_sysbios_timers_timer64_Timer_Module_State_0_device__A
0082e008   ti_sysbios_knl_Task_Object__table__V
0082e054   TSK_idle
0082e0a0   ti_sysbios_knl_Swi_Module_State_0_readyQ__A
0082e120   ti_sysbios_knl_Task_Module_State_0_readyQ__A
0082e218   _FDenorm
0082e228   _FEps
0082e238   _FInf
0082e248   _FNan
0082e258   _FSnan
0082e268   _FRteps
0082e278   _FXbig
0082e27c   _FZero
0082e280   ti_sysbios_knl_Clock_Object__table__V
0082e2e0   ti_sysbios_timers_timer64_Timer_Object__table__V
0082e374   _ZNSt9_FacetptrISt5ctypeIcEE6_PsaveE
0082e378   ti_sysbios_gates_GateMutex_Object__table__V
0082e3b8   ti_sysbios_timers_timer64_Timer_Module_State_0_gctrl__A
0082e3f8   ti_sysbios_timers_timer64_Timer_Module_State_0_handles__A
0082e438   ti_sysbios_timers_timer64_Timer_Module_State_0_intFreqs__A
0082e478   C_locale
0082e4ac   _ZNSt9_FacetptrISt5ctypeIwEE6_PsaveE
0082e4b0   ti_sysbios_heaps_HeapMem_Object__table__V
0082e508   xdc_runtime_LoggerBuf_Object__table__V
0082e52c   _ZNSt9_FacetptrISt7codecvtIcciEE6_PsaveE
0082e550   ti_sysbios_family_c64p_Hwi_Object__table__V
0082e568   ti_sysbios_knl_Semaphore_Object__table__V
0082e580   _ZNSt6locale2id7_Id_cntE
0082e584   _ZNSt6locale7_Locimp8_ClocptrE
0082e594   _ZNSt9_FacetptrISt7codecvtIwciEE6_PsaveE
0082e598   xdc_runtime_System_Module_State_0_atexitHandlers__A
0082e5b4   _cleanup_ptr
0082e5b8   _dtors_ptr
0082e5bc   __TI_enable_exit_profile_output
0082e5c0   _ZNSt8ios_base6_IndexE
0082e5c4   _ZNSt8ios_base5_SyncE
0082e5c8   _ZSt4_Fpz
0082e5cc   _ZNSt9_FacetptrISt7num_putIcSt19ostreambuf_iteratorIcSt11char_traitsIcEEEE6_PsaveE
0082e5dc   _lock
0082e5e0   _unlock
0082e5e4   _ZNSt9_FacetptrISt8numpunctIcEE6_PsaveE
0082e5e8   ti_sysbios_hal_Hwi_Object__table__V
0082e5f4   _ft_end
0082e5fc   __errno
0082e5fc   errno
0082e600   _ZNSt8ios_base4Init9_Init_cntE
0082e604   _ZSt14_Raise_handler
0082e60c   _new_handler
0082e610   _ZNSt6_Winit9_Init_cntE
0082e618   ti_sysbios_gates_GateHwi_Object__table__V
0082e620   ti_sysbios_knl_Task_Module_State_0_idleTask__A
0082e628   __CIOBUF_
0082e748   __TI_INITARRAY_Base
0082e790   _ZGVNSt7num_putIcSt19ostreambuf_iteratorIcSt11char_traitsIcEEE2idE
0082e790   __TI_INITARRAY_Limit
0082e790   __TI_STATIC_BASE
0082e794   _ZGVNSt8numpunctIcE2idE
0082e798   dynamicMemory
0082e79c   __dso_handle
0082e7a0   g_nUsers
0082e7a2   g_nTransmit
0082e7a4   g_nReceive
0082e7a6   g_nSchedBlocks
0082e7a8   log
0082e7ac   clock0
0082e7b0   clock1
0082e7b4   swiHandleA
0082e7b8   swiHandleB
0082e7bc   task0
0082e7c0   reInitSystem
0082e7c4   bufferHeap
0082e7c8   clock2
0082e7cc   swiHandleC
0082e800   ti_sysbios_family_c64p_Hwi0
0082e800   ti_sysbios_family_c64p_Hwi_int0
0082e820   ti_sysbios_family_c64p_Hwi_int1
0082e840   ti_sysbios_family_c64p_Hwi_int2
0082e860   ti_sysbios_family_c64p_Hwi_int3
0082e880   ti_sysbios_family_c64p_Hwi_int4
0082e8a0   ti_sysbios_family_c64p_Hwi_int5
0082e8c0   ti_sysbios_family_c64p_Hwi_int6
0082e8e0   ti_sysbios_family_c64p_Hwi_int7
0082e900   ti_sysbios_family_c64p_Hwi_int8
0082e920   ti_sysbios_family_c64p_Hwi_int9
0082e940   ti_sysbios_family_c64p_Hwi_int10
0082e960   ti_sysbios_family_c64p_Hwi_int11
0082e980   ti_sysbios_family_c64p_Hwi_int12
0082e9a0   ti_sysbios_family_c64p_Hwi_int13
0082e9c0   ti_sysbios_family_c64p_Hwi_int14
0082e9e0   ti_sysbios_family_c64p_Hwi_int15
0082f098   __TI_Handler_Table_Base
0082f0a4   __TI_Handler_Table_Limit
0082f0c4   __TI_CINIT_Base
0082f0fc   __TI_CINIT_Limit
0c000000   ti_sysbios_heaps_HeapMem_Instance_State_0_buf__A
0c07fff8   ti_sysbios_heaps_HeapMem_Instance_State_1_buf__A
0c0ffff0   globalChannelMatrix
ffffffff   __TI_pprof_out_hndl
ffffffff   __TI_prof_data_size
ffffffff   __TI_prof_data_start
ffffffff   __binit__
ffffffff   __c_args__
ffffffff   binit

[1325 symbols]
