******************************************************************************
               TMS320C6x Linker PC v7.4.8                      
******************************************************************************
>> Linked Fri Aug 22 13:26:53 2014

OUTPUT FILE NAME:   <finna-be-wallhack.out>
ENTRY POINT SYMBOL: "_c_int00"  address: 10819b80


MEMORY CONFIGURATION

         name            origin    length      used     unused   attr    fill
----------------------  --------  ---------  --------  --------  ----  --------
  SHRAM                 0c000000   00400000  0007ffff  00380001  RWIX
  CORE0_L2_SRAM         10800000   00080000  000210e4  0005ef1c  RWIX
  CORE0_L1P_SRAM        10e00000   00008000  00000000  00008000  RWIX
  CORE0_L1D_SRAM        10f00000   00008000  00000000  00008000  RWIX
  CORE1_L2_SRAM         11800000   00080000  00000000  00080000  RWIX
  CORE1_L1P_SRAM        11e00000   00008000  00000000  00008000  RWIX
  CORE1_L1D_SRAM        11f00000   00008000  00000000  00008000  RWIX
  CORE2_L2_SRAM         12800000   00080000  00000000  00080000  RWIX
  CORE2_L1P_SRAM        12e00000   00008000  00000000  00008000  RWIX
  CORE2_L1D_SRAM        12f00000   00008000  00000000  00008000  RWIX
  CORE3_L2_SRAM         13800000   00080000  00000000  00080000  RWIX
  CORE3_L1P_SRAM        13e00000   00008000  00000000  00008000  RWIX
  CORE3_L1D_SRAM        13f00000   00008000  00000000  00008000  RWIX
  CORE4_L2_SRAM         14800000   00080000  00000000  00080000  RWIX
  CORE4_L1P_SRAM        14e00000   00008000  00000000  00008000  RWIX
  CORE4_L1D_SRAM        14f00000   00008000  00000000  00008000  RWIX
  CORE5_L2_SRAM         15800000   00080000  00000000  00080000  RWIX
  CORE5_L1P_SRAM        15e00000   00008000  00000000  00008000  RWIX
  CORE5_L1D_SRAM        15f00000   00008000  00000000  00008000  RWIX
  CORE6_L2_SRAM         16800000   00080000  00000000  00080000  RWIX
  CORE6_L1P_SRAM        16e00000   00008000  00000000  00008000  RWIX
  CORE6_L1D_SRAM        16f00000   00008000  00000000  00008000  RWIX
  CORE7_L2_SRAM         17800000   00080000  00000000  00080000  RWIX
  CORE7_L1P_SRAM        17e00000   00008000  00000000  00008000  RWIX
  CORE7_L1D_SRAM        17f00000   00008000  00000000  00008000  RWIX
  EMIF16_CS2            70000000   04000000  00000000  04000000  RWIX
  EMIF16_CS3            74000000   04000000  00000000  04000000  RWIX
  EMIF16_CS4            78000000   04000000  00000000  04000000  RWIX
  EMIF16_CS5            7c000000   04000000  00000000  04000000  RWIX
  CORE0_DDR3            80000000   10000000  0000c800  0fff3800  RWIX
  CORE1_DDR3            90000000   10000000  00000000  10000000  RWIX
  CORE2_DDR3            a0000000   10000000  00000000  10000000  RWIX
  CORE3_DDR3            b0000000   10000000  00000000  10000000  RWIX
  CORE4_DDR3            c0000000   10000000  00000000  10000000  RWIX
  CORE5_DDR3            d0000000   10000000  00000000  10000000  RWIX
  CORE6_DDR3            e0000000   10000000  00000000  10000000  RWIX
  CORE7_DDR3            f0000000   10000000  00000000  10000000  RWIX


SEGMENT ALLOCATION MAP

run origin  load origin   length   init length attrs members
----------  ----------- ---------- ----------- ----- -------
0c000000    0c000000    0007ffff   00000000    rw-
  0c000000    0c000000    0007ffff   00000000    rw- .sysmem
10800000    10800000    0001f1ca   0001f1ca    r-x
  10800000    10800000    0001dfa0   0001dfa0    r-x .text
  1081dfa0    1081dfa0    0000122a   0000122a    r-- .const
1081f1d0    1081f1d0    00001722   00000000    rw-
  1081f1d0    1081f1d0    00001000   00000000    rw- .stack
  108201d0    108201d0    00000722   00000000    rw- .far
108208f8    108208f8    000004b4   000004b4    rw-
  108208f8    108208f8    000004b4   000004b4    rw- .fardata
10820db0    10820db0    00000120   00000000    rw-
  10820db0    10820db0    00000120   00000000    rw- .cio
10820ed0    10820ed0    0000004c   0000004c    r--
  10820ed0    10820ed0    0000004c   0000004c    r-- .init_array
10820f1c    10820f1c    00000010   00000000    rw-
  10820f1c    10820f1c    00000010   00000000    rw- .bss
10820f2c    10820f2c    00000010   00000010    r--
  10820f2c    10820f2c    00000010   00000010    r-- .switch
10820f3c    10820f3c    00000008   00000008    rw-
  10820f3c    10820f3c    00000008   00000008    rw- .neardata
10820f44    10820f44    000001b0   000001b0    r--
  10820f44    10820f44    000001b0   000001b0    r-- .cinit
80000000    80000000    0000c800   00000000    rw-
  80000000    80000000    0000c800   00000000    rw- .bigMem


SECTION ALLOCATION MAP

 output                                  attributes/
section   page    origin      length       input sections
--------  ----  ----------  ----------   ----------------
.sysmem    0    0c000000    0007ffff     UNINITIALIZED
                  0c000000    00000008     rts6600_elf.lib : memory.obj (.sysmem)
                  0c000008    0007fff7     --HOLE--

.text      0    10800000    0001dfa0     
                  10800000    00001560     dynamicMemory.obj (.text)
                  10801560    000014c0     blasFunctions.obj (.text)
                  10802a20    00000dc0     lapackFunctions.obj (.text)
                  108037e0    00000a00     frameworkFunctions.obj (.text)
                  108041e0    00000920     rts6600_elf.lib : wiostrea.obj (.text:_ZNSt6_WinitC1Ev)
                  10804b00    000007c0     pipdScheduling.obj (.text)
                  108052c0    00000780     succprojScheduling.obj (.text)
                  10805a40    00000760     rts6600_elf.lib : iostream.obj (.text:_ZNSt8ios_base4InitC1Ev)
                  108061a0    00000680                     : wiostrea.obj (.text:_ZNSt13basic_filebufIwSt11char_traitsIwEE8overflowEj)
                  10806820    00000640                     : iostream.obj (.text:_ZNSt13basic_filebufIcSt11char_traitsIcEE8overflowEi)
                  10806e60    00000620                     : wiostrea.obj (.text:_ZNSt13basic_filebufIwSt11char_traitsIwEE5uflowEv)
                  10807480    000005e0                     : iostream.obj (.text:_ZNSt13basic_filebufIcSt11char_traitsIcEE5uflowEv)
                  10807a60    000005e0                     : powf.obj (.text:powf)
                  10808040    000005c0                     : divd.obj (.text:__c6xabi_divd)
                  10808600    000005c0                     : _printfi.obj (.text:_getarg_diouxp)
                  10808bc0    000005a0     displayFunctions.obj (.text)
                  10809160    00000580     dynamicMemory.obj (.text:_ZNKSt7num_putIcSt19ostreambuf_iteratorIcSt11char_traitsIcEEE5_FputES3_RSt8ios_basecPKcjjjj)
                  108096e0    00000540     rts6600_elf.lib : iostream.obj (.text:_ZNSt13basic_filebufIcSt11char_traitsIcEE9_EndwriteEv)
                  10809c20    00000540                     : wiostrea.obj (.text:_ZNSt13basic_filebufIwSt11char_traitsIwEE9_EndwriteEv)
                  1080a160    00000520                     : _printfi.obj (.text:_setfield)
                  1080a680    00000520     supportingFunctions.obj (.text)
                  1080aba0    00000500     rts6600_elf.lib : ios.obj (.text:_ZNSt8ios_base5clearENSt5_IosbIiE8_IostateEb)
                  1080b0a0    000004c0                     : fwrite.obj (.text:fwrite)
                  1080b560    00000460                     : _printfi.obj (.text:_printfi)
                  1080b9c0    00000400                     : wlocale.obj (.text:__sti___11_wlocale_cpp_5e80b67f)
                  1080bdc0    00000400     greedyScheduling.obj (.text)
                  1080c1c0    000003a0     rts6600_elf.lib : fputs.obj (.text:fputs)
                  1080c560    00000320                     : _printfi.obj (.text:_pproc_fge)
                  1080c880    000002e0                     : _printfi.obj (.text:_pproc_fwp)
                  1080cb60    000002c0     dynamicMemory.obj (.text:_ZNKSt7num_putIcSt19ostreambuf_iteratorIcSt11char_traitsIcEEE5_IputES3_RSt8ios_basecPcj)
                  1080ce20    000002c0     dynamicMemory.obj (.text:_ZNKSt7num_putIcSt19ostreambuf_iteratorIcSt11char_traitsIcEEE6do_putES3_RSt8ios_basecd)
                  1080d0e0    000002c0     dynamicMemory.obj (.text:_ZNKSt7num_putIcSt19ostreambuf_iteratorIcSt11char_traitsIcEEE6do_putES3_RSt8ios_basece)
                  1080d3a0    000002a0     rts6600_elf.lib : _printfi.obj (.text:fcvt)
                  1080d640    00000280     blasFunctions.obj (.text:_ZSt5_FabsIfET_RKSt7complexIS0_EPi)
                  1080d8c0    00000280     blasFunctions.obj (.text:_ZStlsISt11char_traitsIcEERSt13basic_ostreamIcT_ES5_PKc)
                  1080db40    00000280     rts6600_elf.lib : divf.obj (.text:__c6xabi_divf)
                  1080ddc0    00000280                     : _printfi.obj (.text:ecvt)
                  1080e040    00000280                     : memory.obj (.text:free)
                  1080e2c0    00000280     randomScheduling.obj (.text)
                  1080e540    00000260     lapackFunctions.obj (.text:_ZNSt13_Complex_baseIfSt16_C_float_complexE4_DivIfEEvRKSt7complexIT_E)
                  1080e7a0    00000260     rts6600_elf.lib : wiostrea.obj (.text:_ZNSt6_WinitD1Ev)
                  1080ea00    00000260                     : iostream.obj (.text:__sti___12_iostream_cpp_3a72482d)
                  1080ec60    00000260                     : wiostrea.obj (.text:__sti___12_wiostrea_cpp_5e80b67f)
                  1080eec0    00000240                     : iostream.obj (.text:_ZNSt13basic_filebufIcSt11char_traitsIcEE5imbueERKSt6locale)
                  1080f100    00000240                     : wiostrea.obj (.text:_ZNSt13basic_filebufIwSt11char_traitsIwEE5imbueERKSt6locale)
                  1080f340    00000240                     : imath64.obj (.text:__c6xabi_divull)
                  1080f580    00000240                     : _printfi.obj (.text:_pconv_e)
                  1080f7c0    00000240                     : _printfi.obj (.text:_pproc_diouxp)
                  1080fa00    00000240     lteSystem.obj (.text)
                  1080fc40    00000220     rts6600_elf.lib : _printfi.obj (.text:_pproc_str)
                  1080fe60    00000220                     : fputc.obj (.text:fputc)
                  10810080    00000200                     : _printfi.obj (.text:_pconv_g)
                  10810280    00000200                     : setvbuf.obj (.text:setvbuf)
                  10810480    000001e0     dynamicMemory.obj (.text:_ZNKSt7num_putIcSt19ostreambuf_iteratorIcSt11char_traitsIcEEE6do_putES3_RSt8ios_basecb)
                  10810660    000001c0     rts6600_elf.lib : string.obj (.text:_ZNKSt12_String_base5_XranEv)
                  10810820    000001c0                     : iostream.obj (.text:_ZNSt8ios_base4InitD1Ev)
                  108109e0    000001c0                     : _printfi.obj (.text:_mcpy)
                  10810ba0    000001a0                     : trgdrv.obj (.text:HOSTrename)
                  10810d40    000001a0                     : xlocinfo.obj (.text:_Getctyptab)
                  10810ee0    000001a0                     : vec_newdel.obj (.text:_Z17array_new_generalPvjjjS_PFYS_S_ES1_PFYS_jEPFYvS_Eii)
                  10811080    000001a0                     : wiostrea.obj (.text:_ZNKSt7codecvtIwciE5do_inERiPKcS3_RS3_PwS5_RS5_)
                  10811220    000001a0                     : iostream.obj (.text:_ZNSt13basic_filebufIcSt11char_traitsIcEE7seekoffElNSt5_IosbIiE8_SeekdirENS4_9_OpenmodeE)
                  108113c0    000001a0                     : wiostrea.obj (.text:_ZNSt13basic_filebufIwSt11char_traitsIwEE7seekoffElNSt5_IosbIiE8_SeekdirENS4_9_OpenmodeE)
                  10811560    000001a0                     : imath40.obj (.text:__c6xabi_divul)
                  10811700    00000180                     : wiostrea.obj (.text:_ZNKSt5ctypeIwE10do_toupperEPwPKw)
                  10811880    00000180                     : wiostrea.obj (.text:_ZNKSt7codecvtIwciE6do_outERiPKwS3_RS3_PcS5_RS5_)
                  10811a00    00000180                     : iostream.obj (.text:_ZNSt13basic_filebufIcSt11char_traitsIcEE7seekposESt4fposIiENSt5_IosbIiE9_OpenmodeE)
                  10811b80    00000180                     : wiostrea.obj (.text:_ZNSt13basic_filebufIwSt11char_traitsIwEE7seekposESt4fposIiENSt5_IosbIiE9_OpenmodeE)
                  10811d00    00000180                     : wiostrea.obj (.text:_ZSt9use_facetISt5ctypeIwEERKT_RKSt6locale)
                  10811e80    00000180                     : copy_decompress_rle.obj (.text:__TI_decompress_rle_core)
                  10812000    00000180                     : memory.obj (.text:malloc)
                  10812180    00000180     memoryManagement.obj (.text)
                  10812300    00000160     rts6600_elf.lib : string.obj (.text:_ZNKSt12_String_base5_XlenEv)
                  10812460    00000160                     : iostream.obj (.text:_ZNSt13basic_filebufIcSt11char_traitsIcEE9pbackfailEi)
                  108125c0    00000160                     : iostream.obj (.text:_ZNSt13basic_filebufIcSt11char_traitsIcEED0Ev)
                  10812720    00000160                     : wiostrea.obj (.text:_ZNSt13basic_filebufIwSt11char_traitsIwEE9pbackfailEj)
                  10812880    00000160                     : wiostrea.obj (.text:_ZNSt13basic_filebufIwSt11char_traitsIwEED0Ev)
                  108129e0    00000160                     : iostream.obj (.text:_ZNSt9basic_iosIcSt11char_traitsIcEE4initEPSt15basic_streambufIcS1_Eb)
                  10812b40    00000160                     : wiostrea.obj (.text:_ZNSt9basic_iosIwSt11char_traitsIwEE4initEPSt15basic_streambufIwS1_Eb)
                  10812ca0    00000160                     : frexpf.obj (.text:frexpf)
                  10812e00    00000160                     : ldexpf.obj (.text:ldexpf)
                  10812f60    00000140     dynamicMemory.obj (.text:_ZNSolsEb)
                  108130a0    00000140     dynamicMemory.obj (.text:_ZNSolsEj)
                  108131e0    00000140     rts6600_elf.lib : iostream.obj (.text:_ZNSt13basic_filebufIcSt11char_traitsIcEE6setbufEPci)
                  10813320    00000140                     : iostream.obj (.text:_ZNSt13basic_filebufIcSt11char_traitsIcEED1Ev)
                  10813460    00000140                     : wiostrea.obj (.text:_ZNSt13basic_filebufIwSt11char_traitsIwEED1Ev)
                  108135a0    00000140                     : locale0.obj (.text:_ZNSt6locale5_InitEv)
                  108136e0    00000140                     : locale0.obj (.text:_ZNSt6locale7_LocimpD1Ev)
                  10813820    00000140                     : locale0.obj (.text:_ZNSt8_LocinfoC1EPKc)
                  10813960    00000140     dynamicMemory.obj (.text:_ZNSt8numpunctIcE5_InitERKSt8_Locinfo)
                  10813aa0    00000140     rts6600_elf.lib : _printfi.obj (.text:_pproc_fflags)
                  10813be0    00000140                     : fgetc.obj (.text:fgetc)
                  10813d20    00000140                     : lowlev.obj (.text:getdevice)
                  10813e60    00000140                     : ungetc.obj (.text:ungetc)
                  10813fa0    00000120                     : wiostrea.obj (.text:_ZNKSt5ctypeIwE5do_isEPKwS2_Ps)
                  108140c0    00000120                     : wiostrea.obj (.text:_ZNKSt5ctypeIwE9do_narrowEPKwS2_cPc)
                  108141e0    00000120                     : wiostrea.obj (.text:_ZNKSt7codecvtIwciE9do_lengthERKiPKcS4_j)
                  10814300    00000120     dynamicMemory.obj (.text:_ZNKSt7num_putIcSt19ostreambuf_iteratorIcSt11char_traitsIcEEE5_IfmtEPcPKcNSt5_IosbIiE9_FmtflagsE)
                  10814420    00000120     rts6600_elf.lib : wiostrea.obj (.text:_ZNSt13basic_filebufIwSt11char_traitsIwEE6setbufEPwi)
                  10814540    00000120                     : wiostrea.obj (.text:_ZNSt15basic_streambufIwSt11char_traitsIwEE6xsgetnEPwi)
                  10814660    00000120                     : locale0.obj (.text:_ZNSt8_LocinfoD1Ev)
                  10814780    00000120                     : _bufread.obj (.text:_buff_read)
                  108148a0    00000120                     : fclose.obj (.text:_closefile)
                  108149c0    00000120                     : _printfi.obj (.text:_ltostr)
                  10814ae0    00000120                     : fseek.obj (.text:fseek)
                  10814c00    00000120                     : ftell.obj (.text:ftell)
                  10814d20    00000120                     : sqrtf.obj (.text:sqrtf)
                  10814e40    00000100                     : trgdrv.obj (.text:HOSTlseek)
                  10814f40    00000100     dynamicMemory.obj (.text:_ZNKSt7num_putIcSt19ostreambuf_iteratorIcSt11char_traitsIcEEE5_FfmtEPccNSt5_IosbIiE9_FmtflagsE)
                  10815040    00000100     dynamicMemory.obj (.text:_ZNSs6appendERKSsjj)
                  10815140    00000100     dynamicMemory.obj (.text:_ZNSs6insertEjjc)
                  10815240    00000100     rts6600_elf.lib : iostream.obj (.text:_ZNSt15basic_streambufIcSt11char_traitsIcEE6xsgetnEPci)
                  10815340    00000100                     : iostream.obj (.text:_ZNSt15basic_streambufIcSt11char_traitsIcEE6xsputnEPKci)
                  10815440    00000100                     : wiostrea.obj (.text:_ZNSt15basic_streambufIwSt11char_traitsIwEE6xsputnEPKwi)
                  10815540    00000100                     : autoinit.obj (.text:_auto_init_elf)
                  10815640    00000100                     : _io_perm.obj (.text:_wrt_ok)
                  10815740    00000100                     : cpy_tbl.obj (.text:copy_in)
                  10815840    00000100     schedulingAlgorithms.obj (.text)
                  10815940    000000e0     rts6600_elf.lib : trgdrv.obj (.text:HOSTopen)
                  10815a20    000000e0                     : trgdrv.obj (.text:HOSTread)
                  10815b00    000000e0                     : locale0.obj (.text:_Fac_tidy)
                  10815be0    000000e0     dynamicMemory.obj (.text:_ZNSs5_CopyEjj)
                  10815cc0    000000e0     dynamicMemory.obj (.text:_ZNSs5eraseEjj)
                  10815da0    000000e0     dynamicMemory.obj (.text:_ZNSs6assignERKSsjj)
                  10815e80    000000e0     rts6600_elf.lib : divi.obj (.text:__divi)
                  10815f60    000000e0                     : _printfi.obj (.text:_div)
                  10816040    000000e0                     : atoi.obj (.text:atoi)
                  10816120    000000e0                     : lowlev.obj (.text:close)
                  10816200    000000e0                     : copy_zero_init.obj (.text:decompress:ZI:__TI_zero_init)
                  108162e0    000000e0                     : fflush.obj (.text:fflush)
                  108163c0    000000e0                     : ltoa.obj (.text:ltoa)
                  108164a0    000000e0                     : memset.obj (.text:memset)
                  10816580    000000e0                     : printf.obj (.text:printf)
                  10816660    000000c0                     : trgdrv.obj (.text:HOSTunlink)
                  10816720    000000c0                     : trgdrv.obj (.text:HOSTwrite)
                  108167e0    000000c0                     : dtor_list.obj (.text:_Z11__TI_atexitPFYvPvES_S_)
                  108168a0    000000c0                     : wiostrea.obj (.text:_ZNKSt5ctypeIwE10do_tolowerEPwPKw)
                  10816960    000000c0                     : wiostrea.obj (.text:_ZNKSt7codecvtIwciE10do_unshiftERiPcS2_RS2_)
                  10816a20    000000c0     dynamicMemory.obj (.text:_ZNKSt7num_putIcSt19ostreambuf_iteratorIcSt11char_traitsIcEEE11_PutgroupedES3_PKcjc)
                  10816ae0    000000c0     blasFunctions.obj (.text:_ZNSo3putEc)
                  10816ba0    000000c0     dynamicMemory.obj (.text:_ZNSs5_GrowEjb)
                  10816c60    000000c0     dynamicMemory.obj (.text:_ZNSs6appendEPKcj)
                  10816d20    000000c0     rts6600_elf.lib : iostream.obj (.text:_ZNSt13basic_filebufIcSt11char_traitsIcEE5_InitEPSt4FILENS2_7_InitflE)
                  10816de0    000000c0                     : locale0.obj (.text:_ZNSt6locale7_LocimpC1Eb)
                  10816ea0    000000c0                     : ios.obj (.text:_ZNSt8ios_baseD1Ev)
                  10816f60    000000c0     blasFunctions.obj (.text:_ZSt9use_facetISt5ctypeIcEERKT_RKSt6locale)
                  10817020    000000c0     dynamicMemory.obj (.text:_ZSt9use_facetISt7num_putIcSt19ostreambuf_iteratorIcSt11char_traitsIcEEEERKT_RKSt6locale)
                  108170e0    000000c0     dynamicMemory.obj (.text:_ZSt9use_facetISt8numpunctIcEERKT_RKSt6locale)
                  108171a0    000000c0     rts6600_elf.lib : dtor_list.obj (.text:__cxa_finalize)
                  10817260    000000c0                     : divu.obj (.text:__divu)
                  10817320    000000c0                     : remi.obj (.text:__remi)
                  108173e0    000000c0                     : fflush.obj (.text:_doflush)
                  108174a0    000000c0                     : _io_perm.obj (.text:_rd_ok)
                  10817560    000000c0                     : exit.obj (.text:exit)
                  10817620    000000c0     globalDeclarations.obj (.text)
                  108176e0    000000c0     rts6600_elf.lib : tls.obj (.text:tls:init:__TI_tls_init)
                  108177a0    000000a0                     : trgdrv.obj (.text:HOSTclose)
                  10817840    000000a0                     : locale0.obj (.text:_Setgloballocale)
                  108178e0    000000a0                     : wiostrea.obj (.text:_ZNKSt5ctypeIwE8do_widenEPKcS2_Pw)
                  10817980    000000a0     dynamicMemory.obj (.text:_ZNKSt7num_putIcSt19ostreambuf_iteratorIcSt11char_traitsIcEEE6do_putES3_RSt8ios_basecPKv)
                  10817a20    000000a0     blasFunctions.obj (.text:_ZNSo12_Sentry_baseC1ERSo)
                  10817ac0    000000a0     blasFunctions.obj (.text:_ZNSo6sentryC1ERSo)
                  10817b60    000000a0     rts6600_elf.lib : string.obj (.text:_ZNSt11logic_errorD1Ev)
                  10817c00    000000a0                     : string.obj (.text:_ZNSt12length_errorD1Ev)
                  10817ca0    000000a0                     : string.obj (.text:_ZNSt12out_of_rangeC1ERKSs)
                  10817d40    000000a0                     : string.obj (.text:_ZNSt12out_of_rangeD1Ev)
                  10817de0    000000a0     blasFunctions.obj (.text:_ZNSt13_Complex_baseIfSt16_C_float_complexE4_MulIfEEvRKSt7complexIT_E)
                  10817e80    000000a0     rts6600_elf.lib : iostream.obj (.text:_ZNSt13basic_filebufIcSt11char_traitsIcEE9underflowEv)
                  10817f20    000000a0                     : wiostrea.obj (.text:_ZNSt13basic_filebufIwSt11char_traitsIwEE9underflowEv)
                  10817fc0    000000a0                     : ios.obj (.text:_ZNSt13runtime_errorD1Ev)
                  10818060    000000a0     blasFunctions.obj (.text:_ZNSt5ctypeIcEC1EPKsbj)
                  10818100    000000a0     rts6600_elf.lib : ios.obj (.text:_ZNSt8ios_base5_InitEv)
                  108181a0    000000a0                     : ios.obj (.text:_ZNSt8ios_base5_TidyEv)
                  10818240    000000a0                     : ios.obj (.text:_ZNSt8ios_base7failureD1Ev)
                  108182e0    000000a0                     : new_.obj (.text:_Znwj)
                  10818380    000000a0                     : fopen.obj (.text:_cleanup)
                  10818420    000000a0                     : _printfi.obj (.text:_ecpy)
                  108184c0    000000a0                     : _printfi.obj (.text:_fcpy)
                  10818560    000000a0                     : memory.obj (.text:_minit)
                  10818600    000000a0                     : _printfi.obj (.text:_pconv_f)
                  108186a0    000000a0                     : lowlev.obj (.text:finddevice)
                  10818740    000000a0                     : lowlev.obj (.text:lseek)
                  108187e0    000000a0                     : memcpy64.obj (.text:memcpy)
                  10818880    000000a0                     : memory.obj (.text:minsert)
                  10818920    000000a0                     : memory.obj (.text:mremove)
                  108189c0    000000a0                     : lowlev.obj (.text:read)
                  10818a60    000000a0                     : lowlev.obj (.text:write)
                  10818b00    00000080                     : wiostrea.obj (.text:_ZNKSt5ctypeIwE10do_scan_isEsPKwS2_)
                  10818b80    00000080                     : wiostrea.obj (.text:_ZNKSt5ctypeIwE10do_tolowerEw)
                  10818c00    00000080                     : wiostrea.obj (.text:_ZNKSt5ctypeIwE11do_scan_notEsPKwS2_)
                  10818c80    00000080                     : locale0.obj (.text:_ZNKSt6locale9_GetfacetEj)
                  10818d00    00000080     dynamicMemory.obj (.text:_ZNKSt7num_putIcSt19ostreambuf_iteratorIcSt11char_traitsIcEEE5_PutcES3_PKcj)
                  10818d80    00000080     dynamicMemory.obj (.text:_ZNKSt7num_putIcSt19ostreambuf_iteratorIcSt11char_traitsIcEEE6do_putES3_RSt8ios_basecl)
                  10818e00    00000080     dynamicMemory.obj (.text:_ZNKSt7num_putIcSt19ostreambuf_iteratorIcSt11char_traitsIcEEE6do_putES3_RSt8ios_basecm)
                  10818e80    00000080     dynamicMemory.obj (.text:_ZNKSt7num_putIcSt19ostreambuf_iteratorIcSt11char_traitsIcEEE6do_putES3_RSt8ios_basecx)
                  10818f00    00000080     dynamicMemory.obj (.text:_ZNKSt7num_putIcSt19ostreambuf_iteratorIcSt11char_traitsIcEEE6do_putES3_RSt8ios_basecy)
                  10818f80    00000080     rts6600_elf.lib : ios.obj (.text:_ZNKSt9exception6_RaiseEv)
                  10819000    00000080     blasFunctions.obj (.text:_ZNSo12_Sentry_baseD1Ev)
                  10819080    00000080     blasFunctions.obj (.text:_ZNSo5flushEv)
                  10819100    00000080     dynamicMemory.obj (.text:_ZNSs5_TidyEbj)
                  10819180    00000080     dynamicMemory.obj (.text:_ZNSs6appendEjc)
                  10819200    00000080     dynamicMemory.obj (.text:_ZNSs6assignEPKcj)
                  10819280    00000080     rts6600_elf.lib : string.obj (.text:_ZNSt11logic_errorC2ERKSs)
                  10819300    00000080                     : string.obj (.text:_ZNSt11logic_errorD0Ev)
                  10819380    00000080                     : string.obj (.text:_ZNSt12length_errorD0Ev)
                  10819400    00000080                     : string.obj (.text:_ZNSt12out_of_rangeD0Ev)
                  10819480    00000080                     : iostream.obj (.text:_ZNSt13basic_filebufIcSt11char_traitsIcEE4syncEv)
                  10819500    00000080                     : wiostrea.obj (.text:_ZNSt13basic_filebufIwSt11char_traitsIwEE4syncEv)
                  10819580    00000080                     : ios.obj (.text:_ZNSt13runtime_errorD0Ev)
                  10819600    00000080     blasFunctions.obj (.text:_ZNSt15basic_streambufIcSt11char_traitsIcEE5sputcEc)
                  10819680    00000080     dynamicMemory.obj (.text:_ZNSt19ostreambuf_iteratorIcSt11char_traitsIcEEaSEc)
                  10819700    00000080     rts6600_elf.lib : locale0.obj (.text:_ZNSt6locale5facet9_RegisterEv)
                  10819780    00000080                     : ios.obj (.text:_ZNSt8ios_base7_AddstdEv)
                  10819800    00000080                     : ios.obj (.text:_ZNSt8ios_base7failureD0Ev)
                  10819880    00000080                     : ios.obj (.text:_ZNSt8ios_base8_CallfnsENS_5eventE)
                  10819900    00000080     dynamicMemory.obj (.text:_ZSt10_MaklocstrIcEPT_PKcS1_RKSt7_Cvtvec)
                  10819980    00000080     rts6600_elf.lib : throw.obj (.text:_ZSt14_Debug_messagePKcS0_)
                  10819a00    00000080                     : fixfu.obj (.text:__c6xabi_fixfu)
                  10819a80    00000080                     : llshift.obj (.text:__c6xabi_llshl)
                  10819b00    00000080                     : roundf.obj (.text:__c6xabi_roundf)
                  10819b80    00000080                     : boot.obj (.text:_c_int00)
                  10819c00    00000080                     : memory.obj (.text:calloc)
                  10819c80    00000080                     : memchr.obj (.text:memchr)
                  10819d00    00000080                     : rand.obj (.text:rand)
                  10819d80    00000080                     : trgmsg.obj (.text:readmsg)
                  10819e00    00000080     sysMainLTE.obj (.text)
                  10819e80    00000080     rts6600_elf.lib : lowlev.obj (.text:unlink)
                  10819f00    00000080                     : wchar.obj (.text:wmemcpy)
                  10819f80    00000060                     : locale0.obj (.text:_Deletegloballocale)
                  10819fe0    00000060                     : xfdtest.obj (.text:_FDtest)
                  1081a040    00000060     blasFunctions.obj (.text:_ZNKSt5ctypeIcE10do_tolowerEPcPKc)
                  1081a0a0    00000060     blasFunctions.obj (.text:_ZNKSt5ctypeIcE10do_toupperEPcPKc)
                  1081a100    00000060     rts6600_elf.lib : wiostrea.obj (.text:_ZNKSt5ctypeIwE10do_toupperEw)
                  1081a160    00000060     dynamicMemory.obj (.text:_ZNKSt7num_putIcSt19ostreambuf_iteratorIcSt11char_traitsIcEEE4_PutES3_PKcj)
                  1081a1c0    00000060     dynamicMemory.obj (.text:_ZNKSt7num_putIcSt19ostreambuf_iteratorIcSt11char_traitsIcEEE4_RepES3_cj)
                  1081a220    00000060     blasFunctions.obj (.text:_ZNKSt9basic_iosIcSt11char_traitsIcEE5widenEc)
                  1081a280    00000060     rts6600_elf.lib : iostream.obj (.text:_ZNSiD0Ev)
                  1081a2e0    00000060                     : iostream.obj (.text:_ZNSoD0Ev)
                  1081a340    00000060     dynamicMemory.obj (.text:_ZNSs7_InsideEPKc)
                  1081a3a0    00000060     dynamicMemory.obj (.text:_ZNSs9_ChassignEjjc)
                  1081a400    00000060     blasFunctions.obj (.text:_ZNSt13_Complex_baseIfSt16_C_float_complexE4_AddIfEEvRKSt7complexIT_E)
                  1081a460    00000060     lapackFunctions.obj (.text:_ZNSt13_Complex_baseIfSt16_C_float_complexE4_SubIfEEvRKSt7complexIT_E)
                  1081a4c0    00000060     rts6600_elf.lib : wiostrea.obj (.text:_ZNSt13basic_istreamIwSt11char_traitsIwEED0Ev)
                  1081a520    00000060                     : wiostrea.obj (.text:_ZNSt13basic_ostreamIwSt11char_traitsIwEED0Ev)
                  1081a580    00000060                     : iostream.obj (.text:_ZNSt15basic_streambufIcSt11char_traitsIcEE5_InitEv)
                  1081a5e0    00000060                     : iostream.obj (.text:_ZNSt15basic_streambufIcSt11char_traitsIcEE5uflowEv)
                  1081a640    00000060                     : iostream.obj (.text:_ZNSt15basic_streambufIcSt11char_traitsIcEE7seekoffElNSt5_IosbIiE8_SeekdirENS4_9_OpenmodeE)
                  1081a6a0    00000060                     : iostream.obj (.text:_ZNSt15basic_streambufIcSt11char_traitsIcEE7seekposESt4fposIiENSt5_IosbIiE9_OpenmodeE)
                  1081a700    00000060                     : iostream.obj (.text:_ZNSt15basic_streambufIcSt11char_traitsIcEED0Ev)
                  1081a760    00000060                     : iostream.obj (.text:_ZNSt15basic_streambufIcSt11char_traitsIcEED1Ev)
                  1081a7c0    00000060                     : wiostrea.obj (.text:_ZNSt15basic_streambufIwSt11char_traitsIwEE5_InitEv)
                  1081a820    00000060                     : wiostrea.obj (.text:_ZNSt15basic_streambufIwSt11char_traitsIwEE5uflowEv)
                  1081a880    00000060                     : wiostrea.obj (.text:_ZNSt15basic_streambufIwSt11char_traitsIwEE7seekoffElNSt5_IosbIiE8_SeekdirENS4_9_OpenmodeE)
                  1081a8e0    00000060                     : wiostrea.obj (.text:_ZNSt15basic_streambufIwSt11char_traitsIwEE7seekposESt4fposIiENSt5_IosbIiE9_OpenmodeE)
                  1081a940    00000060                     : wiostrea.obj (.text:_ZNSt15basic_streambufIwSt11char_traitsIwEED0Ev)
                  1081a9a0    00000060                     : wiostrea.obj (.text:_ZNSt15basic_streambufIwSt11char_traitsIwEED1Ev)
                  1081aa00    00000060     blasFunctions.obj (.text:_ZNSt5ctypeIcE7_GetcatEPPKNSt6locale5facetE)
                  1081aa60    00000060     rts6600_elf.lib : wiostrea.obj (.text:_ZNSt5ctypeIwED0Ev)
                  1081aac0    00000060                     : wiostrea.obj (.text:_ZNSt5ctypeIwED1Ev)
                  1081ab20    00000060     blasFunctions.obj (.text:_ZNSt6locale2idcvjEv)
                  1081ab80    00000060     blasFunctions.obj (.text:_ZNSt6locale5facet7_DecrefEv)
                  1081abe0    00000060     rts6600_elf.lib : locale0.obj (.text:_ZNSt6locale7_LocimpD0Ev)
                  1081ac40    00000060                     : locale0.obj (.text:_ZNSt6localeC1Ev)
                  1081aca0    00000060     frameworkFunctions.obj (.text:_ZNSt7complexIfEdVERKf)
                  1081ad00    00000060     dynamicMemory.obj (.text:_ZNSt7num_putIcSt19ostreambuf_iteratorIcSt11char_traitsIcEEEC1Ej)
                  1081ad60    00000060     rts6600_elf.lib : ios.obj (.text:_ZNSt8ios_baseD0Ev)
                  1081adc0    00000060     dynamicMemory.obj (.text:_ZNSt8numpunctIcEC1Ej)
                  1081ae20    00000060     rts6600_elf.lib : iostream.obj (.text:_ZNSt9basic_iosIcSt11char_traitsIcEED0Ev)
                  1081ae80    00000060                     : wiostrea.obj (.text:_ZNSt9basic_iosIwSt11char_traitsIwEED0Ev)
                  1081aee0    00000060     blasFunctions.obj (.text:_ZSt4conjIfESt7complexIT_ERKS2_)
                  1081af40    00000060     pipdScheduling.obj (.text:_ZStdvIfESt7complexIT_ERKS2_RKS1_)
                  1081afa0    00000060     rts6600_elf.lib : iostream.obj (.text:_ZTv0_n12_NSiD0Ev)
                  1081b000    00000060                     : iostream.obj (.text:_ZTv0_n12_NSoD0Ev)
                  1081b060    00000060                     : wiostrea.obj (.text:_ZTv0_n12_NSt13basic_istreamIwSt11char_traitsIwEED0Ev)
                  1081b0c0    00000060                     : wiostrea.obj (.text:_ZTv0_n12_NSt13basic_ostreamIwSt11char_traitsIwEED0Ev)
                  1081b120    00000060                     : cpp_init.obj (.text:__TI_cpp_init)
                  1081b180    00000060                     : frcmpyd_div.obj (.text:__c6xabi_frcmpyd_div)
                  1081b1e0    00000060                     : llshift.obj (.text:__c6xabi_llshru)
                  1081b240    00000060                     : vec_newdel.obj (.text:__cxa_vec_ctor)
                  1081b2a0    00000060                     : vec_newdel.obj (.text:__cxa_vec_new)
                  1081b300    00000060                     : imath64.obj (.text:_subcull)
                  1081b360    00000060                     : fclose.obj (.text:fclose)
                  1081b3c0    00000060                     : fgetpos.obj (.text:fgetpos)
                  1081b420    00000060                     : memccpy.obj (.text:memccpy)
                  1081b480    00000060                     : memmov.obj (.text:memmove)
                  1081b4e0    00000060                     : modff.obj (.text:modff)
                  1081b540    00000060                     : setlocale.obj (.text:setlocale)
                  1081b5a0    00000060                     : sprintf.obj (.text:sprintf)
                  1081b600    00000060                     : strcspn.obj (.text:strcspn)
                  1081b660    00000060                     : wchar.obj (.text:ungetwc)
                  1081b6c0    00000060                     : trgmsg.obj (.text:writemsg)
                  1081b720    00000040     dynamicMemory.obj (.text:_ZNKSs6_MyptrEv)
                  1081b760    00000040     dynamicMemory.obj (.text:_ZNKSs8max_sizeEv)
                  1081b7a0    00000040     blasFunctions.obj (.text:_ZNKSt15basic_streambufIcSt11char_traitsIcEE8_PnavailEv)
                  1081b7e0    00000040     blasFunctions.obj (.text:_ZNKSt5ctypeIcE10do_tolowerEc)
                  1081b820    00000040     blasFunctions.obj (.text:_ZNKSt5ctypeIcE10do_toupperEc)
                  1081b860    00000040     blasFunctions.obj (.text:_ZNKSt5ctypeIcE5widenEc)
                  1081b8a0    00000040     blasFunctions.obj (.text:_ZNKSt5ctypeIcE8do_widenEPKcS2_Pc)
                  1081b8e0    00000040     blasFunctions.obj (.text:_ZNKSt5ctypeIcE9do_narrowEPKcS2_cPc)
                  1081b920    00000040     rts6600_elf.lib : wiostrea.obj (.text:_ZNKSt5ctypeIwE5do_isEsw)
                  1081b960    00000040                     : wiostrea.obj (.text:_ZNKSt5ctypeIwE8do_widenEc)
                  1081b9a0    00000040                     : wiostrea.obj (.text:_ZNKSt5ctypeIwE9do_narrowEwc)
                  1081b9e0    00000040     dynamicMemory.obj (.text:_ZNKSt7num_putIcSt19ostreambuf_iteratorIcSt11char_traitsIcEEE3putES3_RSt8ios_basecb)
                  1081ba20    00000040     dynamicMemory.obj (.text:_ZNKSt7num_putIcSt19ostreambuf_iteratorIcSt11char_traitsIcEEE3putES3_RSt8ios_basecm)
                  1081ba60    00000040     dynamicMemory.obj (.text:_ZNKSt8_Locinfo7_GetcvtEv)
                  1081baa0    00000040     blasFunctions.obj (.text:_ZNKSt8_Locinfo9_GetctypeEv)
                  1081bae0    00000040     dynamicMemory.obj (.text:_ZNKSt8numpunctIcE8groupingEv)
                  1081bb20    00000040     dynamicMemory.obj (.text:_ZNKSt8numpunctIcE8truenameEv)
                  1081bb60    00000040     dynamicMemory.obj (.text:_ZNKSt8numpunctIcE9falsenameEv)
                  1081bba0    00000040     rts6600_elf.lib : iostream.obj (.text:_ZNSiD1Ev)
                  1081bbe0    00000040     blasFunctions.obj (.text:_ZNSo5_OsfxEv)
                  1081bc20    00000040     rts6600_elf.lib : iostream.obj (.text:_ZNSoD1Ev)
                  1081bc60    00000040     dynamicMemory.obj (.text:_ZNSs4_EosEj)
                  1081bca0    00000040     dynamicMemory.obj (.text:_ZNSs6_MyptrEv)
                  1081bce0    00000040     dynamicMemory.obj (.text:_ZNSs6assignEPKc)
                  1081bd20    00000040     dynamicMemory.obj (.text:_ZNSsC1EPKc)
                  1081bd60    00000040     dynamicMemory.obj (.text:_ZNSsC1Ev)
                  1081bda0    00000040     blasFunctions.obj (.text:_ZNSt10ctype_baseC1Ej)
                  1081bde0    00000040     dynamicMemory.obj (.text:_ZNSt11char_traitsIcE6assignEPcjc)
                  1081be20    00000040     blasFunctions.obj (.text:_ZNSt13_Complex_baseIfSt16_C_float_complexEC1ERKfS3_)
                  1081be60    00000040     rts6600_elf.lib : wiostrea.obj (.text:_ZNSt13basic_istreamIwSt11char_traitsIwEED1Ev)
                  1081bea0    00000040                     : wiostrea.obj (.text:_ZNSt13basic_ostreamIwSt11char_traitsIwEED1Ev)
                  1081bee0    00000040     blasFunctions.obj (.text:_ZNSt15basic_streambufIcSt11char_traitsIcEE5sputnEPKci)
                  1081bf20    00000040     dynamicMemory.obj (.text:_ZNSt19ostreambuf_iteratorIcSt11char_traitsIcEEC1EPSt15basic_streambufIcS1_E)
                  1081bf60    00000040     blasFunctions.obj (.text:_ZNSt5ctypeIcE5_TidyEv)
                  1081bfa0    00000040     blasFunctions.obj (.text:_ZNSt5ctypeIcED1Ev)
                  1081bfe0    00000040     blasFunctions.obj (.text:_ZNSt6locale5facet7_IncrefEv)
                  1081c020    00000040     blasFunctions.obj (.text:_ZNSt6locale5facetC1Ej)
                  1081c060    00000040     blasFunctions.obj (.text:_ZNSt6localeC1ERKS_)
                  1081c0a0    00000040     blasFunctions.obj (.text:_ZNSt6localeD1Ev)
                  1081c0e0    00000040     blasFunctions.obj (.text:_ZNSt7complexIfEaSERKf)
                  1081c120    00000040     dynamicMemory.obj (.text:_ZNSt7num_putIcSt19ostreambuf_iteratorIcSt11char_traitsIcEEE7_GetcatEPPKNSt6locale5facetE)
                  1081c160    00000040     blasFunctions.obj (.text:_ZNSt8ios_base5widthEi)
                  1081c1a0    00000040     dynamicMemory.obj (.text:_ZNSt8numpunctIcE5_TidyEv)
                  1081c1e0    00000040     dynamicMemory.obj (.text:_ZNSt8numpunctIcE7_GetcatEPPKNSt6locale5facetE)
                  1081c220    00000040     dynamicMemory.obj (.text:_ZNSt8numpunctIcED1Ev)
                  1081c260    00000040     blasFunctions.obj (.text:_ZNSt9basic_iosIcSt11char_traitsIcEE5clearENSt5_IosbIiE8_IostateEb)
                  1081c2a0    00000040     blasFunctions.obj (.text:_ZNSt9basic_iosIcSt11char_traitsIcEE8setstateENSt5_IosbIiE8_IostateEb)
                  1081c2e0    00000040     blasFunctions.obj (.text:_ZSt3absIfET_RKSt7complexIS0_E)
                  1081c320    00000040     pipdScheduling.obj (.text:_ZSt3absf)
                  1081c360    00000040     blasFunctions.obj (.text:_ZSt3powff)
                  1081c3a0    00000040     blasFunctions.obj (.text:_ZSt4endlIcSt11char_traitsIcEERSt13basic_ostreamIT_T0_ES6_)
                  1081c3e0    00000040     rts6600_elf.lib : throw.obj (.text:_ZSt6_ThrowRKSt9exception)
                  1081c420    00000040     lapackFunctions.obj (.text:_ZStdvIfESt7complexIT_ERKS1_RKS2_)
                  1081c460    00000040     lapackFunctions.obj (.text:_ZStdvIfESt7complexIT_ERKS2_S4_)
                  1081c4a0    00000040     lapackFunctions.obj (.text:_ZStmiIfESt7complexIT_ERKS2_S4_)
                  1081c4e0    00000040     frameworkFunctions.obj (.text:_ZStmlIfESt7complexIT_ERKS1_RKS2_)
                  1081c520    00000040     blasFunctions.obj (.text:_ZStmlIfESt7complexIT_ERKS2_S4_)
                  1081c560    00000040     blasFunctions.obj (.text:_ZStoRRNSt5_IosbIiE8_IostateES1_)
                  1081c5a0    00000040     lapackFunctions.obj (.text:_ZStplIfESt7complexIT_ERKS2_S4_)
                  1081c5e0    00000040     rts6600_elf.lib : iostream.obj (.text:_ZTv0_n12_NSiD1Ev)
                  1081c620    00000040                     : iostream.obj (.text:_ZTv0_n12_NSoD1Ev)
                  1081c660    00000040                     : wiostrea.obj (.text:_ZTv0_n12_NSt13basic_istreamIwSt11char_traitsIwEED1Ev)
                  1081c6a0    00000040                     : wiostrea.obj (.text:_ZTv0_n12_NSt13basic_ostreamIwSt11char_traitsIwEED1Ev)
                  1081c6e0    00000040                     : isinf.obj (.text:__c6xabi_isinf)
                  1081c720    00000040                     : _printfi.obj (.text:__c6xabi_isnan)
                  1081c760    00000040                     : locale0.obj (.text:__sti___11_locale0_cpp_36e19383)
                  1081c7a0    00000040                     : args_main.obj (.text:_args_main)
                  1081c7e0    00000040                     : sprintf.obj (.text:_outs)
                  1081c820    00000040                     : wchar.obj (.text:mbrtowc)
                  1081c860    00000040                     : multibyte.obj (.text:mbtowc)
                  1081c8a0    00000040                     : strcmp.obj (.text:strcmp)
                  1081c8e0    00000040                     : strlen.obj (.text:strlen)
                  1081c920    00000040                     : wchar.obj (.text:wcrtomb)
                  1081c960    00000020                     : xatexit.obj (.text:_Atexit)
                  1081c980    00000020                     : locale0.obj (.text:_Getgloballocale)
                  1081c9a0    00000020                     : newhandler.obj (.text:_Z21__default_new_handlerv)
                  1081c9c0    00000020                     : typeinfo_.obj (.text:_ZN10__cxxabiv117__class_type_infoD0Ev)
                  1081c9e0    00000020                     : typeinfo_.obj (.text:_ZN10__cxxabiv117__class_type_infoD1Ev)
                  1081ca00    00000020                     : typeinfo_.obj (.text:_ZN10__cxxabiv120__si_class_type_infoD0Ev)
                  1081ca20    00000020                     : typeinfo_.obj (.text:_ZN10__cxxabiv120__si_class_type_infoD1Ev)
                  1081ca40    00000020                     : typeinfo_.obj (.text:_ZN10__cxxabiv121__vmi_class_type_infoD0Ev)
                  1081ca60    00000020                     : typeinfo_.obj (.text:_ZN10__cxxabiv121__vmi_class_type_infoD1Ev)
                  1081ca80    00000020     dynamicMemory.obj (.text:_ZNKSaIcE8max_sizeEv)
                  1081caa0    00000020     blasFunctions.obj (.text:_ZNKSo6sentrycvbEv)
                  1081cac0    00000020     dynamicMemory.obj (.text:_ZNKSs4sizeEv)
                  1081cae0    00000020     dynamicMemory.obj (.text:_ZNKSs5c_strEv)
                  1081cb00    00000020     rts6600_elf.lib : string.obj (.text:_ZNKSt11logic_error4whatEv)
                  1081cb20    00000020                     : string.obj (.text:_ZNKSt11logic_error8_DoraiseEv)
                  1081cb40    00000020                     : iostream.obj (.text:_ZNKSt12codecvt_base11do_encodingEv)
                  1081cb60    00000020                     : iostream.obj (.text:_ZNKSt12codecvt_base13do_max_lengthEv)
                  1081cb80    00000020                     : iostream.obj (.text:_ZNKSt12codecvt_base16do_always_noconvEv)
                  1081cba0    00000020                     : string.obj (.text:_ZNKSt12length_error8_DoraiseEv)
                  1081cbc0    00000020                     : string.obj (.text:_ZNKSt12out_of_range8_DoraiseEv)
                  1081cbe0    00000020     blasFunctions.obj (.text:_ZNKSt13_Complex_baseIfSt16_C_float_complexE4imagEv)
                  1081cc00    00000020     blasFunctions.obj (.text:_ZNKSt13_Complex_baseIfSt16_C_float_complexE4realEv)
                  1081cc20    00000020     rts6600_elf.lib : ios.obj (.text:_ZNKSt13runtime_error4whatEv)
                  1081cc40    00000020                     : ios.obj (.text:_ZNKSt13runtime_error8_DoraiseEv)
                  1081cc60    00000020     dynamicMemory.obj (.text:_ZNKSt19ostreambuf_iteratorIcSt11char_traitsIcEE6failedEv)
                  1081cc80    00000020     blasFunctions.obj (.text:_ZNKSt5ctypeIcE8do_widenEc)
                  1081cca0    00000020     blasFunctions.obj (.text:_ZNKSt5ctypeIcE9do_narrowEcc)
                  1081ccc0    00000020     rts6600_elf.lib : wiostrea.obj (.text:_ZNKSt5ctypeIwE2isEsw)
                  1081cce0    00000020                     : wiostrea.obj (.text:_ZNKSt5ctypeIwE5widenEc)
                  1081cd00    00000020                     : wiostrea.obj (.text:_ZNKSt5ctypeIwE6narrowEwc)
                  1081cd20    00000020                     : iostream.obj (.text:_ZNKSt7codecvtIcciE10do_unshiftERiPcS2_RS2_)
                  1081cd40    00000020                     : iostream.obj (.text:_ZNKSt7codecvtIcciE5do_inERiPKcS3_RS3_PcS5_RS5_)
                  1081cd60    00000020                     : iostream.obj (.text:_ZNKSt7codecvtIcciE6do_outERiPKcS3_RS3_PcS5_RS5_)
                  1081cd80    00000020                     : iostream.obj (.text:_ZNKSt7codecvtIcciE9do_lengthERKiPKcS4_j)
                  1081cda0    00000020                     : wiostrea.obj (.text:_ZNKSt7codecvtIwciE11do_encodingEv)
                  1081cdc0    00000020                     : wiostrea.obj (.text:_ZNKSt7codecvtIwciE13do_max_lengthEv)
                  1081cde0    00000020                     : wiostrea.obj (.text:_ZNKSt7codecvtIwciE16do_always_noconvEv)
                  1081ce00    00000020     dynamicMemory.obj (.text:_ZNKSt8_Locinfo8_GettrueEv)
                  1081ce20    00000020     dynamicMemory.obj (.text:_ZNKSt8_Locinfo9_GetfalseEv)
                  1081ce40    00000020     dynamicMemory.obj (.text:_ZNKSt8_Locinfo9_GetlconvEv)
                  1081ce60    00000020     blasFunctions.obj (.text:_ZNKSt8ios_base4failEv)
                  1081ce80    00000020     blasFunctions.obj (.text:_ZNKSt8ios_base4goodEv)
                  1081cea0    00000020     blasFunctions.obj (.text:_ZNKSt8ios_base5flagsEv)
                  1081cec0    00000020     blasFunctions.obj (.text:_ZNKSt8ios_base5widthEv)
                  1081cee0    00000020     blasFunctions.obj (.text:_ZNKSt8ios_base6getlocEv)
                  1081cf00    00000020     rts6600_elf.lib : ios.obj (.text:_ZNKSt8ios_base7failure8_DoraiseEv)
                  1081cf20    00000020     blasFunctions.obj (.text:_ZNKSt8ios_base7rdstateEv)
                  1081cf40    00000020     dynamicMemory.obj (.text:_ZNKSt8ios_base9precisionEv)
                  1081cf60    00000020     dynamicMemory.obj (.text:_ZNKSt8numpunctIcE11do_groupingEv)
                  1081cf80    00000020     dynamicMemory.obj (.text:_ZNKSt8numpunctIcE11do_truenameEv)
                  1081cfa0    00000020     dynamicMemory.obj (.text:_ZNKSt8numpunctIcE12do_falsenameEv)
                  1081cfc0    00000020     dynamicMemory.obj (.text:_ZNKSt8numpunctIcE13decimal_pointEv)
                  1081cfe0    00000020     dynamicMemory.obj (.text:_ZNKSt8numpunctIcE13thousands_sepEv)
                  1081d000    00000020     dynamicMemory.obj (.text:_ZNKSt8numpunctIcE16do_decimal_pointEv)
                  1081d020    00000020     dynamicMemory.obj (.text:_ZNKSt8numpunctIcE16do_thousands_sepEv)
                  1081d040    00000020     blasFunctions.obj (.text:_ZNKSt9basic_iosIcSt11char_traitsIcEE3tieEv)
                  1081d060    00000020     blasFunctions.obj (.text:_ZNKSt9basic_iosIcSt11char_traitsIcEE4fillEv)
                  1081d080    00000020     blasFunctions.obj (.text:_ZNKSt9basic_iosIcSt11char_traitsIcEE5rdbufEv)
                  1081d0a0    00000020     rts6600_elf.lib : ios.obj (.text:_ZNKSt9exception4whatEv)
                  1081d0c0    00000020                     : ios.obj (.text:_ZNKSt9exception8_DoraiseEv)
                  1081d0e0    00000020     dynamicMemory.obj (.text:_ZNSaIcE10deallocateEPcj)
                  1081d100    00000020     dynamicMemory.obj (.text:_ZNSaIcE8allocateEj)
                  1081d120    00000020     dynamicMemory.obj (.text:_ZNSaIcEC1ERKS_)
                  1081d140    00000020     dynamicMemory.obj (.text:_ZNSaIcEC1Ev)
                  1081d160    00000020     blasFunctions.obj (.text:_ZNSo12_Sentry_baseC2ERSo)
                  1081d180    00000020     blasFunctions.obj (.text:_ZNSo12_Sentry_baseD2Ev)
                  1081d1a0    00000020     blasFunctions.obj (.text:_ZNSo6sentryD1Ev)
                  1081d1c0    00000020     blasFunctions.obj (.text:_ZNSolsEPFRSoS_E)
                  1081d1e0    00000020     dynamicMemory.obj (.text:_ZNSs6assignERKSs)
                  1081d200    00000020     dynamicMemory.obj (.text:_ZNSsD1Ev)
                  1081d220    00000020     dynamicMemory.obj (.text:_ZNSsixEj)
                  1081d240    00000020     blasFunctions.obj (.text:_ZNSt10ctype_baseC2Ej)
                  1081d260    00000020     blasFunctions.obj (.text:_ZNSt10ctype_baseD0Ev)
                  1081d280    00000020     blasFunctions.obj (.text:_ZNSt10ctype_baseD1Ev)
                  1081d2a0    00000020     blasFunctions.obj (.text:_ZNSt10ctype_baseD2Ev)
                  1081d2c0    00000020     dynamicMemory.obj (.text:_ZNSt11_String_valIcSaIcEEC1ES0_)
                  1081d2e0    00000020     dynamicMemory.obj (.text:_ZNSt11_String_valIcSaIcEEC2ES0_)
                  1081d300    00000020     blasFunctions.obj (.text:_ZNSt11char_traitsIcE11eq_int_typeERKiS2_)
                  1081d320    00000020     blasFunctions.obj (.text:_ZNSt11char_traitsIcE11to_int_typeERKc)
                  1081d340    00000020     blasFunctions.obj (.text:_ZNSt11char_traitsIcE3eofEv)
                  1081d360    00000020     dynamicMemory.obj (.text:_ZNSt11char_traitsIcE4copyEPcPKcj)
                  1081d380    00000020     dynamicMemory.obj (.text:_ZNSt11char_traitsIcE4moveEPcPKcj)
                  1081d3a0    00000020     dynamicMemory.obj (.text:_ZNSt11char_traitsIcE6assignERcRKc)
                  1081d3c0    00000020     blasFunctions.obj (.text:_ZNSt11char_traitsIcE6lengthEPKc)
                  1081d3e0    00000020     rts6600_elf.lib : iostream.obj (.text:_ZNSt12codecvt_baseD0Ev)
                  1081d400    00000020                     : iostream.obj (.text:_ZNSt12codecvt_baseD1Ev)
                  1081d420    00000020     pipdScheduling.obj (.text:_ZNSt13_Complex_baseIfSt16_C_float_complexE4imagERKf)
                  1081d440    00000020     pipdScheduling.obj (.text:_ZNSt13_Complex_baseIfSt16_C_float_complexE4realERKf)
                  1081d460    00000020     blasFunctions.obj (.text:_ZNSt13_Complex_baseIfSt16_C_float_complexEC2ERKfS3_)
                  1081d480    00000020     rts6600_elf.lib : iostream.obj (.text:_ZNSt15basic_streambufIcSt11char_traitsIcEE4syncEv)
                  1081d4a0    00000020                     : iostream.obj (.text:_ZNSt15basic_streambufIcSt11char_traitsIcEE5_LockEv)
                  1081d4c0    00000020                     : iostream.obj (.text:_ZNSt15basic_streambufIcSt11char_traitsIcEE5imbueERKSt6locale)
                  1081d4e0    00000020     blasFunctions.obj (.text:_ZNSt15basic_streambufIcSt11char_traitsIcEE6_PnincEv)
                  1081d500    00000020     rts6600_elf.lib : iostream.obj (.text:_ZNSt15basic_streambufIcSt11char_traitsIcEE6setbufEPci)
                  1081d520    00000020                     : iostream.obj (.text:_ZNSt15basic_streambufIcSt11char_traitsIcEE7_UnlockEv)
                  1081d540    00000020     blasFunctions.obj (.text:_ZNSt15basic_streambufIcSt11char_traitsIcEE7pubsyncEv)
                  1081d560    00000020     rts6600_elf.lib : iostream.obj (.text:_ZNSt15basic_streambufIcSt11char_traitsIcEE8overflowEi)
                  1081d580    00000020                     : iostream.obj (.text:_ZNSt15basic_streambufIcSt11char_traitsIcEE9pbackfailEi)
                  1081d5a0    00000020                     : iostream.obj (.text:_ZNSt15basic_streambufIcSt11char_traitsIcEE9showmanycEv)
                  1081d5c0    00000020                     : iostream.obj (.text:_ZNSt15basic_streambufIcSt11char_traitsIcEE9underflowEv)
                  1081d5e0    00000020                     : wiostrea.obj (.text:_ZNSt15basic_streambufIwSt11char_traitsIwEE4syncEv)
                  1081d600    00000020                     : wiostrea.obj (.text:_ZNSt15basic_streambufIwSt11char_traitsIwEE5_LockEv)
                  1081d620    00000020                     : wiostrea.obj (.text:_ZNSt15basic_streambufIwSt11char_traitsIwEE5imbueERKSt6locale)
                  1081d640    00000020                     : wiostrea.obj (.text:_ZNSt15basic_streambufIwSt11char_traitsIwEE6setbufEPwi)
                  1081d660    00000020                     : wiostrea.obj (.text:_ZNSt15basic_streambufIwSt11char_traitsIwEE7_UnlockEv)
                  1081d680    00000020                     : wiostrea.obj (.text:_ZNSt15basic_streambufIwSt11char_traitsIwEE8overflowEj)
                  1081d6a0    00000020                     : wiostrea.obj (.text:_ZNSt15basic_streambufIwSt11char_traitsIwEE9pbackfailEj)
                  1081d6c0    00000020                     : wiostrea.obj (.text:_ZNSt15basic_streambufIwSt11char_traitsIwEE9showmanycEv)
                  1081d6e0    00000020                     : wiostrea.obj (.text:_ZNSt15basic_streambufIwSt11char_traitsIwEE9underflowEv)
                  1081d700    00000020     dynamicMemory.obj (.text:_ZNSt19ostreambuf_iteratorIcSt11char_traitsIcEEdeEv)
                  1081d720    00000020     dynamicMemory.obj (.text:_ZNSt19ostreambuf_iteratorIcSt11char_traitsIcEEppEv)
                  1081d740    00000020     blasFunctions.obj (.text:_ZNSt5ctypeIcE5_InitERKSt8_Locinfo)
                  1081d760    00000020     blasFunctions.obj (.text:_ZNSt5ctypeIcED0Ev)
                  1081d780    00000020     dynamicMemory.obj (.text:_ZNSt6locale2idC1Ej)
                  1081d7a0    00000020     blasFunctions.obj (.text:_ZNSt6locale5facetC2Ej)
                  1081d7c0    00000020     blasFunctions.obj (.text:_ZNSt6locale5facetD0Ev)
                  1081d7e0    00000020     blasFunctions.obj (.text:_ZNSt6locale5facetD1Ev)
                  1081d800    00000020     blasFunctions.obj (.text:_ZNSt6locale5facetD2Ev)
                  1081d820    00000020     blasFunctions.obj (.text:_ZNSt7_LockitC1Ei)
                  1081d840    00000020     blasFunctions.obj (.text:_ZNSt7_LockitD1Ev)
                  1081d860    00000020     rts6600_elf.lib : iostream.obj (.text:_ZNSt7codecvtIcciED0Ev)
                  1081d880    00000020                     : iostream.obj (.text:_ZNSt7codecvtIcciED1Ev)
                  1081d8a0    00000020                     : wiostrea.obj (.text:_ZNSt7codecvtIwciED0Ev)
                  1081d8c0    00000020                     : wiostrea.obj (.text:_ZNSt7codecvtIwciED1Ev)
                  1081d8e0    00000020     blasFunctions.obj (.text:_ZNSt7complexIfEC1ERKS0_)
                  1081d900    00000020     blasFunctions.obj (.text:_ZNSt7complexIfEC1ERKfS2_)
                  1081d920    00000020     lapackFunctions.obj (.text:_ZNSt7complexIfEdVIfEERS0_RKS_IT_E)
                  1081d940    00000020     lapackFunctions.obj (.text:_ZNSt7complexIfEmIIfEERS0_RKS_IT_E)
                  1081d960    00000020     blasFunctions.obj (.text:_ZNSt7complexIfEmLIfEERS0_RKS_IT_E)
                  1081d980    00000020     blasFunctions.obj (.text:_ZNSt7complexIfEpLIfEERS0_RKS_IT_E)
                  1081d9a0    00000020     dynamicMemory.obj (.text:_ZNSt7num_putIcSt19ostreambuf_iteratorIcSt11char_traitsIcEEE5_InitERKSt8_Locinfo)
                  1081d9c0    00000020     dynamicMemory.obj (.text:_ZNSt7num_putIcSt19ostreambuf_iteratorIcSt11char_traitsIcEEED0Ev)
                  1081d9e0    00000020     dynamicMemory.obj (.text:_ZNSt7num_putIcSt19ostreambuf_iteratorIcSt11char_traitsIcEEED1Ev)
                  1081da00    00000020     blasFunctions.obj (.text:_ZNSt8_CtraitsIfE4sqrtEf)
                  1081da20    00000020     blasFunctions.obj (.text:_ZNSt8_CtraitsIfE5_InfvEf)
                  1081da40    00000020     lapackFunctions.obj (.text:_ZNSt8_CtraitsIfE5_NanvEf)
                  1081da60    00000020     blasFunctions.obj (.text:_ZNSt8_CtraitsIfE5ldexpEfi)
                  1081da80    00000020     blasFunctions.obj (.text:_ZNSt8_CtraitsIfE6_IsinfEf)
                  1081daa0    00000020     blasFunctions.obj (.text:_ZNSt8_CtraitsIfE6_IsnanEf)
                  1081dac0    00000020     dynamicMemory.obj (.text:_ZNSt8numpunctIcED0Ev)
                  1081dae0    00000020     rts6600_elf.lib : iostream.obj (.text:_ZNSt9basic_iosIcSt11char_traitsIcEED1Ev)
                  1081db00    00000020                     : wiostrea.obj (.text:_ZNSt9basic_iosIwSt11char_traitsIwEED1Ev)
                  1081db20    00000020                     : ios.obj (.text:_ZNSt9exceptionD0Ev)
                  1081db40    00000020                     : ios.obj (.text:_ZNSt9exceptionD1Ev)
                  1081db60    00000020     dynamicMemory.obj (.text:_ZSt10_MaklocchrIcET_cPS0_RKSt7_Cvtvec)
                  1081db80    00000020     rts6600_elf.lib : locale0.obj (.text:_ZSt11tidy_globalv)
                  1081dba0    00000020     blasFunctions.obj (.text:_ZSt4imagIfET_RKSt7complexIS0_E)
                  1081dbc0    00000020     blasFunctions.obj (.text:_ZSt4realIfET_RKSt7complexIS0_E)
                  1081dbe0    00000020     blasFunctions.obj (.text:_ZSt4sqrtf)
                  1081dc00    00000020     blasFunctions.obj (.text:_ZSt8_ToloweriPKSt9_Ctypevec)
                  1081dc20    00000020     blasFunctions.obj (.text:_ZSt8_ToupperiPKSt9_Ctypevec)
                  1081dc40    00000020     dynamicMemory.obj (.text:_ZSt9_AllocateIcEPT_jS1_)
                  1081dc60    00000020     blasFunctions.obj (.text:_ZStanNSt5_IosbIiE9_FmtflagsES1_)
                  1081dc80    00000020     rts6600_elf.lib : delete.obj (.text:_ZdlPv)
                  1081dca0    00000020                     : placenew.obj (.text:_ZnwjPv)
                  1081dcc0    00000020                     : errno.obj (.text:__c6xabi_errno_addr)
                  1081dce0    00000020                     : negll.obj (.text:__c6xabi_negll)
                  1081dd00    00000020                     : truncf.obj (.text:__c6xabi_truncf)
                  1081dd20    00000020                     : dtor_list.obj (.text:__cxa_atexit)
                  1081dd40    00000020                     : guard.obj (.text:__cxa_guard_acquire)
                  1081dd60    00000020                     : guard.obj (.text:__cxa_guard_release)
                  1081dd80    00000020                     : dtor_list.obj (.text:__cxa_ia64_exit)
                  1081dda0    00000020                     : memzero.obj (.text:__memzero)
                  1081ddc0    00000020                     : _lock.obj (.text:_nop)
                  1081dde0    00000020                     : printf.obj (.text:_outc)
                  1081de00    00000020                     : sprintf.obj (.text:_outc)
                  1081de20    00000020                     : printf.obj (.text:_outs)
                  1081de40    00000020                     : exit.obj (.text:abort)
                  1081de60    00000020                     : dtor_list.obj (.text:atexit)
                  1081de80    00000020                     : copy_decompress_none.obj (.text:decompress:none:__TI_decompress_none)
                  1081dea0    00000020                     : copy_decompress_rle.obj (.text:decompress:rle24:__TI_decompress_rle24)
                  1081dec0    00000020                     : wchar.obj (.text:fgetwc)
                  1081dee0    00000020                     : wchar.obj (.text:fputwc)
                  1081df00    00000020                     : fsetpos.obj (.text:fsetpos)
                  1081df20    00000020                     : setlocale.obj (.text:localeconv)
                  1081df40    00000020                     : tolower.obj (.text:tolower)
                  1081df60    00000020                     : toupper.obj (.text:toupper)
                  1081df80    00000020                     : multibyte.obj (.text:wctomb)

.const     0    1081dfa0    0000122a     
                  1081dfa0    0000024c     dynamicMemory.obj (.const:.string)
                  1081e1ec    00000004     rts6600_elf.lib : locale0.obj (.const:.string)
                  1081e1f0    00000202                     : xlocinfo.obj (.const:_ZSt8_Ctyptab)
                  1081e3f2    00000002                     : iostream.obj (.const:.string)
                  1081e3f4    0000016c     displayFunctions.obj (.const:.string)
                  1081e560    00000101     rts6600_elf.lib : ctype.obj (.const:.string:_ctypes_)
                  1081e661    00000002                     : wiostrea.obj (.const:.string)
                  1081e663    00000001     --HOLE-- [fill = 0]
                  1081e664    000000d0     lteSystem.obj (.const:.string)
                  1081e734    00000048     rts6600_elf.lib : ios.obj (.const:.string)
                  1081e77c    00000004     dynamicMemory.obj (.const:_ZNSs4nposE)
                  1081e780    00000048     rts6600_elf.lib : iostream.obj (.const:_ZTVSt13basic_filebufIcSt11char_traitsIcEE)
                  1081e7c8    00000048                     : wiostrea.obj (.const:_ZTVSt13basic_filebufIwSt11char_traitsIwEE)
                  1081e810    00000048                     : iostream.obj (.const:_ZTVSt15basic_streambufIcSt11char_traitsIcEE)
                  1081e858    00000048                     : wiostrea.obj (.const:_ZTVSt15basic_streambufIwSt11char_traitsIwEE)
                  1081e8a0    00000040                     : wiostrea.obj (.const:_ZTVSt5ctypeIwE)
                  1081e8e0    0000003a     dynamicMemory.obj (.const:.string:_ZTSSt7num_putIcSt19ostreambuf_iteratorIcSt11char_traitsIcEEE)
                  1081e91a    00000030     rts6600_elf.lib : string.obj (.const:.string)
                  1081e94a    00000005                     : setlocale.obj (.const:.string)
                  1081e94f    00000001     --HOLE-- [fill = 0]
                  1081e950    00000030                     : iostream.obj (.const:_ZTVSi)
                  1081e980    00000030                     : iostream.obj (.const:_ZTVSo)
                  1081e9b0    00000030                     : wiostrea.obj (.const:_ZTVSt13basic_istreamIwSt11char_traitsIwEE)
                  1081e9e0    00000030                     : wiostrea.obj (.const:_ZTVSt13basic_ostreamIwSt11char_traitsIwEE)
                  1081ea10    00000030     blasFunctions.obj (.const:_ZTVSt5ctypeIcE)
                  1081ea40    00000030     dynamicMemory.obj (.const:_ZTVSt7num_putIcSt19ostreambuf_iteratorIcSt11char_traitsIcEEE)
                  1081ea70    0000002c     rts6600_elf.lib : iostream.obj (.const:_ZTVSt7codecvtIcciE)
                  1081ea9c    00000004     blasFunctions.obj (.const:_ZZSt5_FabsIfET_RKSt7complexIS0_EPiE16_Oneplusroot2low)
                  1081eaa0    0000002c     rts6600_elf.lib : wiostrea.obj (.const:_ZTVSt7codecvtIwciE)
                  1081eacc    00000004     blasFunctions.obj (.const:_ZZSt5_FabsIfET_RKSt7complexIS0_EPiE17_Oneplusroot2high)
                  1081ead0    00000029     rts6600_elf.lib : iostream.obj (.const:.string:_ZTSSt15basic_streambufIcSt11char_traitsIcEE)
                  1081eaf9    00000003     --HOLE-- [fill = 0]
                  1081eafc    00000004     blasFunctions.obj (.const:_ZZSt5_FabsIfET_RKSt7complexIS0_EPiE6_Root2)
                  1081eb00    00000029     rts6600_elf.lib : wiostrea.obj (.const:.string:_ZTSSt15basic_streambufIwSt11char_traitsIwEE)
                  1081eb29    00000003     --HOLE-- [fill = 0]
                  1081eb2c    00000004                     : ios.obj (.const)
                  1081eb30    00000027                     : iostream.obj (.const:.string:_ZTSSt13basic_filebufIcSt11char_traitsIcEE)
                  1081eb57    00000001     --HOLE-- [fill = 0]
                  1081eb58    00000027                     : wiostrea.obj (.const:.string:_ZTSSt13basic_filebufIwSt11char_traitsIwEE)
                  1081eb7f    00000001     --HOLE-- [fill = 0]
                  1081eb80    00000027                     : wiostrea.obj (.const:.string:_ZTSSt13basic_istreamIwSt11char_traitsIwEE)
                  1081eba7    00000001     --HOLE-- [fill = 0]
                  1081eba8    00000027                     : wiostrea.obj (.const:.string:_ZTSSt13basic_ostreamIwSt11char_traitsIwEE)
                  1081ebcf    00000001     --HOLE-- [fill = 0]
                  1081ebd0    00000026                     : typeinfo_.obj (.const:.string:_ZTSN10__cxxabiv121__vmi_class_type_infoE)
                  1081ebf6    00000002     --HOLE-- [fill = 0]
                  1081ebf8    00000025                     : typeinfo_.obj (.const:.string:_ZTSN10__cxxabiv120__si_class_type_infoE)
                  1081ec1d    00000003     --HOLE-- [fill = 0]
                  1081ec20    00000024     dynamicMemory.obj (.const:_ZTVSt8numpunctIcE)
                  1081ec44    00000023     rts6600_elf.lib : _printfi.obj (.const:.string)
                  1081ec67    00000001     --HOLE-- [fill = 0]
                  1081ec68    00000022                     : typeinfo_.obj (.const:.string:_ZTSN10__cxxabiv117__class_type_infoE)
                  1081ec8a    00000006     --HOLE-- [fill = 0]
                  1081ec90    00000022                     : iostream.obj (.const:.string:_ZTSSt9basic_iosIcSt11char_traitsIcEE)
                  1081ecb2    00000006     --HOLE-- [fill = 0]
                  1081ecb8    00000022                     : wiostrea.obj (.const:.string:_ZTSSt9basic_iosIwSt11char_traitsIwEE)
                  1081ecda    00000002     --HOLE-- [fill = 0]
                  1081ecdc    00000020     schedulingAlgorithms.obj (.const:.string)
                  1081ecfc    00000004     --HOLE-- [fill = 0]
                  1081ed00    0000001c     rts6600_elf.lib : iostream.obj (.const:_ZTVSt12codecvt_base)
                  1081ed1c    00000018                     : iostream.obj (.const:_ZTISi)
                  1081ed34    00000018                     : iostream.obj (.const:_ZTISo)
                  1081ed4c    00000018                     : wiostrea.obj (.const:_ZTISt13basic_istreamIwSt11char_traitsIwEE)
                  1081ed64    00000018                     : wiostrea.obj (.const:_ZTISt13basic_ostreamIwSt11char_traitsIwEE)
                  1081ed7c    00000004     --HOLE-- [fill = 0]
                  1081ed80    00000018                     : ios.obj (.const:_ZTVNSt8ios_base7failureE)
                  1081ed98    00000018                     : string.obj (.const:_ZTVSt11logic_error)
                  1081edb0    00000018                     : string.obj (.const:_ZTVSt12length_error)
                  1081edc8    00000018                     : string.obj (.const:_ZTVSt12out_of_range)
                  1081ede0    00000018                     : ios.obj (.const:_ZTVSt13runtime_error)
                  1081edf8    00000018                     : ios.obj (.const:_ZTVSt9exception)
                  1081ee10    00000016                     : ios.obj (.const:.string:_ZTSNSt8ios_base7failureE)
                  1081ee26    00000016                     : throw.obj (.const:.string)
                  1081ee3c    00000004     --HOLE-- [fill = 0]
                  1081ee40    00000014                     : locale0.obj (.const:.string:_ZTSNSt6locale7_LocimpE)
                  1081ee54    00000014     blasFunctions.obj (.const:.string)
                  1081ee68    00000012     blasFunctions.obj (.const:.string:_ZTSNSt6locale5facetE)
                  1081ee7a    00000006     --HOLE-- [fill = 0]
                  1081ee80    00000012     rts6600_elf.lib : ios.obj (.const:.string:_ZTSSt13runtime_error)
                  1081ee92    00000006     --HOLE-- [fill = 0]
                  1081ee98    00000011                     : iostream.obj (.const:.string:_ZTSSt12codecvt_base)
                  1081eea9    00000007     --HOLE-- [fill = 0]
                  1081eeb0    00000011                     : string.obj (.const:.string:_ZTSSt12length_error)
                  1081eec1    00000007     --HOLE-- [fill = 0]
                  1081eec8    00000011                     : string.obj (.const:.string:_ZTSSt12out_of_range)
                  1081eed9    00000007     --HOLE-- [fill = 0]
                  1081eee0    00000010                     : string.obj (.const:.string:_ZTSSt11logic_error)
                  1081eef0    00000010                     : iostream.obj (.const:.string:_ZTSSt7codecvtIcciE)
                  1081ef00    00000010                     : wiostrea.obj (.const:.string:_ZTSSt7codecvtIwciE)
                  1081ef10    00000010     frameworkFunctions.obj (.const:.string)
                  1081ef20    00000010     rts6600_elf.lib : typeinfo_.obj (.const:_ZTVN10__cxxabiv117__class_type_infoE)
                  1081ef30    00000010                     : typeinfo_.obj (.const:_ZTVN10__cxxabiv120__si_class_type_infoE)
                  1081ef40    00000010                     : typeinfo_.obj (.const:_ZTVN10__cxxabiv121__vmi_class_type_infoE)
                  1081ef50    00000010     blasFunctions.obj (.const:_ZTVNSt6locale5facetE)
                  1081ef60    00000010     rts6600_elf.lib : locale0.obj (.const:_ZTVNSt6locale7_LocimpE)
                  1081ef70    00000010     blasFunctions.obj (.const:_ZTVSt10ctype_base)
                  1081ef80    00000010     rts6600_elf.lib : ios.obj (.const:_ZTVSt8ios_base)
                  1081ef90    00000010                     : iostream.obj (.const:_ZTVSt9basic_iosIcSt11char_traitsIcEE)
                  1081efa0    00000010                     : wiostrea.obj (.const:_ZTVSt9basic_iosIwSt11char_traitsIwEE)
                  1081efb0    0000000f     blasFunctions.obj (.const:.string:_ZTSSt10ctype_base)
                  1081efbf    00000001     --HOLE-- [fill = 0]
                  1081efc0    0000000f     dynamicMemory.obj (.const:.string:_ZTSSt8numpunctIcE)
                  1081efcf    00000001     --HOLE-- [fill = 0]
                  1081efd0    0000000d     rts6600_elf.lib : ios.obj (.const:.string:_ZTSSt9exception)
                  1081efdd    00000003     --HOLE-- [fill = 0]
                  1081efe0    0000000d                     : typeinfo_.obj (.const:.string:_ZTSSt9type_info)
                  1081efed    00000003     --HOLE-- [fill = 0]
                  1081eff0    0000000c                     : ios.obj (.const:.string:_ZTSSt5_IosbIiE)
                  1081effc    00000004     --HOLE-- [fill = 0]
                  1081f000    0000000c     blasFunctions.obj (.const:.string:_ZTSSt5ctypeIcE)
                  1081f00c    00000004     --HOLE-- [fill = 0]
                  1081f010    0000000c     rts6600_elf.lib : wiostrea.obj (.const:.string:_ZTSSt5ctypeIwE)
                  1081f01c    00000004     --HOLE-- [fill = 0]
                  1081f020    0000000c                     : ios.obj (.const:.string:_ZTSSt8ios_base)
                  1081f02c    0000000c                     : typeinfo_.obj (.const:_ZTIN10__cxxabiv117__class_type_infoE)
                  1081f038    0000000c                     : typeinfo_.obj (.const:_ZTIN10__cxxabiv120__si_class_type_infoE)
                  1081f044    0000000c                     : typeinfo_.obj (.const:_ZTIN10__cxxabiv121__vmi_class_type_infoE)
                  1081f050    0000000c                     : locale0.obj (.const:_ZTINSt6locale7_LocimpE)
                  1081f05c    0000000c                     : ios.obj (.const:_ZTINSt8ios_base7failureE)
                  1081f068    0000000c     blasFunctions.obj (.const:_ZTISt10ctype_base)
                  1081f074    0000000c     rts6600_elf.lib : string.obj (.const:_ZTISt11logic_error)
                  1081f080    0000000c                     : iostream.obj (.const:_ZTISt12codecvt_base)
                  1081f08c    0000000c                     : string.obj (.const:_ZTISt12length_error)
                  1081f098    0000000c                     : string.obj (.const:_ZTISt12out_of_range)
                  1081f0a4    0000000c                     : iostream.obj (.const:_ZTISt13basic_filebufIcSt11char_traitsIcEE)
                  1081f0b0    0000000c                     : wiostrea.obj (.const:_ZTISt13basic_filebufIwSt11char_traitsIwEE)
                  1081f0bc    0000000c                     : ios.obj (.const:_ZTISt13runtime_error)
                  1081f0c8    0000000c     blasFunctions.obj (.const:_ZTISt5ctypeIcE)
                  1081f0d4    0000000c     rts6600_elf.lib : wiostrea.obj (.const:_ZTISt5ctypeIwE)
                  1081f0e0    0000000c                     : iostream.obj (.const:_ZTISt7codecvtIcciE)
                  1081f0ec    0000000c                     : wiostrea.obj (.const:_ZTISt7codecvtIwciE)
                  1081f0f8    0000000c     dynamicMemory.obj (.const:_ZTISt7num_putIcSt19ostreambuf_iteratorIcSt11char_traitsIcEEE)
                  1081f104    0000000c     rts6600_elf.lib : ios.obj (.const:_ZTISt8ios_base)
                  1081f110    0000000c     dynamicMemory.obj (.const:_ZTISt8numpunctIcE)
                  1081f11c    0000000c     rts6600_elf.lib : iostream.obj (.const:_ZTISt9basic_iosIcSt11char_traitsIcEE)
                  1081f128    0000000c                     : wiostrea.obj (.const:_ZTISt9basic_iosIwSt11char_traitsIwEE)
                  1081f134    00000009     dynamicMemory.obj (.const)
                  1081f13d    00000003     --HOLE-- [fill = 0]
                  1081f140    00000008     blasFunctions.obj (.const:_ZTINSt6locale5facetE)
                  1081f148    00000008     rts6600_elf.lib : iostream.obj (.const:_ZTISt15basic_streambufIcSt11char_traitsIcEE)
                  1081f150    00000008                     : wiostrea.obj (.const:_ZTISt15basic_streambufIwSt11char_traitsIwEE)
                  1081f158    00000008                     : ios.obj (.const:_ZTISt5_IosbIiE)
                  1081f160    00000008                     : ios.obj (.const:_ZTISt9exception)
                  1081f168    00000008                     : typeinfo_.obj (.const:_ZTISt9type_info)
                  1081f170    00000008     blasFunctions.obj (.const)
                  1081f178    00000006     dynamicMemory.obj (.const:.string:_ZZNKSt8_Locinfo9_GetfalseEvEs)
                  1081f17e    00000002     --HOLE-- [fill = 0]
                  1081f180    00000005     dynamicMemory.obj (.const:.string:_ZZNKSt8_Locinfo8_GettrueEvEs)
                  1081f185    00000003     --HOLE-- [fill = 0]
                  1081f188    00000003     rts6600_elf.lib : iostream.obj (.const:.string:_ZTSSi)
                  1081f18b    00000005     --HOLE-- [fill = 0]
                  1081f190    00000003                     : iostream.obj (.const:.string:_ZTSSo)
                  1081f193    00000005     --HOLE-- [fill = 0]
                  1081f198    00000003     dynamicMemory.obj (.const:.string:_ZZNKSt7num_putIcSt19ostreambuf_iteratorIcSt11char_traitsIcEEE6do_putES3_RSt8ios_basecPKvEs)
                  1081f19b    00000005     --HOLE-- [fill = 0]
                  1081f1a0    00000003     dynamicMemory.obj (.const:.string:_ZZNKSt7num_putIcSt19ostreambuf_iteratorIcSt11char_traitsIcEEE6do_putES3_RSt8ios_baseclEs)
                  1081f1a3    00000005     --HOLE-- [fill = 0]
                  1081f1a8    00000003     dynamicMemory.obj (.const:.string:_ZZNKSt7num_putIcSt19ostreambuf_iteratorIcSt11char_traitsIcEEE6do_putES3_RSt8ios_basecmEs)
                  1081f1ab    00000005     --HOLE-- [fill = 0]
                  1081f1b0    00000003     dynamicMemory.obj (.const:.string:_ZZNKSt7num_putIcSt19ostreambuf_iteratorIcSt11char_traitsIcEEE6do_putES3_RSt8ios_basecxEs)
                  1081f1b3    00000005     --HOLE-- [fill = 0]
                  1081f1b8    00000003     dynamicMemory.obj (.const:.string:_ZZNKSt7num_putIcSt19ostreambuf_iteratorIcSt11char_traitsIcEEE6do_putES3_RSt8ios_basecyEs)
                  1081f1bb    00000005     --HOLE-- [fill = 0]
                  1081f1c0    00000002     dynamicMemory.obj (.const:.string:_ZZNKSt7num_putIcSt19ostreambuf_iteratorIcSt11char_traitsIcEEE5_FputES3_RSt8ios_basecPKcjjjjEs)
                  1081f1c2    00000006     --HOLE-- [fill = 0]
                  1081f1c8    00000002     dynamicMemory.obj (.const:.string:_ZZNKSt7num_putIcSt19ostreambuf_iteratorIcSt11char_traitsIcEEE5_FputES3_RSt8ios_basecPKcjjjjEs_0)

.stack     0    1081f1d0    00001000     UNINITIALIZED
                  1081f1d0    00000008     rts6600_elf.lib : boot.obj (.stack)
                  1081f1d8    00000ff8     --HOLE--

.far       0    108201d0    00000722     UNINITIALIZED
                  108201d0    000001d8     rts6600_elf.lib : wiostrea.obj (.far)
                  108203a8    000001d4                     : iostream.obj (.far)
                  1082057c    00000192     globalDeclarations.obj (.far)
                  1082070e    00000002     blasFunctions.obj (.far)
                  10820710    00000140     rts6600_elf.lib : defs.obj (.far)
                  10820850    0000000c                     : locale0.obj (.far)
                  1082085c    00000004                     : wlocale.obj (.far:_ZGVNSt10moneypunctIwLb0EE2idE)
                  10820860    00000008                     : trgdrv.obj (.far)
                  10820868    00000004                     : wlocale.obj (.far:_ZGVNSt10moneypunctIwLb1EE2idE)
                  1082086c    00000004                     : iostream.obj (.far:_ZGVNSt7codecvtIcciE2idE)
                  10820870    00000004                     : wlocale.obj (.far:_ZGVNSt7collateIwE2idE)
                  10820874    00000004                     : wlocale.obj (.far:_ZGVNSt7num_getIwSt19istreambuf_iteratorIwSt11char_traitsIwEEE2idE)
                  10820878    00000004                     : wlocale.obj (.far:_ZGVNSt7num_putIwSt19ostreambuf_iteratorIwSt11char_traitsIwEEE2idE)
                  1082087c    00000004                     : wlocale.obj (.far:_ZGVNSt8messagesIwE2idE)
                  10820880    00000004                     : wlocale.obj (.far:_ZGVNSt8numpunctIwE2idE)
                  10820884    00000004                     : wlocale.obj (.far:_ZGVNSt8time_getIwSt19istreambuf_iteratorIwSt11char_traitsIwEEE2idE)
                  10820888    00000004                     : wlocale.obj (.far:_ZGVNSt9money_getIwSt19istreambuf_iteratorIwSt11char_traitsIwEEE2idE)
                  1082088c    00000004                     : wlocale.obj (.far:_ZGVNSt9money_putIwSt19ostreambuf_iteratorIwSt11char_traitsIwEEE2idE)
                  10820890    00000004                     : wlocale.obj (.far:_ZNSt10moneypunctIwLb0EE2idE)
                  10820894    00000004                     : wlocale.obj (.far:_ZNSt10moneypunctIwLb1EE2idE)
                  10820898    00000004                     : iostream.obj (.far:_ZNSt13basic_filebufIcSt11char_traitsIcEE7_StinitE)
                  1082089c    00000004                     : wiostrea.obj (.far:_ZNSt13basic_filebufIwSt11char_traitsIwEE7_StinitE)
                  108208a0    00000004                     : iostream.obj (.far:_ZNSt4fposIiE4_StzE)
                  108208a4    00000004                     : iostream.obj (.far:_ZNSt7codecvtIcciE2idE)
                  108208a8    00000004                     : wlocale.obj (.far:_ZNSt7collateIwE2idE)
                  108208ac    00000004                     : wlocale.obj (.far:_ZNSt7num_getIwSt19istreambuf_iteratorIwSt11char_traitsIwEEE2idE)
                  108208b0    00000004     dynamicMemory.obj (.far:_ZNSt7num_putIcSt19ostreambuf_iteratorIcSt11char_traitsIcEEE2idE)
                  108208b4    00000004     rts6600_elf.lib : wlocale.obj (.far:_ZNSt7num_putIwSt19ostreambuf_iteratorIwSt11char_traitsIwEEE2idE)
                  108208b8    00000004                     : wlocale.obj (.far:_ZNSt8messagesIwE2idE)
                  108208bc    00000004     dynamicMemory.obj (.far:_ZNSt8numpunctIcE2idE)
                  108208c0    00000004     rts6600_elf.lib : wlocale.obj (.far:_ZNSt8numpunctIwE2idE)
                  108208c4    00000004                     : wlocale.obj (.far:_ZNSt8time_getIwSt19istreambuf_iteratorIwSt11char_traitsIwEEE2idE)
                  108208c8    00000004                     : wlocale.obj (.far:_ZNSt8time_putIwSt19ostreambuf_iteratorIwSt11char_traitsIwEEE2idE)
                  108208cc    00000004                     : wlocale.obj (.far:_ZNSt9money_getIwSt19istreambuf_iteratorIwSt11char_traitsIwEEE2idE)
                  108208d0    00000004                     : wlocale.obj (.far:_ZNSt9money_putIwSt19ostreambuf_iteratorIwSt11char_traitsIwEEE2idE)
                  108208d4    00000004                     : wlocale.obj (.far)
                  108208d8    00000002     displayFunctions.obj (.far)
                  108208da    00000002     dynamicMemory.obj (.far)
                  108208dc    00000002     frameworkFunctions.obj (.far)
                  108208de    00000002     greedyScheduling.obj (.far)
                  108208e0    00000002     lapackFunctions.obj (.far)
                  108208e2    00000002     lteSystem.obj (.far)
                  108208e4    00000002     memoryManagement.obj (.far)
                  108208e6    00000002     pipdScheduling.obj (.far)
                  108208e8    00000002     randomScheduling.obj (.far)
                  108208ea    00000002     schedulingAlgorithms.obj (.far)
                  108208ec    00000002     succprojScheduling.obj (.far)
                  108208ee    00000002     supportingFunctions.obj (.far)
                  108208f0    00000002     sysMainLTE.obj (.far)

.fardata   0    108208f8    000004b4     
                  108208f8    000001e0     rts6600_elf.lib : defs.obj (.fardata:_ftable)
                  10820ad8    000000a0                     : lowlev.obj (.fardata:_stream)
                  10820b78    00000078                     : lowlev.obj (.fardata:_device)
                  10820bf0    00000068                     : xfvalues.obj (.fardata)
                  10820c58    00000044                     : powf.obj (.fardata:A1$1)
                  10820c9c    00000034                     : setlocale.obj (.fardata)
                  10820cd0    00000028                     : ios.obj (.fardata:_ZSt6stdstr)
                  10820cf8    00000020                     : powf.obj (.fardata:A2$2)
                  10820d18    00000011                     : locale0.obj (.fardata)
                  10820d29    00000003     --HOLE--
                  10820d2c    00000004     blasFunctions.obj (.fardata:_ZNSt9_FacetptrISt5ctypeIcEE6_PsaveE)
                  10820d30    0000000c     rts6600_elf.lib : powf.obj (.fardata:Q$4)
                  10820d3c    0000000c                     : exit.obj (.fardata)
                  10820d48    0000000c                     : ios.obj (.fardata)
                  10820d54    0000000c                     : memory.obj (.fardata)
                  10820d60    0000000a                     : ios.obj (.fardata:_ZSt8stdopens)
                  10820d6a    00000002     --HOLE--
                  10820d6c    00000008                     : _lock.obj (.fardata)
                  10820d74    00000004                     : wiostrea.obj (.fardata:_ZNSt9_FacetptrISt5ctypeIwEE6_PsaveE)
                  10820d78    00000004                     : powf.obj (.fardata:P$3)
                  10820d7c    00000004                     : iostream.obj (.fardata:_ZNSt9_FacetptrISt7codecvtIcciEE6_PsaveE)
                  10820d80    00000004                     : wiostrea.obj (.fardata:_ZNSt9_FacetptrISt7codecvtIwciEE6_PsaveE)
                  10820d84    00000004     dynamicMemory.obj (.fardata:_ZNSt9_FacetptrISt7num_putIcSt19ostreambuf_iteratorIcSt11char_traitsIcEEEE6_PsaveE)
                  10820d88    00000004     dynamicMemory.obj (.fardata:_ZNSt9_FacetptrISt8numpunctIcEE6_PsaveE)
                  10820d8c    00000004     rts6600_elf.lib : defs.obj (.fardata)
                  10820d90    00000004                     : dtor_list.obj (.fardata)
                  10820d94    00000004                     : errno.obj (.fardata)
                  10820d98    00000004                     : iostream.obj (.fardata)
                  10820d9c    00000004                     : raisehan.obj (.fardata)
                  10820da0    00000004                     : rand.obj (.fardata)
                  10820da4    00000004                     : vars.obj (.fardata)
                  10820da8    00000004                     : wiostrea.obj (.fardata)

.cio       0    10820db0    00000120     UNINITIALIZED
                  10820db0    00000120     rts6600_elf.lib : trgmsg.obj (.cio)

.init_array 
*          0    10820ed0    0000004c     
                  10820ed0    00000004     blasFunctions.obj (.init_array)
                  10820ed4    00000004     displayFunctions.obj (.init_array)
                  10820ed8    00000004     dynamicMemory.obj (.init_array)
                  10820edc    00000004     frameworkFunctions.obj (.init_array)
                  10820ee0    00000004     globalDeclarations.obj (.init_array)
                  10820ee4    00000004     greedyScheduling.obj (.init_array)
                  10820ee8    00000004     lapackFunctions.obj (.init_array)
                  10820eec    00000004     lteSystem.obj (.init_array)
                  10820ef0    00000004     memoryManagement.obj (.init_array)
                  10820ef4    00000004     pipdScheduling.obj (.init_array)
                  10820ef8    00000004     randomScheduling.obj (.init_array)
                  10820efc    00000004     rts6600_elf.lib : iostream.obj (.init_array)
                  10820f00    00000004                     : locale0.obj (.init_array)
                  10820f04    00000004                     : wiostrea.obj (.init_array)
                  10820f08    00000004                     : wlocale.obj (.init_array)
                  10820f0c    00000004     schedulingAlgorithms.obj (.init_array)
                  10820f10    00000004     succprojScheduling.obj (.init_array)
                  10820f14    00000004     supportingFunctions.obj (.init_array)
                  10820f18    00000004     sysMainLTE.obj (.init_array)

.bss       0    10820f1c    00000010     UNINITIALIZED
                  10820f1c    00000004     dynamicMemory.obj (.bss:_ZGVNSt7num_putIcSt19ostreambuf_iteratorIcSt11char_traitsIcEEE2idE)
                  10820f20    00000004     dynamicMemory.obj (.bss:_ZGVNSt8numpunctIcE2idE)
                  10820f24    00000004     globalDeclarations.obj (.bss)
                  10820f28    00000004     rts6600_elf.lib : dtor_list.obj (.bss)

.switch    0    10820f2c    00000010     
                  10820f2c    00000010     schedulingAlgorithms.obj (.switch:_Z21performUserSchedulingP14systemConfig_tP16downlinkConfig_t)

.neardata 
*          0    10820f3c    00000008     
                  10820f3c    00000008     lteSystem.obj (.neardata)

.cinit     0    10820f44    000001b0     
                  10820f44    00000154     (.cinit..fardata.load) [load image, compression = rle]
                  10821098    0000000e     (.cinit..neardata.load) [load image, compression = rle]
                  108210a6    00000002     --HOLE-- [fill = 0]
                  108210a8    0000000c     (__TI_handler_table)
                  108210b4    00000008     (.cinit..bigMem.load) [load image, compression = zero_init]
                  108210bc    00000008     (.cinit..bss.load) [load image, compression = zero_init]
                  108210c4    00000008     (.cinit..far.load) [load image, compression = zero_init]
                  108210cc    00000028     (__TI_cinit_table)

.bigMem    0    80000000    0000c800     UNINITIALIZED
                  80000000    0000c800     globalDeclarations.obj (.bigMem)


LINKER GENERATED COPY TABLES

__TI_cinit_table @ 108210cc records: 5, size/record: 8, table size: 40
	.fardata: load addr=10820f44, load size=00000154 bytes, run addr=108208f8, run size=000004b4 bytes, compression=rle
	.neardata: load addr=10821098, load size=0000000e bytes, run addr=10820f3c, run size=00000008 bytes, compression=rle
	.bigMem: load addr=108210b4, load size=00000008 bytes, run addr=80000000, run size=0000c800 bytes, compression=zero_init
	.bss: load addr=108210bc, load size=00000008 bytes, run addr=10820f1c, run size=00000010 bytes, compression=zero_init
	.far: load addr=108210c4, load size=00000008 bytes, run addr=108201d0, run size=00000722 bytes, compression=zero_init


LINKER GENERATED HANDLER TABLE

__TI_handler_table @ 108210a8 records: 3, size/record: 4, table size: 12
	index: 0, handler: __TI_zero_init
	index: 1, handler: __TI_decompress_rle24
	index: 2, handler: __TI_decompress_none


GLOBAL SYMBOLS: SORTED ALPHABETICALLY BY Name 

address    name
--------   ----
1081de40   C$$EXIT
1081b718   C$$IO$$
10820c9c   C_locale
108177a0   HOSTclose
10814e40   HOSTlseek
10815940   HOSTopen
10815a20   HOSTread
10810ba0   HOSTrename
10816660   HOSTunlink
10816720   HOSTwrite
1081c960   _Atexit
10819f80   _Deletegloballocale
10820bf0   _FDenorm
10819fe0   _FDtest
10820c00   _FEps
10820c10   _FInf
10820c20   _FNan
10820c40   _FRteps
10820c30   _FSnan
10820c50   _FXbig
10820c54   _FZero
10815b00   _Fac_tidy
10810d40   _Getctyptab
1081c980   _Getgloballocale
10817840   _Setgloballocale
10812180   _Z10freeMatrixP9cmatrix_t
1081226c   _Z10freeMemoryPvj
1080168c   _Z10matrixCopyP9cmatrix_tS0_15CBLAS_TRANSPOSEb
108019c4   _Z10matrixMultP9cmatrix_tS0_S0_15CBLAS_TRANSPOSES1_b
1080202c   _Z11dotProductVPSt7complexIfES1_t
10801ee4   _Z11matrixMultVP9cmatrix_tPSt7complexIfES3_b
108015f0   _Z12cblas_isamaxjPvj
10801560   _Z12cblas_scnrm2jPvj
10804108   _Z12cleanupUsersP16downlinkConfig_t
10812194   _Z12createMatrixP9cmatrix_ttt
1080fa68   _Z13channelUpdatev
10808bc0   _Z13displayMatrixP9cmatrix_t
10808d08   _Z13displayMatrixR9cmatrix_t
10802fb0   _Z13getNullMatrixP9cmatrix_tS0_
1080fa00   _Z13lteSystemInitv
108020ec   _Z13outerProductVPSt7complexIfES1_P9cmatrix_tS0_
108121f4   _Z13reshapeMatrixP9cmatrix_ttt
10812254   _Z14allocateMemoryj
108025c0   _Z15matrixHermitianP9cmatrix_t
108023e0   _Z15matrixMultSafeAP9cmatrix_tS0_
10802204   _Z15matrixMultSafeBP9cmatrix_tS0_
108027b8   _Z15matrixTransposeP9cmatrix_t
108121c4   _Z16createZeroMatrixP9cmatrix_ttt
10802b34   _Z16getMatrixInverseP9cmatrix_tS0_St7complexIfE
108039cc   _Z16initializeSystemP16downlinkConfig_tP14systemConfig_tttttt
10808f48   _Z17displaySystemInfov
10804090   _Z17updateUserChannelP12userConfig_t
10803e98   _Z18clearDLConfig_UserP16downlinkConfig_tt
10803128   _Z18getQRDecompositionP9cmatrix_tS0_S0_
1080fb8c   _Z18lteSystemTerminatev
10803d18   _Z19updateDLConfig_UserP16downlinkConfig_tP12userConfig_t
10808e50   _Z20displayUserStructureP12userConfig_t
10812224   _Z20reshapeAndCopyMatrixP9cmatrix_ttt
1081c9a0   _Z21__default_new_handlerv
10808fd0   _Z21displayScheduledUsersP14systemConfig_tP16downlinkConfig_t
10804b00   _Z21performPIPDSchedulingP14systemConfig_tP16downlinkConfig_t
10815840   _Z21performUserSchedulingP14systemConfig_tP16downlinkConfig_t
10803ad8   _Z22createNewUserStructurettt
108037e0   _Z22randomizeChannelMatrixP9cmatrix_tb
1080fb48   _Z22schedulingForCurrentSFv
1080bdc0   _Z23performGreedySchedulingP14systemConfig_tP16downlinkConfig_t
1080e2c0   _Z23performRandomSchedulingP14systemConfig_tP16downlinkConfig_t
1080a680   _Z24decomposeChannelMatricesP14systemConfig_tP16downlinkConfig_t
1080aad0   _Z28clearSchedulerConfigurationsP14systemConfig_tP16downlinkConfig_t
108052c0   _Z28performSuccessiveProjectionsP14systemConfig_tP16downlinkConfig_t
108035c4   _Z6getSVDP9cmatrix_tS0_S0_S0_c
10803f74   _Z8freeUserP12userConfig_t
10802a20   _Z9eyeMatrixP9cmatrix_t
1082085c   _ZGVNSt10moneypunctIwLb0EE2idE
10820868   _ZGVNSt10moneypunctIwLb1EE2idE
1082086c   _ZGVNSt7codecvtIcciE2idE
10820870   _ZGVNSt7collateIwE2idE
10820874   _ZGVNSt7num_getIwSt19istreambuf_iteratorIwSt11char_traitsIwEEE2idE
10820f1c   _ZGVNSt7num_putIcSt19ostreambuf_iteratorIcSt11char_traitsIcEEE2idE
10820878   _ZGVNSt7num_putIwSt19ostreambuf_iteratorIwSt11char_traitsIwEEE2idE
1082087c   _ZGVNSt8messagesIwE2idE
10820f20   _ZGVNSt8numpunctIcE2idE
10820880   _ZGVNSt8numpunctIwE2idE
10820884   _ZGVNSt8time_getIwSt19istreambuf_iteratorIwSt11char_traitsIwEEE2idE
10820888   _ZGVNSt9money_getIwSt19istreambuf_iteratorIwSt11char_traitsIwEEE2idE
1082088c   _ZGVNSt9money_putIwSt19ostreambuf_iteratorIwSt11char_traitsIwEEE2idE
1081c9c0   _ZN10__cxxabiv117__class_type_infoD0Ev
1081c9e0   _ZN10__cxxabiv117__class_type_infoD1Ev
1081c9e0   _ZN10__cxxabiv117__class_type_infoD2Ev
1081ca00   _ZN10__cxxabiv120__si_class_type_infoD0Ev
1081ca20   _ZN10__cxxabiv120__si_class_type_infoD1Ev
1081ca20   _ZN10__cxxabiv120__si_class_type_infoD2Ev
1081ca40   _ZN10__cxxabiv121__vmi_class_type_infoD0Ev
1081ca60   _ZN10__cxxabiv121__vmi_class_type_infoD1Ev
1081ca60   _ZN10__cxxabiv121__vmi_class_type_infoD2Ev
10800270   _ZN13DynamicMemory10clearListsEv
1080068c   _ZN13DynamicMemory10getMatrixREP9cmatrix_ttt
10800500   _ZN13DynamicMemory10getMatrixZEtt
10801394   _ZN13DynamicMemory10resetQInfoEv
108013c4   _ZN13DynamicMemory12displayQInfoEv
10800000   _ZN13DynamicMemory12getEmptyListEj
108008ac   _ZN13DynamicMemory12updateMatrixEP9cmatrix_ttt
10800b0c   _ZN13DynamicMemory13reshapeMatrixEP9cmatrix_ttt
10800990   _ZN13DynamicMemory13updateMatrixZEP9cmatrix_ttt
108010f4   _ZN13DynamicMemory15displayDMStatusEv
108003c0   _ZN13DynamicMemory16freeMatrixMemoryEP9cmatrix_t
10801378   _ZN13DynamicMemory16freeMemoryBufferEPvj
10801360   _ZN13DynamicMemory18obtainMemoryBufferEj
10800c40   _ZN13DynamicMemory20reshapeMatrixAndCopyEP9cmatrix_ttt
108011ac   _ZN13DynamicMemory23displayDMCompleteStatusEv
10800414   _ZN13DynamicMemory9getMatrixEtt
108002d0   _ZN13DynamicMemoryC1Ev
108002d0   _ZN13DynamicMemoryC2Ev
1080038c   _ZN13DynamicMemoryD1Ev
1080038c   _ZN13DynamicMemoryD2Ev
1081ca80   _ZNKSaIcE8max_sizeEv
1081caa0   _ZNKSo6sentrycvbEv
1081cac0   _ZNKSs4sizeEv
1081cae0   _ZNKSs5c_strEv
1081b720   _ZNKSs6_MyptrEv
1081b760   _ZNKSs8max_sizeEv
1081cb00   _ZNKSt11logic_error4whatEv
1081cb20   _ZNKSt11logic_error8_DoraiseEv
10812300   _ZNKSt12_String_base5_XlenEv
10810660   _ZNKSt12_String_base5_XranEv
1081cb40   _ZNKSt12codecvt_base11do_encodingEv
1081cb60   _ZNKSt12codecvt_base13do_max_lengthEv
1081cb80   _ZNKSt12codecvt_base16do_always_noconvEv
1081cba0   _ZNKSt12length_error8_DoraiseEv
1081cbc0   _ZNKSt12out_of_range8_DoraiseEv
1081cbe0   _ZNKSt13_Complex_baseIfSt16_C_float_complexE4imagEv
1081cc00   _ZNKSt13_Complex_baseIfSt16_C_float_complexE4realEv
1081cc20   _ZNKSt13runtime_error4whatEv
1081cc40   _ZNKSt13runtime_error8_DoraiseEv
1081b7a0   _ZNKSt15basic_streambufIcSt11char_traitsIcEE8_PnavailEv
1081cc60   _ZNKSt19ostreambuf_iteratorIcSt11char_traitsIcEE6failedEv
1081a040   _ZNKSt5ctypeIcE10do_tolowerEPcPKc
1081b7e0   _ZNKSt5ctypeIcE10do_tolowerEc
1081a0a0   _ZNKSt5ctypeIcE10do_toupperEPcPKc
1081b820   _ZNKSt5ctypeIcE10do_toupperEc
1081b860   _ZNKSt5ctypeIcE5widenEc
1081b8a0   _ZNKSt5ctypeIcE8do_widenEPKcS2_Pc
1081cc80   _ZNKSt5ctypeIcE8do_widenEc
1081b8e0   _ZNKSt5ctypeIcE9do_narrowEPKcS2_cPc
1081cca0   _ZNKSt5ctypeIcE9do_narrowEcc
10818b00   _ZNKSt5ctypeIwE10do_scan_isEsPKwS2_
108168a0   _ZNKSt5ctypeIwE10do_tolowerEPwPKw
10818b80   _ZNKSt5ctypeIwE10do_tolowerEw
10811700   _ZNKSt5ctypeIwE10do_toupperEPwPKw
1081a100   _ZNKSt5ctypeIwE10do_toupperEw
10818c00   _ZNKSt5ctypeIwE11do_scan_notEsPKwS2_
1081ccc0   _ZNKSt5ctypeIwE2isEsw
10813fa0   _ZNKSt5ctypeIwE5do_isEPKwS2_Ps
1081b920   _ZNKSt5ctypeIwE5do_isEsw
1081cce0   _ZNKSt5ctypeIwE5widenEc
1081cd00   _ZNKSt5ctypeIwE6narrowEwc
108178e0   _ZNKSt5ctypeIwE8do_widenEPKcS2_Pw
1081b960   _ZNKSt5ctypeIwE8do_widenEc
108140c0   _ZNKSt5ctypeIwE9do_narrowEPKwS2_cPc
1081b9a0   _ZNKSt5ctypeIwE9do_narrowEwc
10818c80   _ZNKSt6locale9_GetfacetEj
1081cd20   _ZNKSt7codecvtIcciE10do_unshiftERiPcS2_RS2_
1081cd40   _ZNKSt7codecvtIcciE5do_inERiPKcS3_RS3_PcS5_RS5_
1081cd60   _ZNKSt7codecvtIcciE6do_outERiPKcS3_RS3_PcS5_RS5_
1081cd80   _ZNKSt7codecvtIcciE9do_lengthERKiPKcS4_j
10816960   _ZNKSt7codecvtIwciE10do_unshiftERiPcS2_RS2_
1081cda0   _ZNKSt7codecvtIwciE11do_encodingEv
1081cdc0   _ZNKSt7codecvtIwciE13do_max_lengthEv
1081cde0   _ZNKSt7codecvtIwciE16do_always_noconvEv
10811080   _ZNKSt7codecvtIwciE5do_inERiPKcS3_RS3_PwS5_RS5_
10811880   _ZNKSt7codecvtIwciE6do_outERiPKwS3_RS3_PcS5_RS5_
108141e0   _ZNKSt7codecvtIwciE9do_lengthERKiPKcS4_j
10816a20   _ZNKSt7num_putIcSt19ostreambuf_iteratorIcSt11char_traitsIcEEE11_PutgroupedES3_PKcjc
1081b9e0   _ZNKSt7num_putIcSt19ostreambuf_iteratorIcSt11char_traitsIcEEE3putES3_RSt8ios_basecb
1081ba20   _ZNKSt7num_putIcSt19ostreambuf_iteratorIcSt11char_traitsIcEEE3putES3_RSt8ios_basecm
1081a160   _ZNKSt7num_putIcSt19ostreambuf_iteratorIcSt11char_traitsIcEEE4_PutES3_PKcj
1081a1c0   _ZNKSt7num_putIcSt19ostreambuf_iteratorIcSt11char_traitsIcEEE4_RepES3_cj
10814f40   _ZNKSt7num_putIcSt19ostreambuf_iteratorIcSt11char_traitsIcEEE5_FfmtEPccNSt5_IosbIiE9_FmtflagsE
10809160   _ZNKSt7num_putIcSt19ostreambuf_iteratorIcSt11char_traitsIcEEE5_FputES3_RSt8ios_basecPKcjjjj
10814300   _ZNKSt7num_putIcSt19ostreambuf_iteratorIcSt11char_traitsIcEEE5_IfmtEPcPKcNSt5_IosbIiE9_FmtflagsE
1080cb60   _ZNKSt7num_putIcSt19ostreambuf_iteratorIcSt11char_traitsIcEEE5_IputES3_RSt8ios_basecPcj
10818d00   _ZNKSt7num_putIcSt19ostreambuf_iteratorIcSt11char_traitsIcEEE5_PutcES3_PKcj
10817980   _ZNKSt7num_putIcSt19ostreambuf_iteratorIcSt11char_traitsIcEEE6do_putES3_RSt8ios_basecPKv
10810480   _ZNKSt7num_putIcSt19ostreambuf_iteratorIcSt11char_traitsIcEEE6do_putES3_RSt8ios_basecb
1080ce20   _ZNKSt7num_putIcSt19ostreambuf_iteratorIcSt11char_traitsIcEEE6do_putES3_RSt8ios_basecd
1080d0e0   _ZNKSt7num_putIcSt19ostreambuf_iteratorIcSt11char_traitsIcEEE6do_putES3_RSt8ios_basece
10818d80   _ZNKSt7num_putIcSt19ostreambuf_iteratorIcSt11char_traitsIcEEE6do_putES3_RSt8ios_basecl
10818e00   _ZNKSt7num_putIcSt19ostreambuf_iteratorIcSt11char_traitsIcEEE6do_putES3_RSt8ios_basecm
10818e80   _ZNKSt7num_putIcSt19ostreambuf_iteratorIcSt11char_traitsIcEEE6do_putES3_RSt8ios_basecx
10818f00   _ZNKSt7num_putIcSt19ostreambuf_iteratorIcSt11char_traitsIcEEE6do_putES3_RSt8ios_basecy
1081ba60   _ZNKSt8_Locinfo7_GetcvtEv
1081ce00   _ZNKSt8_Locinfo8_GettrueEv
1081baa0   _ZNKSt8_Locinfo9_GetctypeEv
1081ce20   _ZNKSt8_Locinfo9_GetfalseEv
1081ce40   _ZNKSt8_Locinfo9_GetlconvEv
1081ce60   _ZNKSt8ios_base4failEv
1081ce80   _ZNKSt8ios_base4goodEv
1081cea0   _ZNKSt8ios_base5flagsEv
1081cec0   _ZNKSt8ios_base5widthEv
1081cee0   _ZNKSt8ios_base6getlocEv
1081cf00   _ZNKSt8ios_base7failure8_DoraiseEv
1081cf20   _ZNKSt8ios_base7rdstateEv
1081cf40   _ZNKSt8ios_base9precisionEv
1081cf60   _ZNKSt8numpunctIcE11do_groupingEv
1081cf80   _ZNKSt8numpunctIcE11do_truenameEv
1081cfa0   _ZNKSt8numpunctIcE12do_falsenameEv
1081cfc0   _ZNKSt8numpunctIcE13decimal_pointEv
1081cfe0   _ZNKSt8numpunctIcE13thousands_sepEv
1081d000   _ZNKSt8numpunctIcE16do_decimal_pointEv
1081d020   _ZNKSt8numpunctIcE16do_thousands_sepEv
1081bae0   _ZNKSt8numpunctIcE8groupingEv
1081bb20   _ZNKSt8numpunctIcE8truenameEv
1081bb60   _ZNKSt8numpunctIcE9falsenameEv
1081d040   _ZNKSt9basic_iosIcSt11char_traitsIcEE3tieEv
1081d060   _ZNKSt9basic_iosIcSt11char_traitsIcEE4fillEv
1081d080   _ZNKSt9basic_iosIcSt11char_traitsIcEE5rdbufEv
1081a220   _ZNKSt9basic_iosIcSt11char_traitsIcEE5widenEc
1081d0a0   _ZNKSt9exception4whatEv
10818f80   _ZNKSt9exception6_RaiseEv
1081d0c0   _ZNKSt9exception8_DoraiseEv
1081d0e0   _ZNSaIcE10deallocateEPcj
1081d100   _ZNSaIcE8allocateEj
1081d120   _ZNSaIcEC1ERKS_
1081d140   _ZNSaIcEC1Ev
1081a280   _ZNSiD0Ev
1081bba0   _ZNSiD1Ev
10817a20   _ZNSo12_Sentry_baseC1ERSo
1081d160   _ZNSo12_Sentry_baseC2ERSo
10819000   _ZNSo12_Sentry_baseD1Ev
1081d180   _ZNSo12_Sentry_baseD2Ev
10816ae0   _ZNSo3putEc
1081bbe0   _ZNSo5_OsfxEv
10819080   _ZNSo5flushEv
10817ac0   _ZNSo6sentryC1ERSo
1081d1a0   _ZNSo6sentryD1Ev
1081a2e0   _ZNSoD0Ev
1081bc20   _ZNSoD1Ev
1081d1c0   _ZNSolsEPFRSoS_E
10812f60   _ZNSolsEb
108130a0   _ZNSolsEj
1081bc60   _ZNSs4_EosEj
1081e77c   _ZNSs4nposE
10815be0   _ZNSs5_CopyEjj
10816ba0   _ZNSs5_GrowEjb
10819100   _ZNSs5_TidyEbj
10815cc0   _ZNSs5eraseEjj
1081bca0   _ZNSs6_MyptrEv
10816c60   _ZNSs6appendEPKcj
10815040   _ZNSs6appendERKSsjj
10819180   _ZNSs6appendEjc
1081bce0   _ZNSs6assignEPKc
10819200   _ZNSs6assignEPKcj
1081d1e0   _ZNSs6assignERKSs
10815da0   _ZNSs6assignERKSsjj
10815140   _ZNSs6insertEjjc
1081a340   _ZNSs7_InsideEPKc
1081a3a0   _ZNSs9_ChassignEjjc
1081bd20   _ZNSsC1EPKc
1081bd60   _ZNSsC1Ev
1081d200   _ZNSsD1Ev
1081d220   _ZNSsixEj
1081bda0   _ZNSt10ctype_baseC1Ej
1081d240   _ZNSt10ctype_baseC2Ej
1081d260   _ZNSt10ctype_baseD0Ev
1081d280   _ZNSt10ctype_baseD1Ev
1081d2a0   _ZNSt10ctype_baseD2Ev
10820890   _ZNSt10moneypunctIwLb0EE2idE
10820894   _ZNSt10moneypunctIwLb1EE2idE
1081d2c0   _ZNSt11_String_valIcSaIcEEC1ES0_
1081d2e0   _ZNSt11_String_valIcSaIcEEC2ES0_
1081d300   _ZNSt11char_traitsIcE11eq_int_typeERKiS2_
1081d320   _ZNSt11char_traitsIcE11to_int_typeERKc
1081d340   _ZNSt11char_traitsIcE3eofEv
1081d360   _ZNSt11char_traitsIcE4copyEPcPKcj
1081d380   _ZNSt11char_traitsIcE4moveEPcPKcj
1081bde0   _ZNSt11char_traitsIcE6assignEPcjc
1081d3a0   _ZNSt11char_traitsIcE6assignERcRKc
1081d3c0   _ZNSt11char_traitsIcE6lengthEPKc
10819280   _ZNSt11logic_errorC2ERKSs
10819300   _ZNSt11logic_errorD0Ev
10817b60   _ZNSt11logic_errorD1Ev
1081d3e0   _ZNSt12codecvt_baseD0Ev
1081d400   _ZNSt12codecvt_baseD1Ev
10819380   _ZNSt12length_errorD0Ev
10817c00   _ZNSt12length_errorD1Ev
10817ca0   _ZNSt12out_of_rangeC1ERKSs
10819400   _ZNSt12out_of_rangeD0Ev
10817d40   _ZNSt12out_of_rangeD1Ev
1081a400   _ZNSt13_Complex_baseIfSt16_C_float_complexE4_AddIfEEvRKSt7complexIT_E
1080e540   _ZNSt13_Complex_baseIfSt16_C_float_complexE4_DivIfEEvRKSt7complexIT_E
10817de0   _ZNSt13_Complex_baseIfSt16_C_float_complexE4_MulIfEEvRKSt7complexIT_E
1081a460   _ZNSt13_Complex_baseIfSt16_C_float_complexE4_SubIfEEvRKSt7complexIT_E
1081d420   _ZNSt13_Complex_baseIfSt16_C_float_complexE4imagERKf
1081d440   _ZNSt13_Complex_baseIfSt16_C_float_complexE4realERKf
1081be20   _ZNSt13_Complex_baseIfSt16_C_float_complexEC1ERKfS3_
1081d460   _ZNSt13_Complex_baseIfSt16_C_float_complexEC2ERKfS3_
10819480   _ZNSt13basic_filebufIcSt11char_traitsIcEE4syncEv
10816d20   _ZNSt13basic_filebufIcSt11char_traitsIcEE5_InitEPSt4FILENS2_7_InitflE
1080eec0   _ZNSt13basic_filebufIcSt11char_traitsIcEE5imbueERKSt6locale
10807480   _ZNSt13basic_filebufIcSt11char_traitsIcEE5uflowEv
108131e0   _ZNSt13basic_filebufIcSt11char_traitsIcEE6setbufEPci
10820898   _ZNSt13basic_filebufIcSt11char_traitsIcEE7_StinitE
10811220   _ZNSt13basic_filebufIcSt11char_traitsIcEE7seekoffElNSt5_IosbIiE8_SeekdirENS4_9_OpenmodeE
10811a00   _ZNSt13basic_filebufIcSt11char_traitsIcEE7seekposESt4fposIiENSt5_IosbIiE9_OpenmodeE
10806820   _ZNSt13basic_filebufIcSt11char_traitsIcEE8overflowEi
108096e0   _ZNSt13basic_filebufIcSt11char_traitsIcEE9_EndwriteEv
10812460   _ZNSt13basic_filebufIcSt11char_traitsIcEE9pbackfailEi
10817e80   _ZNSt13basic_filebufIcSt11char_traitsIcEE9underflowEv
108125c0   _ZNSt13basic_filebufIcSt11char_traitsIcEED0Ev
10813320   _ZNSt13basic_filebufIcSt11char_traitsIcEED1Ev
10819500   _ZNSt13basic_filebufIwSt11char_traitsIwEE4syncEv
1080f100   _ZNSt13basic_filebufIwSt11char_traitsIwEE5imbueERKSt6locale
10806e60   _ZNSt13basic_filebufIwSt11char_traitsIwEE5uflowEv
10814420   _ZNSt13basic_filebufIwSt11char_traitsIwEE6setbufEPwi
1082089c   _ZNSt13basic_filebufIwSt11char_traitsIwEE7_StinitE
108113c0   _ZNSt13basic_filebufIwSt11char_traitsIwEE7seekoffElNSt5_IosbIiE8_SeekdirENS4_9_OpenmodeE
10811b80   _ZNSt13basic_filebufIwSt11char_traitsIwEE7seekposESt4fposIiENSt5_IosbIiE9_OpenmodeE
108061a0   _ZNSt13basic_filebufIwSt11char_traitsIwEE8overflowEj
10809c20   _ZNSt13basic_filebufIwSt11char_traitsIwEE9_EndwriteEv
10812720   _ZNSt13basic_filebufIwSt11char_traitsIwEE9pbackfailEj
10817f20   _ZNSt13basic_filebufIwSt11char_traitsIwEE9underflowEv
10812880   _ZNSt13basic_filebufIwSt11char_traitsIwEED0Ev
10813460   _ZNSt13basic_filebufIwSt11char_traitsIwEED1Ev
1081a4c0   _ZNSt13basic_istreamIwSt11char_traitsIwEED0Ev
1081be60   _ZNSt13basic_istreamIwSt11char_traitsIwEED1Ev
1081a520   _ZNSt13basic_ostreamIwSt11char_traitsIwEED0Ev
1081bea0   _ZNSt13basic_ostreamIwSt11char_traitsIwEED1Ev
10819580   _ZNSt13runtime_errorD0Ev
10817fc0   _ZNSt13runtime_errorD1Ev
1081d480   _ZNSt15basic_streambufIcSt11char_traitsIcEE4syncEv
1081a580   _ZNSt15basic_streambufIcSt11char_traitsIcEE5_InitEv
1081d4a0   _ZNSt15basic_streambufIcSt11char_traitsIcEE5_LockEv
1081d4c0   _ZNSt15basic_streambufIcSt11char_traitsIcEE5imbueERKSt6locale
10819600   _ZNSt15basic_streambufIcSt11char_traitsIcEE5sputcEc
1081bee0   _ZNSt15basic_streambufIcSt11char_traitsIcEE5sputnEPKci
1081a5e0   _ZNSt15basic_streambufIcSt11char_traitsIcEE5uflowEv
1081d4e0   _ZNSt15basic_streambufIcSt11char_traitsIcEE6_PnincEv
1081d500   _ZNSt15basic_streambufIcSt11char_traitsIcEE6setbufEPci
10815240   _ZNSt15basic_streambufIcSt11char_traitsIcEE6xsgetnEPci
10815340   _ZNSt15basic_streambufIcSt11char_traitsIcEE6xsputnEPKci
1081d520   _ZNSt15basic_streambufIcSt11char_traitsIcEE7_UnlockEv
1081d540   _ZNSt15basic_streambufIcSt11char_traitsIcEE7pubsyncEv
1081a640   _ZNSt15basic_streambufIcSt11char_traitsIcEE7seekoffElNSt5_IosbIiE8_SeekdirENS4_9_OpenmodeE
1081a6a0   _ZNSt15basic_streambufIcSt11char_traitsIcEE7seekposESt4fposIiENSt5_IosbIiE9_OpenmodeE
1081d560   _ZNSt15basic_streambufIcSt11char_traitsIcEE8overflowEi
1081d580   _ZNSt15basic_streambufIcSt11char_traitsIcEE9pbackfailEi
1081d5a0   _ZNSt15basic_streambufIcSt11char_traitsIcEE9showmanycEv
1081d5c0   _ZNSt15basic_streambufIcSt11char_traitsIcEE9underflowEv
1081a700   _ZNSt15basic_streambufIcSt11char_traitsIcEED0Ev
1081a760   _ZNSt15basic_streambufIcSt11char_traitsIcEED1Ev
1081d5e0   _ZNSt15basic_streambufIwSt11char_traitsIwEE4syncEv
1081a7c0   _ZNSt15basic_streambufIwSt11char_traitsIwEE5_InitEv
1081d600   _ZNSt15basic_streambufIwSt11char_traitsIwEE5_LockEv
1081d620   _ZNSt15basic_streambufIwSt11char_traitsIwEE5imbueERKSt6locale
1081a820   _ZNSt15basic_streambufIwSt11char_traitsIwEE5uflowEv
1081d640   _ZNSt15basic_streambufIwSt11char_traitsIwEE6setbufEPwi
10814540   _ZNSt15basic_streambufIwSt11char_traitsIwEE6xsgetnEPwi
10815440   _ZNSt15basic_streambufIwSt11char_traitsIwEE6xsputnEPKwi
1081d660   _ZNSt15basic_streambufIwSt11char_traitsIwEE7_UnlockEv
1081a880   _ZNSt15basic_streambufIwSt11char_traitsIwEE7seekoffElNSt5_IosbIiE8_SeekdirENS4_9_OpenmodeE
1081a8e0   _ZNSt15basic_streambufIwSt11char_traitsIwEE7seekposESt4fposIiENSt5_IosbIiE9_OpenmodeE
1081d680   _ZNSt15basic_streambufIwSt11char_traitsIwEE8overflowEj
1081d6a0   _ZNSt15basic_streambufIwSt11char_traitsIwEE9pbackfailEj
1081d6c0   _ZNSt15basic_streambufIwSt11char_traitsIwEE9showmanycEv
1081d6e0   _ZNSt15basic_streambufIwSt11char_traitsIwEE9underflowEv
1081a940   _ZNSt15basic_streambufIwSt11char_traitsIwEED0Ev
1081a9a0   _ZNSt15basic_streambufIwSt11char_traitsIwEED1Ev
1081bf20   _ZNSt19ostreambuf_iteratorIcSt11char_traitsIcEEC1EPSt15basic_streambufIcS1_E
10819680   _ZNSt19ostreambuf_iteratorIcSt11char_traitsIcEEaSEc
1081d700   _ZNSt19ostreambuf_iteratorIcSt11char_traitsIcEEdeEv
1081d720   _ZNSt19ostreambuf_iteratorIcSt11char_traitsIcEEppEv
108208a0   _ZNSt4fposIiE4_StzE
10820854   _ZNSt5ctypeIcE2idE
1081d740   _ZNSt5ctypeIcE5_InitERKSt8_Locinfo
1081bf60   _ZNSt5ctypeIcE5_TidyEv
1081aa00   _ZNSt5ctypeIcE7_GetcatEPPKNSt6locale5facetE
10818060   _ZNSt5ctypeIcEC1EPKsbj
1081d760   _ZNSt5ctypeIcED0Ev
1081bfa0   _ZNSt5ctypeIcED1Ev
108208d4   _ZNSt5ctypeIwE2idE
1081aa60   _ZNSt5ctypeIwED0Ev
1081aac0   _ZNSt5ctypeIwED1Ev
10820da8   _ZNSt6_Winit9_Init_cntE
108041e0   _ZNSt6_WinitC1Ev
108041e0   _ZNSt6_WinitC2Ev
1080e7a0   _ZNSt6_WinitD1Ev
1080e7a0   _ZNSt6_WinitD2Ev
10820d18   _ZNSt6locale2id7_Id_cntE
1081d780   _ZNSt6locale2idC1Ej
1081ab20   _ZNSt6locale2idcvjEv
108135a0   _ZNSt6locale5_InitEv
1081ab80   _ZNSt6locale5facet7_DecrefEv
1081bfe0   _ZNSt6locale5facet7_IncrefEv
10819700   _ZNSt6locale5facet9_RegisterEv
1081c020   _ZNSt6locale5facetC1Ej
1081d7a0   _ZNSt6locale5facetC2Ej
1081d7c0   _ZNSt6locale5facetD0Ev
1081d7e0   _ZNSt6locale5facetD1Ev
1081d800   _ZNSt6locale5facetD2Ev
10820d1c   _ZNSt6locale7_Locimp8_ClocptrE
10816de0   _ZNSt6locale7_LocimpC1Eb
10816de0   _ZNSt6locale7_LocimpC2Eb
1081abe0   _ZNSt6locale7_LocimpD0Ev
108136e0   _ZNSt6locale7_LocimpD1Ev
108136e0   _ZNSt6locale7_LocimpD2Ev
1081c060   _ZNSt6localeC1ERKS_
1081ac40   _ZNSt6localeC1Ev
1081ac40   _ZNSt6localeC2Ev
1081c0a0   _ZNSt6localeD1Ev
1081d820   _ZNSt7_LockitC1Ei
1081d840   _ZNSt7_LockitD1Ev
108208a4   _ZNSt7codecvtIcciE2idE
1081d860   _ZNSt7codecvtIcciED0Ev
1081d880   _ZNSt7codecvtIcciED1Ev
10820850   _ZNSt7codecvtIwciE2idE
1081d8a0   _ZNSt7codecvtIwciED0Ev
1081d8c0   _ZNSt7codecvtIwciED1Ev
108208a8   _ZNSt7collateIwE2idE
1081d8e0   _ZNSt7complexIfEC1ERKS0_
1081d900   _ZNSt7complexIfEC1ERKfS2_
1081c0e0   _ZNSt7complexIfEaSERKf
1081aca0   _ZNSt7complexIfEdVERKf
1081d920   _ZNSt7complexIfEdVIfEERS0_RKS_IT_E
1081d940   _ZNSt7complexIfEmIIfEERS0_RKS_IT_E
1081d960   _ZNSt7complexIfEmLIfEERS0_RKS_IT_E
1081d980   _ZNSt7complexIfEpLIfEERS0_RKS_IT_E
108208ac   _ZNSt7num_getIwSt19istreambuf_iteratorIwSt11char_traitsIwEEE2idE
108208b0   _ZNSt7num_putIcSt19ostreambuf_iteratorIcSt11char_traitsIcEEE2idE
1081d9a0   _ZNSt7num_putIcSt19ostreambuf_iteratorIcSt11char_traitsIcEEE5_InitERKSt8_Locinfo
1081c120   _ZNSt7num_putIcSt19ostreambuf_iteratorIcSt11char_traitsIcEEE7_GetcatEPPKNSt6locale5facetE
1081ad00   _ZNSt7num_putIcSt19ostreambuf_iteratorIcSt11char_traitsIcEEEC1Ej
1081d9c0   _ZNSt7num_putIcSt19ostreambuf_iteratorIcSt11char_traitsIcEEED0Ev
1081d9e0   _ZNSt7num_putIcSt19ostreambuf_iteratorIcSt11char_traitsIcEEED1Ev
108208b4   _ZNSt7num_putIwSt19ostreambuf_iteratorIwSt11char_traitsIwEEE2idE
1081da00   _ZNSt8_CtraitsIfE4sqrtEf
1081da20   _ZNSt8_CtraitsIfE5_InfvEf
1081da40   _ZNSt8_CtraitsIfE5_NanvEf
1081da60   _ZNSt8_CtraitsIfE5ldexpEfi
1081da80   _ZNSt8_CtraitsIfE6_IsinfEf
1081daa0   _ZNSt8_CtraitsIfE6_IsnanEf
10813820   _ZNSt8_LocinfoC1EPKc
10813820   _ZNSt8_LocinfoC2EPKc
10814660   _ZNSt8_LocinfoD1Ev
10814660   _ZNSt8_LocinfoD2Ev
10820d98   _ZNSt8ios_base4Init9_Init_cntE
10805a40   _ZNSt8ios_base4InitC1Ev
10805a40   _ZNSt8ios_base4InitC2Ev
10810820   _ZNSt8ios_base4InitD1Ev
10810820   _ZNSt8ios_base4InitD2Ev
10818100   _ZNSt8ios_base5_InitEv
10820d4c   _ZNSt8ios_base5_SyncE
108181a0   _ZNSt8ios_base5_TidyEv
1080aba0   _ZNSt8ios_base5clearENSt5_IosbIiE8_IostateEb
1081c160   _ZNSt8ios_base5widthEi
10820d48   _ZNSt8ios_base6_IndexE
10819780   _ZNSt8ios_base7_AddstdEv
10819800   _ZNSt8ios_base7failureD0Ev
10818240   _ZNSt8ios_base7failureD1Ev
10819880   _ZNSt8ios_base8_CallfnsENS_5eventE
1081ad60   _ZNSt8ios_baseD0Ev
10816ea0   _ZNSt8ios_baseD1Ev
10816ea0   _ZNSt8ios_baseD2Ev
108208b8   _ZNSt8messagesIwE2idE
108208bc   _ZNSt8numpunctIcE2idE
10813960   _ZNSt8numpunctIcE5_InitERKSt8_Locinfo
1081c1a0   _ZNSt8numpunctIcE5_TidyEv
1081c1e0   _ZNSt8numpunctIcE7_GetcatEPPKNSt6locale5facetE
1081adc0   _ZNSt8numpunctIcEC1Ej
1081dac0   _ZNSt8numpunctIcED0Ev
1081c220   _ZNSt8numpunctIcED1Ev
108208c0   _ZNSt8numpunctIwE2idE
108208c4   _ZNSt8time_getIwSt19istreambuf_iteratorIwSt11char_traitsIwEEE2idE
108208c8   _ZNSt8time_putIwSt19ostreambuf_iteratorIwSt11char_traitsIwEEE2idE
10820d2c   _ZNSt9_FacetptrISt5ctypeIcEE6_PsaveE
10820d74   _ZNSt9_FacetptrISt5ctypeIwEE6_PsaveE
10820d7c   _ZNSt9_FacetptrISt7codecvtIcciEE6_PsaveE
10820d80   _ZNSt9_FacetptrISt7codecvtIwciEE6_PsaveE
10820d84   _ZNSt9_FacetptrISt7num_putIcSt19ostreambuf_iteratorIcSt11char_traitsIcEEEE6_PsaveE
10820d88   _ZNSt9_FacetptrISt8numpunctIcEE6_PsaveE
108129e0   _ZNSt9basic_iosIcSt11char_traitsIcEE4initEPSt15basic_streambufIcS1_Eb
1081c260   _ZNSt9basic_iosIcSt11char_traitsIcEE5clearENSt5_IosbIiE8_IostateEb
1081c2a0   _ZNSt9basic_iosIcSt11char_traitsIcEE8setstateENSt5_IosbIiE8_IostateEb
1081ae20   _ZNSt9basic_iosIcSt11char_traitsIcEED0Ev
1081dae0   _ZNSt9basic_iosIcSt11char_traitsIcEED1Ev
10812b40   _ZNSt9basic_iosIwSt11char_traitsIwEE4initEPSt15basic_streambufIwS1_Eb
1081ae80   _ZNSt9basic_iosIwSt11char_traitsIwEED0Ev
1081db00   _ZNSt9basic_iosIwSt11char_traitsIwEED1Ev
1081db20   _ZNSt9exceptionD0Ev
1081db40   _ZNSt9exceptionD1Ev
108208cc   _ZNSt9money_getIwSt19istreambuf_iteratorIwSt11char_traitsIwEEE2idE
108208d0   _ZNSt9money_putIwSt19ostreambuf_iteratorIwSt11char_traitsIwEEE2idE
1081db60   _ZSt10_MaklocchrIcET_cPS0_RKSt7_Cvtvec
10819900   _ZSt10_MaklocstrIcEPT_PKcS1_RKSt7_Cvtvec
10819980   _ZSt14_Debug_messagePKcS0_
10820d9c   _ZSt14_Raise_handler
1081c2e0   _ZSt3absIfET_RKSt7complexIS0_E
1081c320   _ZSt3absf
10820448   _ZSt3cin
1081c360   _ZSt3powff
10820d50   _ZSt4_Fpz
1082050c   _ZSt4cerr
10820544   _ZSt4clog
1081aee0   _ZSt4conjIfESt7complexIT_ERKS2_
10820484   _ZSt4cout
1081c3a0   _ZSt4endlIcSt11char_traitsIcEERSt13basic_ostreamIT_T0_ES6_
1081dba0   _ZSt4imagIfET_RKSt7complexIS0_E
1081dbc0   _ZSt4realIfET_RKSt7complexIS0_E
1081dbe0   _ZSt4sqrtf
108202c4   _ZSt4wcin
1080d640   _ZSt5_FabsIfET_RKSt7complexIS0_EPi
10820338   _ZSt5wcerr
10820370   _ZSt5wclog
10820300   _ZSt5wcout
1081c3e0   _ZSt6_ThrowRKSt9exception
1081eb2c   _ZSt7_BADOFF
1081dc00   _ZSt8_ToloweriPKSt9_Ctypevec
1081dc20   _ZSt8_ToupperiPKSt9_Ctypevec
1081dc40   _ZSt9_AllocateIcEPT_jS1_
10816f60   _ZSt9use_facetISt5ctypeIcEERKT_RKSt6locale
10811d00   _ZSt9use_facetISt5ctypeIwEERKT_RKSt6locale
10817020   _ZSt9use_facetISt7num_putIcSt19ostreambuf_iteratorIcSt11char_traitsIcEEEERKT_RKSt6locale
108170e0   _ZSt9use_facetISt8numpunctIcEERKT_RKSt6locale
1081dc60   _ZStanNSt5_IosbIiE9_FmtflagsES1_
1081c420   _ZStdvIfESt7complexIT_ERKS1_RKS2_
1081af40   _ZStdvIfESt7complexIT_ERKS2_RKS1_
1081c460   _ZStdvIfESt7complexIT_ERKS2_S4_
1080d8c0   _ZStlsISt11char_traitsIcEERSt13basic_ostreamIcT_ES5_PKc
1081c4a0   _ZStmiIfESt7complexIT_ERKS2_S4_
1081c4e0   _ZStmlIfESt7complexIT_ERKS1_RKS2_
1081c520   _ZStmlIfESt7complexIT_ERKS2_S4_
1081c560   _ZStoRRNSt5_IosbIiE8_IostateES1_
1081c5a0   _ZStplIfESt7complexIT_ERKS2_S4_
1081f02c   _ZTIN10__cxxabiv117__class_type_infoE
1081f038   _ZTIN10__cxxabiv120__si_class_type_infoE
1081f044   _ZTIN10__cxxabiv121__vmi_class_type_infoE
1081f140   _ZTINSt6locale5facetE
1081f050   _ZTINSt6locale7_LocimpE
1081f05c   _ZTINSt8ios_base7failureE
1081ed1c   _ZTISi
1081ed34   _ZTISo
1081f068   _ZTISt10ctype_base
1081f074   _ZTISt11logic_error
1081f080   _ZTISt12codecvt_base
1081f08c   _ZTISt12length_error
1081f098   _ZTISt12out_of_range
1081f0a4   _ZTISt13basic_filebufIcSt11char_traitsIcEE
1081f0b0   _ZTISt13basic_filebufIwSt11char_traitsIwEE
1081ed4c   _ZTISt13basic_istreamIwSt11char_traitsIwEE
1081ed64   _ZTISt13basic_ostreamIwSt11char_traitsIwEE
1081f0bc   _ZTISt13runtime_error
1081f148   _ZTISt15basic_streambufIcSt11char_traitsIcEE
1081f150   _ZTISt15basic_streambufIwSt11char_traitsIwEE
1081f158   _ZTISt5_IosbIiE
1081f0c8   _ZTISt5ctypeIcE
1081f0d4   _ZTISt5ctypeIwE
1081f0e0   _ZTISt7codecvtIcciE
1081f0ec   _ZTISt7codecvtIwciE
1081f0f8   _ZTISt7num_putIcSt19ostreambuf_iteratorIcSt11char_traitsIcEEE
1081f104   _ZTISt8ios_base
1081f110   _ZTISt8numpunctIcE
1081f11c   _ZTISt9basic_iosIcSt11char_traitsIcEE
1081f128   _ZTISt9basic_iosIwSt11char_traitsIwEE
1081f160   _ZTISt9exception
1081f168   _ZTISt9type_info
1081ec68   _ZTSN10__cxxabiv117__class_type_infoE
1081ebf8   _ZTSN10__cxxabiv120__si_class_type_infoE
1081ebd0   _ZTSN10__cxxabiv121__vmi_class_type_infoE
1081ee68   _ZTSNSt6locale5facetE
1081ee40   _ZTSNSt6locale7_LocimpE
1081ee10   _ZTSNSt8ios_base7failureE
1081f188   _ZTSSi
1081f190   _ZTSSo
1081efb0   _ZTSSt10ctype_base
1081eee0   _ZTSSt11logic_error
1081ee98   _ZTSSt12codecvt_base
1081eeb0   _ZTSSt12length_error
1081eec8   _ZTSSt12out_of_range
1081eb30   _ZTSSt13basic_filebufIcSt11char_traitsIcEE
1081eb58   _ZTSSt13basic_filebufIwSt11char_traitsIwEE
1081eb80   _ZTSSt13basic_istreamIwSt11char_traitsIwEE
1081eba8   _ZTSSt13basic_ostreamIwSt11char_traitsIwEE
1081ee80   _ZTSSt13runtime_error
1081ead0   _ZTSSt15basic_streambufIcSt11char_traitsIcEE
1081eb00   _ZTSSt15basic_streambufIwSt11char_traitsIwEE
1081eff0   _ZTSSt5_IosbIiE
1081f000   _ZTSSt5ctypeIcE
1081f010   _ZTSSt5ctypeIwE
1081eef0   _ZTSSt7codecvtIcciE
1081ef00   _ZTSSt7codecvtIwciE
1081e8e0   _ZTSSt7num_putIcSt19ostreambuf_iteratorIcSt11char_traitsIcEEE
1081f020   _ZTSSt8ios_base
1081efc0   _ZTSSt8numpunctIcE
1081ec90   _ZTSSt9basic_iosIcSt11char_traitsIcEE
1081ecb8   _ZTSSt9basic_iosIwSt11char_traitsIwEE
1081efd0   _ZTSSt9exception
1081efe0   _ZTSSt9type_info
1081e978   _ZTTSi
1081e9a8   _ZTTSo
1081e9d8   _ZTTSt13basic_istreamIwSt11char_traitsIwEE
1081ea08   _ZTTSt13basic_ostreamIwSt11char_traitsIwEE
1081ef20   _ZTVN10__cxxabiv117__class_type_infoE
1081ef30   _ZTVN10__cxxabiv120__si_class_type_infoE
1081ef40   _ZTVN10__cxxabiv121__vmi_class_type_infoE
1081ef50   _ZTVNSt6locale5facetE
1081ef60   _ZTVNSt6locale7_LocimpE
1081ed80   _ZTVNSt8ios_base7failureE
1081e950   _ZTVSi
1081e980   _ZTVSo
1081ef70   _ZTVSt10ctype_base
1081ed98   _ZTVSt11logic_error
1081ed00   _ZTVSt12codecvt_base
1081edb0   _ZTVSt12length_error
1081edc8   _ZTVSt12out_of_range
1081e780   _ZTVSt13basic_filebufIcSt11char_traitsIcEE
1081e7c8   _ZTVSt13basic_filebufIwSt11char_traitsIwEE
1081e9b0   _ZTVSt13basic_istreamIwSt11char_traitsIwEE
1081e9e0   _ZTVSt13basic_ostreamIwSt11char_traitsIwEE
1081ede0   _ZTVSt13runtime_error
1081e810   _ZTVSt15basic_streambufIcSt11char_traitsIcEE
1081e858   _ZTVSt15basic_streambufIwSt11char_traitsIwEE
1081ea10   _ZTVSt5ctypeIcE
1081e8a0   _ZTVSt5ctypeIwE
1081ea70   _ZTVSt7codecvtIcciE
1081eaa0   _ZTVSt7codecvtIwciE
1081ea40   _ZTVSt7num_putIcSt19ostreambuf_iteratorIcSt11char_traitsIcEEE
1081ef80   _ZTVSt8ios_base
1081ec20   _ZTVSt8numpunctIcE
1081ef90   _ZTVSt9basic_iosIcSt11char_traitsIcEE
1081efa0   _ZTVSt9basic_iosIwSt11char_traitsIwEE
1081edf8   _ZTVSt9exception
1081afa0   _ZTv0_n12_NSiD0Ev
1081c5e0   _ZTv0_n12_NSiD1Ev
1081b000   _ZTv0_n12_NSoD0Ev
1081c620   _ZTv0_n12_NSoD1Ev
1081b060   _ZTv0_n12_NSt13basic_istreamIwSt11char_traitsIwEED0Ev
1081c660   _ZTv0_n12_NSt13basic_istreamIwSt11char_traitsIwEED1Ev
1081b0c0   _ZTv0_n12_NSt13basic_ostreamIwSt11char_traitsIwEED0Ev
1081c6a0   _ZTv0_n12_NSt13basic_ostreamIwSt11char_traitsIwEED1Ev
1081f1c0   _ZZNKSt7num_putIcSt19ostreambuf_iteratorIcSt11char_traitsIcEEE5_FputES3_RSt8ios_basecPKcjjjjEs
1081f1c8   _ZZNKSt7num_putIcSt19ostreambuf_iteratorIcSt11char_traitsIcEEE5_FputES3_RSt8ios_basecPKcjjjjEs_0
1081f198   _ZZNKSt7num_putIcSt19ostreambuf_iteratorIcSt11char_traitsIcEEE6do_putES3_RSt8ios_basecPKvEs
1081f1a0   _ZZNKSt7num_putIcSt19ostreambuf_iteratorIcSt11char_traitsIcEEE6do_putES3_RSt8ios_baseclEs
1081f1a8   _ZZNKSt7num_putIcSt19ostreambuf_iteratorIcSt11char_traitsIcEEE6do_putES3_RSt8ios_basecmEs
1081f1b0   _ZZNKSt7num_putIcSt19ostreambuf_iteratorIcSt11char_traitsIcEEE6do_putES3_RSt8ios_basecxEs
1081f1b8   _ZZNKSt7num_putIcSt19ostreambuf_iteratorIcSt11char_traitsIcEEE6do_putES3_RSt8ios_basecyEs
1081f180   _ZZNKSt8_Locinfo8_GettrueEvEs
1081f178   _ZZNKSt8_Locinfo9_GetfalseEvEs
1081ea9c   _ZZSt5_FabsIfET_RKSt7complexIS0_EPiE16_Oneplusroot2low
1081eacc   _ZZSt5_FabsIfET_RKSt7complexIS0_EPiE17_Oneplusroot2high
1081eafc   _ZZSt5_FabsIfET_RKSt7complexIS0_EPiE6_Root2
1081dc80   _ZdaPv
1081dc80   _ZdlPv
108182e0   _Znaj
108182e0   _Znwj
1081dca0   _ZnwjPv
10820db0   __CIOBUF_
108210cc   __TI_CINIT_Base
108210f4   __TI_CINIT_Limit
108210a8   __TI_Handler_Table_Base
108210b4   __TI_Handler_Table_Limit
10820ed0   __TI_INITARRAY_Base
10820f1c   __TI_INITARRAY_Limit
108201d0   __TI_STACK_END
00001000   __TI_STACK_SIZE
10820f1c   __TI_STATIC_BASE
0007ffff   __TI_SYSMEM_SIZE
UNDEFED    __TI_TLS_INIT_Base
UNDEFED    __TI_TLS_INIT_Limit
00000001   __TI_args_main
1081b120   __TI_cpp_init
1081de80   __TI_decompress_none
1081dea0   __TI_decompress_rle24
10820d44   __TI_enable_exit_profile_output
ffffffff   __TI_pprof_out_hndl
ffffffff   __TI_prof_data_size
ffffffff   __TI_prof_data_start
108176e0   __TI_tls_init
10816200   __TI_zero_init
ffffffff   __binit__
10808040   __c6xabi_divd
1080db40   __c6xabi_divf
10815e80   __c6xabi_divi
10817260   __c6xabi_divu
10811560   __c6xabi_divul
1080f340   __c6xabi_divull
1081dcc0   __c6xabi_errno_addr
10819a00   __c6xabi_fixfu
1081b180   __c6xabi_frcmpyd_div
1081c6e0   __c6xabi_isinf
10819a80   __c6xabi_llshl
1081b1e0   __c6xabi_llshru
1081dce0   __c6xabi_negll
10817320   __c6xabi_remi
10819b00   __c6xabi_roundf
1081dd00   __c6xabi_truncf
ffffffff   __c_args__
1081dd20   __cxa_atexit
108171a0   __cxa_finalize
1081dd40   __cxa_guard_acquire
1081dd60   __cxa_guard_release
1081dd80   __cxa_ia64_exit
1081b240   __cxa_vec_ctor
1081b2a0   __cxa_vec_new
10815e80   __divi
10817260   __divu
10820f28   __dso_handle
10820d94   __errno
1081dda0   __memzero
10817320   __remi
1081c760   __sti___11_locale0_cpp_36e19383
1080b9c0   __sti___11_wlocale_cpp_5e80b67f
1080ea00   __sti___12_iostream_cpp_3a72482d
1080ec60   __sti___12_wiostrea_cpp_5e80b67f
1080fbd4   __sti___13_lteSystem_cpp_g_nUsers
10819e20   __sti___14_sysMainLTE_cpp_main
108029b0   __sti___17_blasFunctions_cpp_1c39e1a6
1080148c   __sti___17_dynamicMemory_cpp_b71521f0
1080524c   __sti___18_pipdScheduling_cpp_1c39e1a6
10803778   __sti___19_lapackFunctions_cpp_4deb6974
108090f0   __sti___20_displayFunctions_cpp_dbd75e48
1080c148   __sti___20_greedyScheduling_cpp_b8e1509e
1081228c   __sti___20_memoryManagement_cpp_bbe36996
1080e4d8   __sti___20_randomScheduling_cpp_1a9b9836
10804170   __sti___22_frameworkFunctions_cpp_ce0052a8
10817620   __sti___22_globalDeclarations_cpp_286f88f8
108059e4   __sti___22_succprojScheduling_cpp_87bf4a20
1080ab38   __sti___23_supportingFunctions_cpp_fd751b3a
108158cc   __sti___24_schedulingAlgorithms_cpp_fc6d3ca0
1081c7a0   _args_main
10815540   _auto_init_elf
10814780   _buff_read
10819b80   _c_int00
10818380   _cleanup
10820d3c   _cleanup_ptr
108148a0   _closefile
1081e560   _ctypes_
108173e0   _doflush
10820d40   _dtors_ptr
10820d8c   _ft_end
108208f8   _ftable
10820d6c   _lock
10818560   _minit
10820da4   _new_handler
1081ddc0   _nop
1080b560   _printfi
108174a0   _rd_ok
1081f1d0   _stack
1081b300   _subcull
0c000000   _sys_memory
10820710   _tmpnams
10820d70   _unlock
10815640   _wrt_ok
1081de40   abort
1081de60   atexit
10816040   atoi
ffffffff   binit
10819c00   calloc
10816120   close
10815740   copy_in
1082057c   dlConfig
10820f24   dynamicMemory
10820d94   errno
10817560   exit
1081b360   fclose
108162e0   fflush
10813be0   fgetc
1081b3c0   fgetpos
1081dec0   fgetwc
1080fe60   fputc
1080c1c0   fputs
1081dee0   fputwc
1080e040   free
10812ca0   frexpf
10814ae0   fseek
1081df00   fsetpos
10814c00   ftell
1080b0a0   fwrite
10820f40   g_nReceive
10820f42   g_nSchedBlocks
10820f3e   g_nTransmit
10820f3c   g_nUsers
80000000   globalChannelMatrix
10812e00   ldexpf
1081df20   localeconv
10818740   lseek
108163c0   ltoa
10819e00   main
10812000   malloc
1081c820   mbrtowc
1081c860   mbtowc
1081b420   memccpy
10819c80   memchr
108187e0   memcpy
1081b480   memmove
108164a0   memset
1081b4e0   modff
10807a60   powf
10816580   printf
10819d00   rand
108189c0   read
10819d80   readmsg
10819e80   remove
1081b540   setlocale
10810280   setvbuf
1081b5a0   sprintf
10814d20   sqrtf
1081c8a0   strcmp
1081b600   strcspn
1081c8e0   strlen
10820700   sysConfig
1081df40   tolower
1081df60   toupper
10813e60   ungetc
1081b660   ungetwc
10819e80   unlink
1081c920   wcrtomb
1081df80   wctomb
10819f00   wmemcpy
10818a60   write
1081b6c0   writemsg


GLOBAL SYMBOLS: SORTED BY Symbol Address 

address    name
--------   ----
00000001   __TI_args_main
00001000   __TI_STACK_SIZE
0007ffff   __TI_SYSMEM_SIZE
0c000000   _sys_memory
10800000   _ZN13DynamicMemory12getEmptyListEj
10800270   _ZN13DynamicMemory10clearListsEv
108002d0   _ZN13DynamicMemoryC1Ev
108002d0   _ZN13DynamicMemoryC2Ev
1080038c   _ZN13DynamicMemoryD1Ev
1080038c   _ZN13DynamicMemoryD2Ev
108003c0   _ZN13DynamicMemory16freeMatrixMemoryEP9cmatrix_t
10800414   _ZN13DynamicMemory9getMatrixEtt
10800500   _ZN13DynamicMemory10getMatrixZEtt
1080068c   _ZN13DynamicMemory10getMatrixREP9cmatrix_ttt
108008ac   _ZN13DynamicMemory12updateMatrixEP9cmatrix_ttt
10800990   _ZN13DynamicMemory13updateMatrixZEP9cmatrix_ttt
10800b0c   _ZN13DynamicMemory13reshapeMatrixEP9cmatrix_ttt
10800c40   _ZN13DynamicMemory20reshapeMatrixAndCopyEP9cmatrix_ttt
108010f4   _ZN13DynamicMemory15displayDMStatusEv
108011ac   _ZN13DynamicMemory23displayDMCompleteStatusEv
10801360   _ZN13DynamicMemory18obtainMemoryBufferEj
10801378   _ZN13DynamicMemory16freeMemoryBufferEPvj
10801394   _ZN13DynamicMemory10resetQInfoEv
108013c4   _ZN13DynamicMemory12displayQInfoEv
1080148c   __sti___17_dynamicMemory_cpp_b71521f0
10801560   _Z12cblas_scnrm2jPvj
108015f0   _Z12cblas_isamaxjPvj
1080168c   _Z10matrixCopyP9cmatrix_tS0_15CBLAS_TRANSPOSEb
108019c4   _Z10matrixMultP9cmatrix_tS0_S0_15CBLAS_TRANSPOSES1_b
10801ee4   _Z11matrixMultVP9cmatrix_tPSt7complexIfES3_b
1080202c   _Z11dotProductVPSt7complexIfES1_t
108020ec   _Z13outerProductVPSt7complexIfES1_P9cmatrix_tS0_
10802204   _Z15matrixMultSafeBP9cmatrix_tS0_
108023e0   _Z15matrixMultSafeAP9cmatrix_tS0_
108025c0   _Z15matrixHermitianP9cmatrix_t
108027b8   _Z15matrixTransposeP9cmatrix_t
108029b0   __sti___17_blasFunctions_cpp_1c39e1a6
10802a20   _Z9eyeMatrixP9cmatrix_t
10802b34   _Z16getMatrixInverseP9cmatrix_tS0_St7complexIfE
10802fb0   _Z13getNullMatrixP9cmatrix_tS0_
10803128   _Z18getQRDecompositionP9cmatrix_tS0_S0_
108035c4   _Z6getSVDP9cmatrix_tS0_S0_S0_c
10803778   __sti___19_lapackFunctions_cpp_4deb6974
108037e0   _Z22randomizeChannelMatrixP9cmatrix_tb
108039cc   _Z16initializeSystemP16downlinkConfig_tP14systemConfig_tttttt
10803ad8   _Z22createNewUserStructurettt
10803d18   _Z19updateDLConfig_UserP16downlinkConfig_tP12userConfig_t
10803e98   _Z18clearDLConfig_UserP16downlinkConfig_tt
10803f74   _Z8freeUserP12userConfig_t
10804090   _Z17updateUserChannelP12userConfig_t
10804108   _Z12cleanupUsersP16downlinkConfig_t
10804170   __sti___22_frameworkFunctions_cpp_ce0052a8
108041e0   _ZNSt6_WinitC1Ev
108041e0   _ZNSt6_WinitC2Ev
10804b00   _Z21performPIPDSchedulingP14systemConfig_tP16downlinkConfig_t
1080524c   __sti___18_pipdScheduling_cpp_1c39e1a6
108052c0   _Z28performSuccessiveProjectionsP14systemConfig_tP16downlinkConfig_t
108059e4   __sti___22_succprojScheduling_cpp_87bf4a20
10805a40   _ZNSt8ios_base4InitC1Ev
10805a40   _ZNSt8ios_base4InitC2Ev
108061a0   _ZNSt13basic_filebufIwSt11char_traitsIwEE8overflowEj
10806820   _ZNSt13basic_filebufIcSt11char_traitsIcEE8overflowEi
10806e60   _ZNSt13basic_filebufIwSt11char_traitsIwEE5uflowEv
10807480   _ZNSt13basic_filebufIcSt11char_traitsIcEE5uflowEv
10807a60   powf
10808040   __c6xabi_divd
10808bc0   _Z13displayMatrixP9cmatrix_t
10808d08   _Z13displayMatrixR9cmatrix_t
10808e50   _Z20displayUserStructureP12userConfig_t
10808f48   _Z17displaySystemInfov
10808fd0   _Z21displayScheduledUsersP14systemConfig_tP16downlinkConfig_t
108090f0   __sti___20_displayFunctions_cpp_dbd75e48
10809160   _ZNKSt7num_putIcSt19ostreambuf_iteratorIcSt11char_traitsIcEEE5_FputES3_RSt8ios_basecPKcjjjj
108096e0   _ZNSt13basic_filebufIcSt11char_traitsIcEE9_EndwriteEv
10809c20   _ZNSt13basic_filebufIwSt11char_traitsIwEE9_EndwriteEv
1080a680   _Z24decomposeChannelMatricesP14systemConfig_tP16downlinkConfig_t
1080aad0   _Z28clearSchedulerConfigurationsP14systemConfig_tP16downlinkConfig_t
1080ab38   __sti___23_supportingFunctions_cpp_fd751b3a
1080aba0   _ZNSt8ios_base5clearENSt5_IosbIiE8_IostateEb
1080b0a0   fwrite
1080b560   _printfi
1080b9c0   __sti___11_wlocale_cpp_5e80b67f
1080bdc0   _Z23performGreedySchedulingP14systemConfig_tP16downlinkConfig_t
1080c148   __sti___20_greedyScheduling_cpp_b8e1509e
1080c1c0   fputs
1080cb60   _ZNKSt7num_putIcSt19ostreambuf_iteratorIcSt11char_traitsIcEEE5_IputES3_RSt8ios_basecPcj
1080ce20   _ZNKSt7num_putIcSt19ostreambuf_iteratorIcSt11char_traitsIcEEE6do_putES3_RSt8ios_basecd
1080d0e0   _ZNKSt7num_putIcSt19ostreambuf_iteratorIcSt11char_traitsIcEEE6do_putES3_RSt8ios_basece
1080d640   _ZSt5_FabsIfET_RKSt7complexIS0_EPi
1080d8c0   _ZStlsISt11char_traitsIcEERSt13basic_ostreamIcT_ES5_PKc
1080db40   __c6xabi_divf
1080e040   free
1080e2c0   _Z23performRandomSchedulingP14systemConfig_tP16downlinkConfig_t
1080e4d8   __sti___20_randomScheduling_cpp_1a9b9836
1080e540   _ZNSt13_Complex_baseIfSt16_C_float_complexE4_DivIfEEvRKSt7complexIT_E
1080e7a0   _ZNSt6_WinitD1Ev
1080e7a0   _ZNSt6_WinitD2Ev
1080ea00   __sti___12_iostream_cpp_3a72482d
1080ec60   __sti___12_wiostrea_cpp_5e80b67f
1080eec0   _ZNSt13basic_filebufIcSt11char_traitsIcEE5imbueERKSt6locale
1080f100   _ZNSt13basic_filebufIwSt11char_traitsIwEE5imbueERKSt6locale
1080f340   __c6xabi_divull
1080fa00   _Z13lteSystemInitv
1080fa68   _Z13channelUpdatev
1080fb48   _Z22schedulingForCurrentSFv
1080fb8c   _Z18lteSystemTerminatev
1080fbd4   __sti___13_lteSystem_cpp_g_nUsers
1080fe60   fputc
10810280   setvbuf
10810480   _ZNKSt7num_putIcSt19ostreambuf_iteratorIcSt11char_traitsIcEEE6do_putES3_RSt8ios_basecb
10810660   _ZNKSt12_String_base5_XranEv
10810820   _ZNSt8ios_base4InitD1Ev
10810820   _ZNSt8ios_base4InitD2Ev
10810ba0   HOSTrename
10810d40   _Getctyptab
10811080   _ZNKSt7codecvtIwciE5do_inERiPKcS3_RS3_PwS5_RS5_
10811220   _ZNSt13basic_filebufIcSt11char_traitsIcEE7seekoffElNSt5_IosbIiE8_SeekdirENS4_9_OpenmodeE
108113c0   _ZNSt13basic_filebufIwSt11char_traitsIwEE7seekoffElNSt5_IosbIiE8_SeekdirENS4_9_OpenmodeE
10811560   __c6xabi_divul
10811700   _ZNKSt5ctypeIwE10do_toupperEPwPKw
10811880   _ZNKSt7codecvtIwciE6do_outERiPKwS3_RS3_PcS5_RS5_
10811a00   _ZNSt13basic_filebufIcSt11char_traitsIcEE7seekposESt4fposIiENSt5_IosbIiE9_OpenmodeE
10811b80   _ZNSt13basic_filebufIwSt11char_traitsIwEE7seekposESt4fposIiENSt5_IosbIiE9_OpenmodeE
10811d00   _ZSt9use_facetISt5ctypeIwEERKT_RKSt6locale
10812000   malloc
10812180   _Z10freeMatrixP9cmatrix_t
10812194   _Z12createMatrixP9cmatrix_ttt
108121c4   _Z16createZeroMatrixP9cmatrix_ttt
108121f4   _Z13reshapeMatrixP9cmatrix_ttt
10812224   _Z20reshapeAndCopyMatrixP9cmatrix_ttt
10812254   _Z14allocateMemoryj
1081226c   _Z10freeMemoryPvj
1081228c   __sti___20_memoryManagement_cpp_bbe36996
10812300   _ZNKSt12_String_base5_XlenEv
10812460   _ZNSt13basic_filebufIcSt11char_traitsIcEE9pbackfailEi
108125c0   _ZNSt13basic_filebufIcSt11char_traitsIcEED0Ev
10812720   _ZNSt13basic_filebufIwSt11char_traitsIwEE9pbackfailEj
10812880   _ZNSt13basic_filebufIwSt11char_traitsIwEED0Ev
108129e0   _ZNSt9basic_iosIcSt11char_traitsIcEE4initEPSt15basic_streambufIcS1_Eb
10812b40   _ZNSt9basic_iosIwSt11char_traitsIwEE4initEPSt15basic_streambufIwS1_Eb
10812ca0   frexpf
10812e00   ldexpf
10812f60   _ZNSolsEb
108130a0   _ZNSolsEj
108131e0   _ZNSt13basic_filebufIcSt11char_traitsIcEE6setbufEPci
10813320   _ZNSt13basic_filebufIcSt11char_traitsIcEED1Ev
10813460   _ZNSt13basic_filebufIwSt11char_traitsIwEED1Ev
108135a0   _ZNSt6locale5_InitEv
108136e0   _ZNSt6locale7_LocimpD1Ev
108136e0   _ZNSt6locale7_LocimpD2Ev
10813820   _ZNSt8_LocinfoC1EPKc
10813820   _ZNSt8_LocinfoC2EPKc
10813960   _ZNSt8numpunctIcE5_InitERKSt8_Locinfo
10813be0   fgetc
10813e60   ungetc
10813fa0   _ZNKSt5ctypeIwE5do_isEPKwS2_Ps
108140c0   _ZNKSt5ctypeIwE9do_narrowEPKwS2_cPc
108141e0   _ZNKSt7codecvtIwciE9do_lengthERKiPKcS4_j
10814300   _ZNKSt7num_putIcSt19ostreambuf_iteratorIcSt11char_traitsIcEEE5_IfmtEPcPKcNSt5_IosbIiE9_FmtflagsE
10814420   _ZNSt13basic_filebufIwSt11char_traitsIwEE6setbufEPwi
10814540   _ZNSt15basic_streambufIwSt11char_traitsIwEE6xsgetnEPwi
10814660   _ZNSt8_LocinfoD1Ev
10814660   _ZNSt8_LocinfoD2Ev
10814780   _buff_read
108148a0   _closefile
10814ae0   fseek
10814c00   ftell
10814d20   sqrtf
10814e40   HOSTlseek
10814f40   _ZNKSt7num_putIcSt19ostreambuf_iteratorIcSt11char_traitsIcEEE5_FfmtEPccNSt5_IosbIiE9_FmtflagsE
10815040   _ZNSs6appendERKSsjj
10815140   _ZNSs6insertEjjc
10815240   _ZNSt15basic_streambufIcSt11char_traitsIcEE6xsgetnEPci
10815340   _ZNSt15basic_streambufIcSt11char_traitsIcEE6xsputnEPKci
10815440   _ZNSt15basic_streambufIwSt11char_traitsIwEE6xsputnEPKwi
10815540   _auto_init_elf
10815640   _wrt_ok
10815740   copy_in
10815840   _Z21performUserSchedulingP14systemConfig_tP16downlinkConfig_t
108158cc   __sti___24_schedulingAlgorithms_cpp_fc6d3ca0
10815940   HOSTopen
10815a20   HOSTread
10815b00   _Fac_tidy
10815be0   _ZNSs5_CopyEjj
10815cc0   _ZNSs5eraseEjj
10815da0   _ZNSs6assignERKSsjj
10815e80   __c6xabi_divi
10815e80   __divi
10816040   atoi
10816120   close
10816200   __TI_zero_init
108162e0   fflush
108163c0   ltoa
108164a0   memset
10816580   printf
10816660   HOSTunlink
10816720   HOSTwrite
108168a0   _ZNKSt5ctypeIwE10do_tolowerEPwPKw
10816960   _ZNKSt7codecvtIwciE10do_unshiftERiPcS2_RS2_
10816a20   _ZNKSt7num_putIcSt19ostreambuf_iteratorIcSt11char_traitsIcEEE11_PutgroupedES3_PKcjc
10816ae0   _ZNSo3putEc
10816ba0   _ZNSs5_GrowEjb
10816c60   _ZNSs6appendEPKcj
10816d20   _ZNSt13basic_filebufIcSt11char_traitsIcEE5_InitEPSt4FILENS2_7_InitflE
10816de0   _ZNSt6locale7_LocimpC1Eb
10816de0   _ZNSt6locale7_LocimpC2Eb
10816ea0   _ZNSt8ios_baseD1Ev
10816ea0   _ZNSt8ios_baseD2Ev
10816f60   _ZSt9use_facetISt5ctypeIcEERKT_RKSt6locale
10817020   _ZSt9use_facetISt7num_putIcSt19ostreambuf_iteratorIcSt11char_traitsIcEEEERKT_RKSt6locale
108170e0   _ZSt9use_facetISt8numpunctIcEERKT_RKSt6locale
108171a0   __cxa_finalize
10817260   __c6xabi_divu
10817260   __divu
10817320   __c6xabi_remi
10817320   __remi
108173e0   _doflush
108174a0   _rd_ok
10817560   exit
10817620   __sti___22_globalDeclarations_cpp_286f88f8
108176e0   __TI_tls_init
108177a0   HOSTclose
10817840   _Setgloballocale
108178e0   _ZNKSt5ctypeIwE8do_widenEPKcS2_Pw
10817980   _ZNKSt7num_putIcSt19ostreambuf_iteratorIcSt11char_traitsIcEEE6do_putES3_RSt8ios_basecPKv
10817a20   _ZNSo12_Sentry_baseC1ERSo
10817ac0   _ZNSo6sentryC1ERSo
10817b60   _ZNSt11logic_errorD1Ev
10817c00   _ZNSt12length_errorD1Ev
10817ca0   _ZNSt12out_of_rangeC1ERKSs
10817d40   _ZNSt12out_of_rangeD1Ev
10817de0   _ZNSt13_Complex_baseIfSt16_C_float_complexE4_MulIfEEvRKSt7complexIT_E
10817e80   _ZNSt13basic_filebufIcSt11char_traitsIcEE9underflowEv
10817f20   _ZNSt13basic_filebufIwSt11char_traitsIwEE9underflowEv
10817fc0   _ZNSt13runtime_errorD1Ev
10818060   _ZNSt5ctypeIcEC1EPKsbj
10818100   _ZNSt8ios_base5_InitEv
108181a0   _ZNSt8ios_base5_TidyEv
10818240   _ZNSt8ios_base7failureD1Ev
108182e0   _Znaj
108182e0   _Znwj
10818380   _cleanup
10818560   _minit
10818740   lseek
108187e0   memcpy
108189c0   read
10818a60   write
10818b00   _ZNKSt5ctypeIwE10do_scan_isEsPKwS2_
10818b80   _ZNKSt5ctypeIwE10do_tolowerEw
10818c00   _ZNKSt5ctypeIwE11do_scan_notEsPKwS2_
10818c80   _ZNKSt6locale9_GetfacetEj
10818d00   _ZNKSt7num_putIcSt19ostreambuf_iteratorIcSt11char_traitsIcEEE5_PutcES3_PKcj
10818d80   _ZNKSt7num_putIcSt19ostreambuf_iteratorIcSt11char_traitsIcEEE6do_putES3_RSt8ios_basecl
10818e00   _ZNKSt7num_putIcSt19ostreambuf_iteratorIcSt11char_traitsIcEEE6do_putES3_RSt8ios_basecm
10818e80   _ZNKSt7num_putIcSt19ostreambuf_iteratorIcSt11char_traitsIcEEE6do_putES3_RSt8ios_basecx
10818f00   _ZNKSt7num_putIcSt19ostreambuf_iteratorIcSt11char_traitsIcEEE6do_putES3_RSt8ios_basecy
10818f80   _ZNKSt9exception6_RaiseEv
10819000   _ZNSo12_Sentry_baseD1Ev
10819080   _ZNSo5flushEv
10819100   _ZNSs5_TidyEbj
10819180   _ZNSs6appendEjc
10819200   _ZNSs6assignEPKcj
10819280   _ZNSt11logic_errorC2ERKSs
10819300   _ZNSt11logic_errorD0Ev
10819380   _ZNSt12length_errorD0Ev
10819400   _ZNSt12out_of_rangeD0Ev
10819480   _ZNSt13basic_filebufIcSt11char_traitsIcEE4syncEv
10819500   _ZNSt13basic_filebufIwSt11char_traitsIwEE4syncEv
10819580   _ZNSt13runtime_errorD0Ev
10819600   _ZNSt15basic_streambufIcSt11char_traitsIcEE5sputcEc
10819680   _ZNSt19ostreambuf_iteratorIcSt11char_traitsIcEEaSEc
10819700   _ZNSt6locale5facet9_RegisterEv
10819780   _ZNSt8ios_base7_AddstdEv
10819800   _ZNSt8ios_base7failureD0Ev
10819880   _ZNSt8ios_base8_CallfnsENS_5eventE
10819900   _ZSt10_MaklocstrIcEPT_PKcS1_RKSt7_Cvtvec
10819980   _ZSt14_Debug_messagePKcS0_
10819a00   __c6xabi_fixfu
10819a80   __c6xabi_llshl
10819b00   __c6xabi_roundf
10819b80   _c_int00
10819c00   calloc
10819c80   memchr
10819d00   rand
10819d80   readmsg
10819e00   main
10819e20   __sti___14_sysMainLTE_cpp_main
10819e80   remove
10819e80   unlink
10819f00   wmemcpy
10819f80   _Deletegloballocale
10819fe0   _FDtest
1081a040   _ZNKSt5ctypeIcE10do_tolowerEPcPKc
1081a0a0   _ZNKSt5ctypeIcE10do_toupperEPcPKc
1081a100   _ZNKSt5ctypeIwE10do_toupperEw
1081a160   _ZNKSt7num_putIcSt19ostreambuf_iteratorIcSt11char_traitsIcEEE4_PutES3_PKcj
1081a1c0   _ZNKSt7num_putIcSt19ostreambuf_iteratorIcSt11char_traitsIcEEE4_RepES3_cj
1081a220   _ZNKSt9basic_iosIcSt11char_traitsIcEE5widenEc
1081a280   _ZNSiD0Ev
1081a2e0   _ZNSoD0Ev
1081a340   _ZNSs7_InsideEPKc
1081a3a0   _ZNSs9_ChassignEjjc
1081a400   _ZNSt13_Complex_baseIfSt16_C_float_complexE4_AddIfEEvRKSt7complexIT_E
1081a460   _ZNSt13_Complex_baseIfSt16_C_float_complexE4_SubIfEEvRKSt7complexIT_E
1081a4c0   _ZNSt13basic_istreamIwSt11char_traitsIwEED0Ev
1081a520   _ZNSt13basic_ostreamIwSt11char_traitsIwEED0Ev
1081a580   _ZNSt15basic_streambufIcSt11char_traitsIcEE5_InitEv
1081a5e0   _ZNSt15basic_streambufIcSt11char_traitsIcEE5uflowEv
1081a640   _ZNSt15basic_streambufIcSt11char_traitsIcEE7seekoffElNSt5_IosbIiE8_SeekdirENS4_9_OpenmodeE
1081a6a0   _ZNSt15basic_streambufIcSt11char_traitsIcEE7seekposESt4fposIiENSt5_IosbIiE9_OpenmodeE
1081a700   _ZNSt15basic_streambufIcSt11char_traitsIcEED0Ev
1081a760   _ZNSt15basic_streambufIcSt11char_traitsIcEED1Ev
1081a7c0   _ZNSt15basic_streambufIwSt11char_traitsIwEE5_InitEv
1081a820   _ZNSt15basic_streambufIwSt11char_traitsIwEE5uflowEv
1081a880   _ZNSt15basic_streambufIwSt11char_traitsIwEE7seekoffElNSt5_IosbIiE8_SeekdirENS4_9_OpenmodeE
1081a8e0   _ZNSt15basic_streambufIwSt11char_traitsIwEE7seekposESt4fposIiENSt5_IosbIiE9_OpenmodeE
1081a940   _ZNSt15basic_streambufIwSt11char_traitsIwEED0Ev
1081a9a0   _ZNSt15basic_streambufIwSt11char_traitsIwEED1Ev
1081aa00   _ZNSt5ctypeIcE7_GetcatEPPKNSt6locale5facetE
1081aa60   _ZNSt5ctypeIwED0Ev
1081aac0   _ZNSt5ctypeIwED1Ev
1081ab20   _ZNSt6locale2idcvjEv
1081ab80   _ZNSt6locale5facet7_DecrefEv
1081abe0   _ZNSt6locale7_LocimpD0Ev
1081ac40   _ZNSt6localeC1Ev
1081ac40   _ZNSt6localeC2Ev
1081aca0   _ZNSt7complexIfEdVERKf
1081ad00   _ZNSt7num_putIcSt19ostreambuf_iteratorIcSt11char_traitsIcEEEC1Ej
1081ad60   _ZNSt8ios_baseD0Ev
1081adc0   _ZNSt8numpunctIcEC1Ej
1081ae20   _ZNSt9basic_iosIcSt11char_traitsIcEED0Ev
1081ae80   _ZNSt9basic_iosIwSt11char_traitsIwEED0Ev
1081aee0   _ZSt4conjIfESt7complexIT_ERKS2_
1081af40   _ZStdvIfESt7complexIT_ERKS2_RKS1_
1081afa0   _ZTv0_n12_NSiD0Ev
1081b000   _ZTv0_n12_NSoD0Ev
1081b060   _ZTv0_n12_NSt13basic_istreamIwSt11char_traitsIwEED0Ev
1081b0c0   _ZTv0_n12_NSt13basic_ostreamIwSt11char_traitsIwEED0Ev
1081b120   __TI_cpp_init
1081b180   __c6xabi_frcmpyd_div
1081b1e0   __c6xabi_llshru
1081b240   __cxa_vec_ctor
1081b2a0   __cxa_vec_new
1081b300   _subcull
1081b360   fclose
1081b3c0   fgetpos
1081b420   memccpy
1081b480   memmove
1081b4e0   modff
1081b540   setlocale
1081b5a0   sprintf
1081b600   strcspn
1081b660   ungetwc
1081b6c0   writemsg
1081b718   C$$IO$$
1081b720   _ZNKSs6_MyptrEv
1081b760   _ZNKSs8max_sizeEv
1081b7a0   _ZNKSt15basic_streambufIcSt11char_traitsIcEE8_PnavailEv
1081b7e0   _ZNKSt5ctypeIcE10do_tolowerEc
1081b820   _ZNKSt5ctypeIcE10do_toupperEc
1081b860   _ZNKSt5ctypeIcE5widenEc
1081b8a0   _ZNKSt5ctypeIcE8do_widenEPKcS2_Pc
1081b8e0   _ZNKSt5ctypeIcE9do_narrowEPKcS2_cPc
1081b920   _ZNKSt5ctypeIwE5do_isEsw
1081b960   _ZNKSt5ctypeIwE8do_widenEc
1081b9a0   _ZNKSt5ctypeIwE9do_narrowEwc
1081b9e0   _ZNKSt7num_putIcSt19ostreambuf_iteratorIcSt11char_traitsIcEEE3putES3_RSt8ios_basecb
1081ba20   _ZNKSt7num_putIcSt19ostreambuf_iteratorIcSt11char_traitsIcEEE3putES3_RSt8ios_basecm
1081ba60   _ZNKSt8_Locinfo7_GetcvtEv
1081baa0   _ZNKSt8_Locinfo9_GetctypeEv
1081bae0   _ZNKSt8numpunctIcE8groupingEv
1081bb20   _ZNKSt8numpunctIcE8truenameEv
1081bb60   _ZNKSt8numpunctIcE9falsenameEv
1081bba0   _ZNSiD1Ev
1081bbe0   _ZNSo5_OsfxEv
1081bc20   _ZNSoD1Ev
1081bc60   _ZNSs4_EosEj
1081bca0   _ZNSs6_MyptrEv
1081bce0   _ZNSs6assignEPKc
1081bd20   _ZNSsC1EPKc
1081bd60   _ZNSsC1Ev
1081bda0   _ZNSt10ctype_baseC1Ej
1081bde0   _ZNSt11char_traitsIcE6assignEPcjc
1081be20   _ZNSt13_Complex_baseIfSt16_C_float_complexEC1ERKfS3_
1081be60   _ZNSt13basic_istreamIwSt11char_traitsIwEED1Ev
1081bea0   _ZNSt13basic_ostreamIwSt11char_traitsIwEED1Ev
1081bee0   _ZNSt15basic_streambufIcSt11char_traitsIcEE5sputnEPKci
1081bf20   _ZNSt19ostreambuf_iteratorIcSt11char_traitsIcEEC1EPSt15basic_streambufIcS1_E
1081bf60   _ZNSt5ctypeIcE5_TidyEv
1081bfa0   _ZNSt5ctypeIcED1Ev
1081bfe0   _ZNSt6locale5facet7_IncrefEv
1081c020   _ZNSt6locale5facetC1Ej
1081c060   _ZNSt6localeC1ERKS_
1081c0a0   _ZNSt6localeD1Ev
1081c0e0   _ZNSt7complexIfEaSERKf
1081c120   _ZNSt7num_putIcSt19ostreambuf_iteratorIcSt11char_traitsIcEEE7_GetcatEPPKNSt6locale5facetE
1081c160   _ZNSt8ios_base5widthEi
1081c1a0   _ZNSt8numpunctIcE5_TidyEv
1081c1e0   _ZNSt8numpunctIcE7_GetcatEPPKNSt6locale5facetE
1081c220   _ZNSt8numpunctIcED1Ev
1081c260   _ZNSt9basic_iosIcSt11char_traitsIcEE5clearENSt5_IosbIiE8_IostateEb
1081c2a0   _ZNSt9basic_iosIcSt11char_traitsIcEE8setstateENSt5_IosbIiE8_IostateEb
1081c2e0   _ZSt3absIfET_RKSt7complexIS0_E
1081c320   _ZSt3absf
1081c360   _ZSt3powff
1081c3a0   _ZSt4endlIcSt11char_traitsIcEERSt13basic_ostreamIT_T0_ES6_
1081c3e0   _ZSt6_ThrowRKSt9exception
1081c420   _ZStdvIfESt7complexIT_ERKS1_RKS2_
1081c460   _ZStdvIfESt7complexIT_ERKS2_S4_
1081c4a0   _ZStmiIfESt7complexIT_ERKS2_S4_
1081c4e0   _ZStmlIfESt7complexIT_ERKS1_RKS2_
1081c520   _ZStmlIfESt7complexIT_ERKS2_S4_
1081c560   _ZStoRRNSt5_IosbIiE8_IostateES1_
1081c5a0   _ZStplIfESt7complexIT_ERKS2_S4_
1081c5e0   _ZTv0_n12_NSiD1Ev
1081c620   _ZTv0_n12_NSoD1Ev
1081c660   _ZTv0_n12_NSt13basic_istreamIwSt11char_traitsIwEED1Ev
1081c6a0   _ZTv0_n12_NSt13basic_ostreamIwSt11char_traitsIwEED1Ev
1081c6e0   __c6xabi_isinf
1081c760   __sti___11_locale0_cpp_36e19383
1081c7a0   _args_main
1081c820   mbrtowc
1081c860   mbtowc
1081c8a0   strcmp
1081c8e0   strlen
1081c920   wcrtomb
1081c960   _Atexit
1081c980   _Getgloballocale
1081c9a0   _Z21__default_new_handlerv
1081c9c0   _ZN10__cxxabiv117__class_type_infoD0Ev
1081c9e0   _ZN10__cxxabiv117__class_type_infoD1Ev
1081c9e0   _ZN10__cxxabiv117__class_type_infoD2Ev
1081ca00   _ZN10__cxxabiv120__si_class_type_infoD0Ev
1081ca20   _ZN10__cxxabiv120__si_class_type_infoD1Ev
1081ca20   _ZN10__cxxabiv120__si_class_type_infoD2Ev
1081ca40   _ZN10__cxxabiv121__vmi_class_type_infoD0Ev
1081ca60   _ZN10__cxxabiv121__vmi_class_type_infoD1Ev
1081ca60   _ZN10__cxxabiv121__vmi_class_type_infoD2Ev
1081ca80   _ZNKSaIcE8max_sizeEv
1081caa0   _ZNKSo6sentrycvbEv
1081cac0   _ZNKSs4sizeEv
1081cae0   _ZNKSs5c_strEv
1081cb00   _ZNKSt11logic_error4whatEv
1081cb20   _ZNKSt11logic_error8_DoraiseEv
1081cb40   _ZNKSt12codecvt_base11do_encodingEv
1081cb60   _ZNKSt12codecvt_base13do_max_lengthEv
1081cb80   _ZNKSt12codecvt_base16do_always_noconvEv
1081cba0   _ZNKSt12length_error8_DoraiseEv
1081cbc0   _ZNKSt12out_of_range8_DoraiseEv
1081cbe0   _ZNKSt13_Complex_baseIfSt16_C_float_complexE4imagEv
1081cc00   _ZNKSt13_Complex_baseIfSt16_C_float_complexE4realEv
1081cc20   _ZNKSt13runtime_error4whatEv
1081cc40   _ZNKSt13runtime_error8_DoraiseEv
1081cc60   _ZNKSt19ostreambuf_iteratorIcSt11char_traitsIcEE6failedEv
1081cc80   _ZNKSt5ctypeIcE8do_widenEc
1081cca0   _ZNKSt5ctypeIcE9do_narrowEcc
1081ccc0   _ZNKSt5ctypeIwE2isEsw
1081cce0   _ZNKSt5ctypeIwE5widenEc
1081cd00   _ZNKSt5ctypeIwE6narrowEwc
1081cd20   _ZNKSt7codecvtIcciE10do_unshiftERiPcS2_RS2_
1081cd40   _ZNKSt7codecvtIcciE5do_inERiPKcS3_RS3_PcS5_RS5_
1081cd60   _ZNKSt7codecvtIcciE6do_outERiPKcS3_RS3_PcS5_RS5_
1081cd80   _ZNKSt7codecvtIcciE9do_lengthERKiPKcS4_j
1081cda0   _ZNKSt7codecvtIwciE11do_encodingEv
1081cdc0   _ZNKSt7codecvtIwciE13do_max_lengthEv
1081cde0   _ZNKSt7codecvtIwciE16do_always_noconvEv
1081ce00   _ZNKSt8_Locinfo8_GettrueEv
1081ce20   _ZNKSt8_Locinfo9_GetfalseEv
1081ce40   _ZNKSt8_Locinfo9_GetlconvEv
1081ce60   _ZNKSt8ios_base4failEv
1081ce80   _ZNKSt8ios_base4goodEv
1081cea0   _ZNKSt8ios_base5flagsEv
1081cec0   _ZNKSt8ios_base5widthEv
1081cee0   _ZNKSt8ios_base6getlocEv
1081cf00   _ZNKSt8ios_base7failure8_DoraiseEv
1081cf20   _ZNKSt8ios_base7rdstateEv
1081cf40   _ZNKSt8ios_base9precisionEv
1081cf60   _ZNKSt8numpunctIcE11do_groupingEv
1081cf80   _ZNKSt8numpunctIcE11do_truenameEv
1081cfa0   _ZNKSt8numpunctIcE12do_falsenameEv
1081cfc0   _ZNKSt8numpunctIcE13decimal_pointEv
1081cfe0   _ZNKSt8numpunctIcE13thousands_sepEv
1081d000   _ZNKSt8numpunctIcE16do_decimal_pointEv
1081d020   _ZNKSt8numpunctIcE16do_thousands_sepEv
1081d040   _ZNKSt9basic_iosIcSt11char_traitsIcEE3tieEv
1081d060   _ZNKSt9basic_iosIcSt11char_traitsIcEE4fillEv
1081d080   _ZNKSt9basic_iosIcSt11char_traitsIcEE5rdbufEv
1081d0a0   _ZNKSt9exception4whatEv
1081d0c0   _ZNKSt9exception8_DoraiseEv
1081d0e0   _ZNSaIcE10deallocateEPcj
1081d100   _ZNSaIcE8allocateEj
1081d120   _ZNSaIcEC1ERKS_
1081d140   _ZNSaIcEC1Ev
1081d160   _ZNSo12_Sentry_baseC2ERSo
1081d180   _ZNSo12_Sentry_baseD2Ev
1081d1a0   _ZNSo6sentryD1Ev
1081d1c0   _ZNSolsEPFRSoS_E
1081d1e0   _ZNSs6assignERKSs
1081d200   _ZNSsD1Ev
1081d220   _ZNSsixEj
1081d240   _ZNSt10ctype_baseC2Ej
1081d260   _ZNSt10ctype_baseD0Ev
1081d280   _ZNSt10ctype_baseD1Ev
1081d2a0   _ZNSt10ctype_baseD2Ev
1081d2c0   _ZNSt11_String_valIcSaIcEEC1ES0_
1081d2e0   _ZNSt11_String_valIcSaIcEEC2ES0_
1081d300   _ZNSt11char_traitsIcE11eq_int_typeERKiS2_
1081d320   _ZNSt11char_traitsIcE11to_int_typeERKc
1081d340   _ZNSt11char_traitsIcE3eofEv
1081d360   _ZNSt11char_traitsIcE4copyEPcPKcj
1081d380   _ZNSt11char_traitsIcE4moveEPcPKcj
1081d3a0   _ZNSt11char_traitsIcE6assignERcRKc
1081d3c0   _ZNSt11char_traitsIcE6lengthEPKc
1081d3e0   _ZNSt12codecvt_baseD0Ev
1081d400   _ZNSt12codecvt_baseD1Ev
1081d420   _ZNSt13_Complex_baseIfSt16_C_float_complexE4imagERKf
1081d440   _ZNSt13_Complex_baseIfSt16_C_float_complexE4realERKf
1081d460   _ZNSt13_Complex_baseIfSt16_C_float_complexEC2ERKfS3_
1081d480   _ZNSt15basic_streambufIcSt11char_traitsIcEE4syncEv
1081d4a0   _ZNSt15basic_streambufIcSt11char_traitsIcEE5_LockEv
1081d4c0   _ZNSt15basic_streambufIcSt11char_traitsIcEE5imbueERKSt6locale
1081d4e0   _ZNSt15basic_streambufIcSt11char_traitsIcEE6_PnincEv
1081d500   _ZNSt15basic_streambufIcSt11char_traitsIcEE6setbufEPci
1081d520   _ZNSt15basic_streambufIcSt11char_traitsIcEE7_UnlockEv
1081d540   _ZNSt15basic_streambufIcSt11char_traitsIcEE7pubsyncEv
1081d560   _ZNSt15basic_streambufIcSt11char_traitsIcEE8overflowEi
1081d580   _ZNSt15basic_streambufIcSt11char_traitsIcEE9pbackfailEi
1081d5a0   _ZNSt15basic_streambufIcSt11char_traitsIcEE9showmanycEv
1081d5c0   _ZNSt15basic_streambufIcSt11char_traitsIcEE9underflowEv
1081d5e0   _ZNSt15basic_streambufIwSt11char_traitsIwEE4syncEv
1081d600   _ZNSt15basic_streambufIwSt11char_traitsIwEE5_LockEv
1081d620   _ZNSt15basic_streambufIwSt11char_traitsIwEE5imbueERKSt6locale
1081d640   _ZNSt15basic_streambufIwSt11char_traitsIwEE6setbufEPwi
1081d660   _ZNSt15basic_streambufIwSt11char_traitsIwEE7_UnlockEv
1081d680   _ZNSt15basic_streambufIwSt11char_traitsIwEE8overflowEj
1081d6a0   _ZNSt15basic_streambufIwSt11char_traitsIwEE9pbackfailEj
1081d6c0   _ZNSt15basic_streambufIwSt11char_traitsIwEE9showmanycEv
1081d6e0   _ZNSt15basic_streambufIwSt11char_traitsIwEE9underflowEv
1081d700   _ZNSt19ostreambuf_iteratorIcSt11char_traitsIcEEdeEv
1081d720   _ZNSt19ostreambuf_iteratorIcSt11char_traitsIcEEppEv
1081d740   _ZNSt5ctypeIcE5_InitERKSt8_Locinfo
1081d760   _ZNSt5ctypeIcED0Ev
1081d780   _ZNSt6locale2idC1Ej
1081d7a0   _ZNSt6locale5facetC2Ej
1081d7c0   _ZNSt6locale5facetD0Ev
1081d7e0   _ZNSt6locale5facetD1Ev
1081d800   _ZNSt6locale5facetD2Ev
1081d820   _ZNSt7_LockitC1Ei
1081d840   _ZNSt7_LockitD1Ev
1081d860   _ZNSt7codecvtIcciED0Ev
1081d880   _ZNSt7codecvtIcciED1Ev
1081d8a0   _ZNSt7codecvtIwciED0Ev
1081d8c0   _ZNSt7codecvtIwciED1Ev
1081d8e0   _ZNSt7complexIfEC1ERKS0_
1081d900   _ZNSt7complexIfEC1ERKfS2_
1081d920   _ZNSt7complexIfEdVIfEERS0_RKS_IT_E
1081d940   _ZNSt7complexIfEmIIfEERS0_RKS_IT_E
1081d960   _ZNSt7complexIfEmLIfEERS0_RKS_IT_E
1081d980   _ZNSt7complexIfEpLIfEERS0_RKS_IT_E
1081d9a0   _ZNSt7num_putIcSt19ostreambuf_iteratorIcSt11char_traitsIcEEE5_InitERKSt8_Locinfo
1081d9c0   _ZNSt7num_putIcSt19ostreambuf_iteratorIcSt11char_traitsIcEEED0Ev
1081d9e0   _ZNSt7num_putIcSt19ostreambuf_iteratorIcSt11char_traitsIcEEED1Ev
1081da00   _ZNSt8_CtraitsIfE4sqrtEf
1081da20   _ZNSt8_CtraitsIfE5_InfvEf
1081da40   _ZNSt8_CtraitsIfE5_NanvEf
1081da60   _ZNSt8_CtraitsIfE5ldexpEfi
1081da80   _ZNSt8_CtraitsIfE6_IsinfEf
1081daa0   _ZNSt8_CtraitsIfE6_IsnanEf
1081dac0   _ZNSt8numpunctIcED0Ev
1081dae0   _ZNSt9basic_iosIcSt11char_traitsIcEED1Ev
1081db00   _ZNSt9basic_iosIwSt11char_traitsIwEED1Ev
1081db20   _ZNSt9exceptionD0Ev
1081db40   _ZNSt9exceptionD1Ev
1081db60   _ZSt10_MaklocchrIcET_cPS0_RKSt7_Cvtvec
1081dba0   _ZSt4imagIfET_RKSt7complexIS0_E
1081dbc0   _ZSt4realIfET_RKSt7complexIS0_E
1081dbe0   _ZSt4sqrtf
1081dc00   _ZSt8_ToloweriPKSt9_Ctypevec
1081dc20   _ZSt8_ToupperiPKSt9_Ctypevec
1081dc40   _ZSt9_AllocateIcEPT_jS1_
1081dc60   _ZStanNSt5_IosbIiE9_FmtflagsES1_
1081dc80   _ZdaPv
1081dc80   _ZdlPv
1081dca0   _ZnwjPv
1081dcc0   __c6xabi_errno_addr
1081dce0   __c6xabi_negll
1081dd00   __c6xabi_truncf
1081dd20   __cxa_atexit
1081dd40   __cxa_guard_acquire
1081dd60   __cxa_guard_release
1081dd80   __cxa_ia64_exit
1081dda0   __memzero
1081ddc0   _nop
1081de40   C$$EXIT
1081de40   abort
1081de60   atexit
1081de80   __TI_decompress_none
1081dea0   __TI_decompress_rle24
1081dec0   fgetwc
1081dee0   fputwc
1081df00   fsetpos
1081df20   localeconv
1081df40   tolower
1081df60   toupper
1081df80   wctomb
1081e560   _ctypes_
1081e77c   _ZNSs4nposE
1081e780   _ZTVSt13basic_filebufIcSt11char_traitsIcEE
1081e7c8   _ZTVSt13basic_filebufIwSt11char_traitsIwEE
1081e810   _ZTVSt15basic_streambufIcSt11char_traitsIcEE
1081e858   _ZTVSt15basic_streambufIwSt11char_traitsIwEE
1081e8a0   _ZTVSt5ctypeIwE
1081e8e0   _ZTSSt7num_putIcSt19ostreambuf_iteratorIcSt11char_traitsIcEEE
1081e950   _ZTVSi
1081e978   _ZTTSi
1081e980   _ZTVSo
1081e9a8   _ZTTSo
1081e9b0   _ZTVSt13basic_istreamIwSt11char_traitsIwEE
1081e9d8   _ZTTSt13basic_istreamIwSt11char_traitsIwEE
1081e9e0   _ZTVSt13basic_ostreamIwSt11char_traitsIwEE
1081ea08   _ZTTSt13basic_ostreamIwSt11char_traitsIwEE
1081ea10   _ZTVSt5ctypeIcE
1081ea40   _ZTVSt7num_putIcSt19ostreambuf_iteratorIcSt11char_traitsIcEEE
1081ea70   _ZTVSt7codecvtIcciE
1081ea9c   _ZZSt5_FabsIfET_RKSt7complexIS0_EPiE16_Oneplusroot2low
1081eaa0   _ZTVSt7codecvtIwciE
1081eacc   _ZZSt5_FabsIfET_RKSt7complexIS0_EPiE17_Oneplusroot2high
1081ead0   _ZTSSt15basic_streambufIcSt11char_traitsIcEE
1081eafc   _ZZSt5_FabsIfET_RKSt7complexIS0_EPiE6_Root2
1081eb00   _ZTSSt15basic_streambufIwSt11char_traitsIwEE
1081eb2c   _ZSt7_BADOFF
1081eb30   _ZTSSt13basic_filebufIcSt11char_traitsIcEE
1081eb58   _ZTSSt13basic_filebufIwSt11char_traitsIwEE
1081eb80   _ZTSSt13basic_istreamIwSt11char_traitsIwEE
1081eba8   _ZTSSt13basic_ostreamIwSt11char_traitsIwEE
1081ebd0   _ZTSN10__cxxabiv121__vmi_class_type_infoE
1081ebf8   _ZTSN10__cxxabiv120__si_class_type_infoE
1081ec20   _ZTVSt8numpunctIcE
1081ec68   _ZTSN10__cxxabiv117__class_type_infoE
1081ec90   _ZTSSt9basic_iosIcSt11char_traitsIcEE
1081ecb8   _ZTSSt9basic_iosIwSt11char_traitsIwEE
1081ed00   _ZTVSt12codecvt_base
1081ed1c   _ZTISi
1081ed34   _ZTISo
1081ed4c   _ZTISt13basic_istreamIwSt11char_traitsIwEE
1081ed64   _ZTISt13basic_ostreamIwSt11char_traitsIwEE
1081ed80   _ZTVNSt8ios_base7failureE
1081ed98   _ZTVSt11logic_error
1081edb0   _ZTVSt12length_error
1081edc8   _ZTVSt12out_of_range
1081ede0   _ZTVSt13runtime_error
1081edf8   _ZTVSt9exception
1081ee10   _ZTSNSt8ios_base7failureE
1081ee40   _ZTSNSt6locale7_LocimpE
1081ee68   _ZTSNSt6locale5facetE
1081ee80   _ZTSSt13runtime_error
1081ee98   _ZTSSt12codecvt_base
1081eeb0   _ZTSSt12length_error
1081eec8   _ZTSSt12out_of_range
1081eee0   _ZTSSt11logic_error
1081eef0   _ZTSSt7codecvtIcciE
1081ef00   _ZTSSt7codecvtIwciE
1081ef20   _ZTVN10__cxxabiv117__class_type_infoE
1081ef30   _ZTVN10__cxxabiv120__si_class_type_infoE
1081ef40   _ZTVN10__cxxabiv121__vmi_class_type_infoE
1081ef50   _ZTVNSt6locale5facetE
1081ef60   _ZTVNSt6locale7_LocimpE
1081ef70   _ZTVSt10ctype_base
1081ef80   _ZTVSt8ios_base
1081ef90   _ZTVSt9basic_iosIcSt11char_traitsIcEE
1081efa0   _ZTVSt9basic_iosIwSt11char_traitsIwEE
1081efb0   _ZTSSt10ctype_base
1081efc0   _ZTSSt8numpunctIcE
1081efd0   _ZTSSt9exception
1081efe0   _ZTSSt9type_info
1081eff0   _ZTSSt5_IosbIiE
1081f000   _ZTSSt5ctypeIcE
1081f010   _ZTSSt5ctypeIwE
1081f020   _ZTSSt8ios_base
1081f02c   _ZTIN10__cxxabiv117__class_type_infoE
1081f038   _ZTIN10__cxxabiv120__si_class_type_infoE
1081f044   _ZTIN10__cxxabiv121__vmi_class_type_infoE
1081f050   _ZTINSt6locale7_LocimpE
1081f05c   _ZTINSt8ios_base7failureE
1081f068   _ZTISt10ctype_base
1081f074   _ZTISt11logic_error
1081f080   _ZTISt12codecvt_base
1081f08c   _ZTISt12length_error
1081f098   _ZTISt12out_of_range
1081f0a4   _ZTISt13basic_filebufIcSt11char_traitsIcEE
1081f0b0   _ZTISt13basic_filebufIwSt11char_traitsIwEE
1081f0bc   _ZTISt13runtime_error
1081f0c8   _ZTISt5ctypeIcE
1081f0d4   _ZTISt5ctypeIwE
1081f0e0   _ZTISt7codecvtIcciE
1081f0ec   _ZTISt7codecvtIwciE
1081f0f8   _ZTISt7num_putIcSt19ostreambuf_iteratorIcSt11char_traitsIcEEE
1081f104   _ZTISt8ios_base
1081f110   _ZTISt8numpunctIcE
1081f11c   _ZTISt9basic_iosIcSt11char_traitsIcEE
1081f128   _ZTISt9basic_iosIwSt11char_traitsIwEE
1081f140   _ZTINSt6locale5facetE
1081f148   _ZTISt15basic_streambufIcSt11char_traitsIcEE
1081f150   _ZTISt15basic_streambufIwSt11char_traitsIwEE
1081f158   _ZTISt5_IosbIiE
1081f160   _ZTISt9exception
1081f168   _ZTISt9type_info
1081f178   _ZZNKSt8_Locinfo9_GetfalseEvEs
1081f180   _ZZNKSt8_Locinfo8_GettrueEvEs
1081f188   _ZTSSi
1081f190   _ZTSSo
1081f198   _ZZNKSt7num_putIcSt19ostreambuf_iteratorIcSt11char_traitsIcEEE6do_putES3_RSt8ios_basecPKvEs
1081f1a0   _ZZNKSt7num_putIcSt19ostreambuf_iteratorIcSt11char_traitsIcEEE6do_putES3_RSt8ios_baseclEs
1081f1a8   _ZZNKSt7num_putIcSt19ostreambuf_iteratorIcSt11char_traitsIcEEE6do_putES3_RSt8ios_basecmEs
1081f1b0   _ZZNKSt7num_putIcSt19ostreambuf_iteratorIcSt11char_traitsIcEEE6do_putES3_RSt8ios_basecxEs
1081f1b8   _ZZNKSt7num_putIcSt19ostreambuf_iteratorIcSt11char_traitsIcEEE6do_putES3_RSt8ios_basecyEs
1081f1c0   _ZZNKSt7num_putIcSt19ostreambuf_iteratorIcSt11char_traitsIcEEE5_FputES3_RSt8ios_basecPKcjjjjEs
1081f1c8   _ZZNKSt7num_putIcSt19ostreambuf_iteratorIcSt11char_traitsIcEEE5_FputES3_RSt8ios_basecPKcjjjjEs_0
1081f1d0   _stack
108201d0   __TI_STACK_END
108202c4   _ZSt4wcin
10820300   _ZSt5wcout
10820338   _ZSt5wcerr
10820370   _ZSt5wclog
10820448   _ZSt3cin
10820484   _ZSt4cout
1082050c   _ZSt4cerr
10820544   _ZSt4clog
1082057c   dlConfig
10820700   sysConfig
10820710   _tmpnams
10820850   _ZNSt7codecvtIwciE2idE
10820854   _ZNSt5ctypeIcE2idE
1082085c   _ZGVNSt10moneypunctIwLb0EE2idE
10820868   _ZGVNSt10moneypunctIwLb1EE2idE
1082086c   _ZGVNSt7codecvtIcciE2idE
10820870   _ZGVNSt7collateIwE2idE
10820874   _ZGVNSt7num_getIwSt19istreambuf_iteratorIwSt11char_traitsIwEEE2idE
10820878   _ZGVNSt7num_putIwSt19ostreambuf_iteratorIwSt11char_traitsIwEEE2idE
1082087c   _ZGVNSt8messagesIwE2idE
10820880   _ZGVNSt8numpunctIwE2idE
10820884   _ZGVNSt8time_getIwSt19istreambuf_iteratorIwSt11char_traitsIwEEE2idE
10820888   _ZGVNSt9money_getIwSt19istreambuf_iteratorIwSt11char_traitsIwEEE2idE
1082088c   _ZGVNSt9money_putIwSt19ostreambuf_iteratorIwSt11char_traitsIwEEE2idE
10820890   _ZNSt10moneypunctIwLb0EE2idE
10820894   _ZNSt10moneypunctIwLb1EE2idE
10820898   _ZNSt13basic_filebufIcSt11char_traitsIcEE7_StinitE
1082089c   _ZNSt13basic_filebufIwSt11char_traitsIwEE7_StinitE
108208a0   _ZNSt4fposIiE4_StzE
108208a4   _ZNSt7codecvtIcciE2idE
108208a8   _ZNSt7collateIwE2idE
108208ac   _ZNSt7num_getIwSt19istreambuf_iteratorIwSt11char_traitsIwEEE2idE
108208b0   _ZNSt7num_putIcSt19ostreambuf_iteratorIcSt11char_traitsIcEEE2idE
108208b4   _ZNSt7num_putIwSt19ostreambuf_iteratorIwSt11char_traitsIwEEE2idE
108208b8   _ZNSt8messagesIwE2idE
108208bc   _ZNSt8numpunctIcE2idE
108208c0   _ZNSt8numpunctIwE2idE
108208c4   _ZNSt8time_getIwSt19istreambuf_iteratorIwSt11char_traitsIwEEE2idE
108208c8   _ZNSt8time_putIwSt19ostreambuf_iteratorIwSt11char_traitsIwEEE2idE
108208cc   _ZNSt9money_getIwSt19istreambuf_iteratorIwSt11char_traitsIwEEE2idE
108208d0   _ZNSt9money_putIwSt19ostreambuf_iteratorIwSt11char_traitsIwEEE2idE
108208d4   _ZNSt5ctypeIwE2idE
108208f8   _ftable
10820bf0   _FDenorm
10820c00   _FEps
10820c10   _FInf
10820c20   _FNan
10820c30   _FSnan
10820c40   _FRteps
10820c50   _FXbig
10820c54   _FZero
10820c9c   C_locale
10820d18   _ZNSt6locale2id7_Id_cntE
10820d1c   _ZNSt6locale7_Locimp8_ClocptrE
10820d2c   _ZNSt9_FacetptrISt5ctypeIcEE6_PsaveE
10820d3c   _cleanup_ptr
10820d40   _dtors_ptr
10820d44   __TI_enable_exit_profile_output
10820d48   _ZNSt8ios_base6_IndexE
10820d4c   _ZNSt8ios_base5_SyncE
10820d50   _ZSt4_Fpz
10820d6c   _lock
10820d70   _unlock
10820d74   _ZNSt9_FacetptrISt5ctypeIwEE6_PsaveE
10820d7c   _ZNSt9_FacetptrISt7codecvtIcciEE6_PsaveE
10820d80   _ZNSt9_FacetptrISt7codecvtIwciEE6_PsaveE
10820d84   _ZNSt9_FacetptrISt7num_putIcSt19ostreambuf_iteratorIcSt11char_traitsIcEEEE6_PsaveE
10820d88   _ZNSt9_FacetptrISt8numpunctIcEE6_PsaveE
10820d8c   _ft_end
10820d94   __errno
10820d94   errno
10820d98   _ZNSt8ios_base4Init9_Init_cntE
10820d9c   _ZSt14_Raise_handler
10820da4   _new_handler
10820da8   _ZNSt6_Winit9_Init_cntE
10820db0   __CIOBUF_
10820ed0   __TI_INITARRAY_Base
10820f1c   _ZGVNSt7num_putIcSt19ostreambuf_iteratorIcSt11char_traitsIcEEE2idE
10820f1c   __TI_INITARRAY_Limit
10820f1c   __TI_STATIC_BASE
10820f20   _ZGVNSt8numpunctIcE2idE
10820f24   dynamicMemory
10820f28   __dso_handle
10820f3c   g_nUsers
10820f3e   g_nTransmit
10820f40   g_nReceive
10820f42   g_nSchedBlocks
108210a8   __TI_Handler_Table_Base
108210b4   __TI_Handler_Table_Limit
108210cc   __TI_CINIT_Base
108210f4   __TI_CINIT_Limit
80000000   globalChannelMatrix
ffffffff   __TI_pprof_out_hndl
ffffffff   __TI_prof_data_size
ffffffff   __TI_prof_data_start
ffffffff   __binit__
ffffffff   __c_args__
ffffffff   binit
UNDEFED    __TI_TLS_INIT_Base
UNDEFED    __TI_TLS_INIT_Limit

[820 symbols]
