******************************************************************************
               TMS320C6x Linker Unix v7.6.0                    
******************************************************************************
>> Linked Tue Jun 24 00:24:44 2014

OUTPUT FILE NAME:   <schedulerTIKernel.out>
ENTRY POINT SYMBOL: "_c_int00"  address: 008a1820


MEMORY CONFIGURATION

         name            origin    length      used     unused   attr    fill
----------------------  --------  ---------  --------  --------  ----  --------
  L2SRAM                00800000   00100000  000b058e  0004fa72  RW X
  MSMCSRAM              0c000000   00200000  0008c7f8  00173808  RW X
  DDR3                  80000000   20000000  00000000  20000000  RWIX


SEGMENT ALLOCATION MAP

run origin  load origin   length   init length attrs members
----------  ----------- ---------- ----------- ----- -------
00800000    00800000    00081b50   00000000    rw-
  00800000    00800000    00081b44   00000000    rw- .far
  00881b48    00881b48    00000008   00000000    rw- .fardata.1
00881b50    00881b50    00000010   00000010    r--
  00881b50    00881b50    00000010   00000010    r-- .const.1
00881b60    00881b60    0002b40a   0002b40a    r-x
  00881b60    00881b60    00027c80   00027c80    r-x .text
  008a97e0    008a97e0    0000378a   0000378a    r-- .const.2
008acf70    008acf70    00002bc4   00000000    rw-
  008acf70    008acf70    00002000   00000000    rw- .stack
  008aef70    008aef70    00000bc4   00000000    rw- .fardata.2
008afb34    008afb34    00000048   00000048    r--
  008afb34    008afb34    00000048   00000048    r-- .init_array
008afb80    008afb80    00000020   00000000    rw-
  008afb80    008afb80    00000018   00000000    rw- .bss
  008afb98    008afb98    00000008   00000000    rw- .neardata
008afba0    008afba0    0000001c   00000000    r--
  008afba0    008afba0    0000001c   00000000    r-- .rodata
008afbbc    008afbbc    00000010   00000010    r--
  008afbbc    008afbbc    00000010   00000010    r-- .switch
008afc00    008afc00    00000200   00000200    r-x
  008afc00    008afc00    00000200   00000200    r-x .vecs
008afe00    008afe00    00000120   00000000    rw-
  008afe00    008afe00    00000120   00000000    rw- .cio
008aff20    008aff20    000006b0   000006b0    r--
  008aff20    008aff20    000006b0   000006b0    r-- .cinit
0c000000    0c000000    0008c7f8   00000000    rw-
  0c000000    0c000000    0008c7f8   00000000    rw- .bigMem


SECTION ALLOCATION MAP

 output                                  attributes/
section   page    origin      length       input sections
--------  ----  ----------  ----------   ----------------
.far       0    00800000    00081b44     UNINITIALIZED
                  00800000    000803f8     app_pe66.oe66 (.far)
                  008803f8    00001000     app_pe66.oe66 (.far:taskStackSection)
                  008813f8    000001d8     rts6600_elf.lib : wiostrea.obj (.far)
                  008815d0    000001d4                     : iostream.obj (.far)
                  008817a4    00000192     globalDeclarations.obj (.far)
                  00881936    00000002     blasFunctions.obj (.far)
                  00881938    00000140     (.common:__TI_tmpnams)
                  00881a78    0000000c     rts6600_elf.lib : locale0.obj (.far)
                  00881a84    00000004                     : wlocale.obj (.far:_ZNSt10moneypunctIwLb0EE2idE)
                  00881a88    00000008     (.common:parmbuf)
                  00881a90    00000008                     : wlocale.obj (.far:_ZGVNSt10moneypunctIwLb0EE2idE)
                  00881a98    00000008                     : wlocale.obj (.far:_ZGVNSt10moneypunctIwLb1EE2idE)
                  00881aa0    00000008                     : iostream.obj (.far:_ZGVNSt7codecvtIcciE2idE)
                  00881aa8    00000008                     : wlocale.obj (.far:_ZGVNSt7collateIwE2idE)
                  00881ab0    00000008                     : wlocale.obj (.far:_ZGVNSt7num_getIwSt19istreambuf_iteratorIwSt11char_traitsIwEEE2idE)
                  00881ab8    00000008                     : wlocale.obj (.far:_ZGVNSt7num_putIwSt19ostreambuf_iteratorIwSt11char_traitsIwEEE2idE)
                  00881ac0    00000008                     : wlocale.obj (.far:_ZGVNSt8messagesIwE2idE)
                  00881ac8    00000008                     : wlocale.obj (.far:_ZGVNSt8numpunctIwE2idE)
                  00881ad0    00000008                     : wlocale.obj (.far:_ZGVNSt8time_getIwSt19istreambuf_iteratorIwSt11char_traitsIwEEE2idE)
                  00881ad8    00000008                     : wlocale.obj (.far:_ZGVNSt9money_getIwSt19istreambuf_iteratorIwSt11char_traitsIwEEE2idE)
                  00881ae0    00000008                     : wlocale.obj (.far:_ZGVNSt9money_putIwSt19ostreambuf_iteratorIwSt11char_traitsIwEEE2idE)
                  00881ae8    00000004                     : wlocale.obj (.far:_ZNSt10moneypunctIwLb1EE2idE)
                  00881aec    00000004                     : iostream.obj (.far:_ZNSt13basic_filebufIcSt11char_traitsIcEE7_StinitE)
                  00881af0    00000004                     : wiostrea.obj (.far:_ZNSt13basic_filebufIwSt11char_traitsIwEE7_StinitE)
                  00881af4    00000004                     : iostream.obj (.far:_ZNSt4fposIiE4_StzE)
                  00881af8    00000004                     : iostream.obj (.far:_ZNSt7codecvtIcciE2idE)
                  00881afc    00000004                     : wlocale.obj (.far:_ZNSt7collateIwE2idE)
                  00881b00    00000004                     : wlocale.obj (.far:_ZNSt7num_getIwSt19istreambuf_iteratorIwSt11char_traitsIwEEE2idE)
                  00881b04    00000004     dynamicMemory.obj (.far:_ZNSt7num_putIcSt19ostreambuf_iteratorIcSt11char_traitsIcEEE2idE)
                  00881b08    00000004     rts6600_elf.lib : wlocale.obj (.far:_ZNSt7num_putIwSt19ostreambuf_iteratorIwSt11char_traitsIwEEE2idE)
                  00881b0c    00000004                     : wlocale.obj (.far:_ZNSt8messagesIwE2idE)
                  00881b10    00000004     dynamicMemory.obj (.far:_ZNSt8numpunctIcE2idE)
                  00881b14    00000004     rts6600_elf.lib : wlocale.obj (.far:_ZNSt8numpunctIwE2idE)
                  00881b18    00000004                     : wlocale.obj (.far:_ZNSt8time_getIwSt19istreambuf_iteratorIwSt11char_traitsIwEEE2idE)
                  00881b1c    00000004                     : wlocale.obj (.far:_ZNSt8time_putIwSt19ostreambuf_iteratorIwSt11char_traitsIwEEE2idE)
                  00881b20    00000004                     : wlocale.obj (.far:_ZNSt9money_getIwSt19istreambuf_iteratorIwSt11char_traitsIwEEE2idE)
                  00881b24    00000004                     : wlocale.obj (.far:_ZNSt9money_putIwSt19ostreambuf_iteratorIwSt11char_traitsIwEEE2idE)
                  00881b28    00000004                     : wlocale.obj (.far)
                  00881b2c    00000002     displayFunctions.obj (.far)
                  00881b2e    00000002     dynamicMemory.obj (.far)
                  00881b30    00000002     frameworkFunctions.obj (.far)
                  00881b32    00000002     greedyScheduling.obj (.far)
                  00881b34    00000002     lapackFunctions.obj (.far)
                  00881b36    00000002     lteSystem.obj (.far)
                  00881b38    00000002     memoryManagement.obj (.far)
                  00881b3a    00000002     pipdScheduling.obj (.far)
                  00881b3c    00000002     randomScheduling.obj (.far)
                  00881b3e    00000002     schedulingAlgorithms.obj (.far)
                  00881b40    00000002     succprojScheduling.obj (.far)
                  00881b42    00000002     supportingFunctions.obj (.far)

.fardata.1 
*          0    00881b48    00000008     UNINITIALIZED
                  00881b48    00000008     app_pe66.oe66 (.fardata:ti_sysbios_hal_Hwi_Object__table__V)

.const.1   0    00881b50    00000010     
                  00881b50    00000010     frameworkFunctions.obj (.const:.string)

.stack     0    008acf70    00002000     UNINITIALIZED
                  008acf70    00000008     boot.ae66 : boot.oe66 (.stack)
                  008acf78    00001ff8     --HOLE--

.bss       0    008afb80    00000018     UNINITIALIZED
                  008afb80    00000008     dynamicMemory.obj (.bss:_ZGVNSt7num_putIcSt19ostreambuf_iteratorIcSt11char_traitsIcEEE2idE)
                  008afb88    00000008     dynamicMemory.obj (.bss:_ZGVNSt8numpunctIcE2idE)
                  008afb90    00000004     globalDeclarations.obj (.bss)
                  008afb94    00000004     (.common:__dso_handle)

.neardata 
*          0    008afb98    00000008     UNINITIALIZED
                  008afb98    00000008     lteSystem.obj (.neardata)

.rodata    0    008afba0    0000001c     UNINITIALIZED
                  008afba0    0000001c     app_pe66.oe66 (.rodata)

.cinit     0    008aff20    000006b0     
                  008aff20    00000610     (.cinit..fardata.2.load) [load image, compression = rle]
                  008b0530    00000022     (.cinit..rodata.load) [load image, compression = rle]
                  008b0552    00000002     --HOLE-- [fill = 0]
                  008b0554    0000000e     (.cinit..neardata.load) [load image, compression = rle]
                  008b0562    00000002     --HOLE-- [fill = 0]
                  008b0564    0000000d     (.cinit..fardata.1.load) [load image, compression = rle]
                  008b0571    00000003     --HOLE-- [fill = 0]
                  008b0574    0000000c     (__TI_handler_table)
                  008b0580    00000008     (.cinit..bigMem.load) [load image, compression = zero_init]
                  008b0588    00000008     (.cinit..bss.load) [load image, compression = zero_init]
                  008b0590    00000008     (.cinit..far.load) [load image, compression = zero_init]
                  008b0598    00000038     (__TI_cinit_table)

.init_array 
*          0    008afb34    00000048     
                  008afb34    00000004     blasFunctions.obj (.init_array)
                  008afb38    00000004     displayFunctions.obj (.init_array)
                  008afb3c    00000004     dynamicMemory.obj (.init_array)
                  008afb40    00000004     frameworkFunctions.obj (.init_array)
                  008afb44    00000004     globalDeclarations.obj (.init_array)
                  008afb48    00000004     greedyScheduling.obj (.init_array)
                  008afb4c    00000004     lapackFunctions.obj (.init_array)
                  008afb50    00000004     lteSystem.obj (.init_array)
                  008afb54    00000004     memoryManagement.obj (.init_array)
                  008afb58    00000004     pipdScheduling.obj (.init_array)
                  008afb5c    00000004     randomScheduling.obj (.init_array)
                  008afb60    00000004     rts6600_elf.lib : iostream.obj (.init_array)
                  008afb64    00000004                     : locale0.obj (.init_array)
                  008afb68    00000004                     : wiostrea.obj (.init_array)
                  008afb6c    00000004                     : wlocale.obj (.init_array)
                  008afb70    00000004     schedulingAlgorithms.obj (.init_array)
                  008afb74    00000004     succprojScheduling.obj (.init_array)
                  008afb78    00000004     supportingFunctions.obj (.init_array)

.vecs      0    008afc00    00000200     
                  008afc00    00000200     app_pe66.oe66 (.vecs)

.bigMem    0    0c000000    0008c7f8     UNINITIALIZED
                  0c000000    0007fff8     app_pe66.oe66 (.bigMem)
                  0c07fff8    0000c800     globalDeclarations.obj (.bigMem)

xdc.meta   0    00800000    000000e8     COPY SECTION
                  00800000    000000e8     app_pe66.oe66 (xdc.meta)

.text      0    00881b60    00027c80     
                  00881b60    000015c0     dynamicMemory.obj (.text)
                  00883120    000014c0     blasFunctions.obj (.text)
                  008845e0    00000dc0     lapackFunctions.obj (.text)
                  008853a0    00000a00     frameworkFunctions.obj (.text)
                  00885da0    000008e0     rts6600_elf.lib : wiostrea.obj (.text:_ZNSt6_WinitC1Ev)
                  00886680    000008a0     ti.targets.rts6000.ae66 : System.oe66 (.text:xdc_runtime_System_doPrint__I)
                  00886f20    000007c0     pipdScheduling.obj (.text)
                  008876e0    000007a0     rts6600_elf.lib : iostream.obj (.text:_ZNSt8ios_base4InitC1Ev)
                  00887e80    00000780     succprojScheduling.obj (.text)
                  00888600    00000780     sysbios.ae66 : BIOS.obj (.text:ti_sysbios_family_c64p_Exception_handler__I)
                  00888d80    00000740                  : BIOS.obj (.text:ti_sysbios_knl_Semaphore_pend__E)
                  008894c0    000006a0                  : BIOS.obj (.text:ti_sysbios_timers_timer64_Timer_Module_startup__E)
                  00889b60    00000680     rts6600_elf.lib : powf.obj (.text:powf)
                  0088a1e0    00000660     sysbios.ae66 : BIOS.obj (.text:ti_sysbios_heaps_HeapMem_alloc__E)
                  0088a840    00000620     rts6600_elf.lib : iostream.obj (.text:_ZNSt13basic_filebufIcSt11char_traitsIcEE8overflowEi)
                  0088ae60    00000600                     : wiostrea.obj (.text:_ZNSt13basic_filebufIwSt11char_traitsIwEE8overflowEj)
                  0088b460    00000600                     : divd.obj (.text:__c6xabi_divd)
                  0088ba60    000005e0                     : wiostrea.obj (.text:_ZNSt13basic_filebufIwSt11char_traitsIwEE5uflowEv)
                  0088c040    000005e0     sysbios.ae66 : BIOS.obj (.text:ti_sysbios_heaps_HeapMem_free__E)
                  0088c620    000005c0     rts6600_elf.lib : iostream.obj (.text:_ZNSt13basic_filebufIcSt11char_traitsIcEE5uflowEv)
                  0088cbe0    000005a0     displayFunctions.obj (.text)
                  0088d180    00000580     dynamicMemory.obj (.text:_ZNKSt7num_putIcSt19ostreambuf_iteratorIcSt11char_traitsIcEEE5_FputES3_RSt8ios_basecPKcjjjj)
                  0088d700    00000580     rts6600_elf.lib : _printfi.obj (.text:_getarg_diouxp)
                  0088dc80    00000540                     : _printfi.obj (.text:_setfield)
                  0088e1c0    00000540     supportingFunctions.obj (.text)
                  0088e700    00000520     rts6600_elf.lib : wiostrea.obj (.text:_ZNSt13basic_filebufIwSt11char_traitsIwEE9_EndwriteEv)
                  0088ec20    00000520                     : ios.obj (.text:_ZNSt8ios_base5clearENSt5_IosbIiE8_IostateEb)
                  0088f140    00000500                     : iostream.obj (.text:_ZNSt13basic_filebufIcSt11char_traitsIcEE9_EndwriteEv)
                  0088f640    00000500                     : wlocale.obj (.text:__sti___11_wlocale_cpp_3b9bd5f7)
                  0088fb40    000004a0                     : fwrite.obj (.text:fwrite)
                  0088ffe0    00000460                     : _printfi.obj (.text:__TI_printfi)
                  00890440    000003e0     greedyScheduling.obj (.text)
                  00890820    000003a0     rts6600_elf.lib : fputs.obj (.text:fputs)
                  00890bc0    00000320                     : _printfi.obj (.text:_pproc_fge)
                  00890ee0    00000300     frameworkFunctions.obj (.text:_ZStlsISt11char_traitsIcEERSt13basic_ostreamIcT_ES5_PKc)
                  008911e0    000002e0     sysbios.ae66 : BIOS.obj (.text:ti_sysbios_heaps_HeapMem_Instance_init__E)
                  008914c0    000002e0                  : BIOS.obj (.text:ti_sysbios_knl_Task_Module_startup__E)
                  008917a0    000002e0                  : BIOS.obj (.text:ti_sysbios_timers_timer64_Timer_deviceConfig__I)
                  00891a80    000002c0     dynamicMemory.obj (.text:_ZNKSt7num_putIcSt19ostreambuf_iteratorIcSt11char_traitsIcEEE5_IputES3_RSt8ios_basecPcj)
                  00891d40    000002c0     dynamicMemory.obj (.text:_ZNKSt7num_putIcSt19ostreambuf_iteratorIcSt11char_traitsIcEEE6do_putES3_RSt8ios_basecd)
                  00892000    000002c0     dynamicMemory.obj (.text:_ZNKSt7num_putIcSt19ostreambuf_iteratorIcSt11char_traitsIcEEE6do_putES3_RSt8ios_basece)
                  008922c0    000002a0     rts6600_elf.lib : _printfi.obj (.text:_pproc_fwp)
                  00892560    000002a0                     : _printfi.obj (.text:ecvt)
                  00892800    000002a0                     : _printfi.obj (.text:fcvt)
                  00892aa0    000002a0     sysbios.ae66 : BIOS.obj (.text:ti_sysbios_knl_Clock_workFunc__E)
                  00892d40    00000280     rts6600_elf.lib : wiostrea.obj (.text:_ZNSt6_WinitD1Ev)
                  00892fc0    00000280                     : divf.obj (.text:__c6xabi_divf)
                  00893240    00000280                     : iostream.obj (.text:__sti___12_iostream_cpp_b004430c)
                  008934c0    00000280     randomScheduling.obj (.text)
                  00893740    00000260     lapackFunctions.obj (.text:_ZNSt13_Complex_baseIfSt16_C_float_complexE4_DivIfEEvRKSt7complexIT_E)
                  008939a0    00000260     pipdScheduling.obj (.text:_ZSt5_FabsIfET_RKSt7complexIS0_EPi)
                  00893c00    00000260     rts6600_elf.lib : _printfi.obj (.text:_pconv_e)
                  00893e60    00000260     sysbios.ae66 : BIOS.obj (.text:ti_sysbios_family_c64p_Hwi_dispatchCore__I)
                  008940c0    00000260     ti.targets.rts6000.ae66 : Startup.oe66 (.text:xdc_runtime_Startup_startMods__I)
                  00894320    00000260     app_pe66.oe66 (.text:xdc_runtime_System_printfExtend__I)
                  00894580    00000240     rts6600_elf.lib : wiostrea.obj (.text:_ZNSt13basic_filebufIwSt11char_traitsIwEE5imbueERKSt6locale)
                  008947c0    00000240                     : imath64.obj (.text:__c6xabi_divull)
                  00894a00    00000240                     : _printfi.obj (.text:_pproc_diouxp)
                  00894c40    00000240                     : _printfi.obj (.text:_pproc_str)
                  00894e80    00000240     lteSystem.obj (.text)
                  008950c0    00000240     rts6600_elf.lib : setvbuf.obj (.text:setvbuf)
                  00895300    00000240     sysbios.ae66 : BIOS.obj (.text:ti_sysbios_family_c64p_Exception_internalHandler__I)
                  00895540    00000240                  : BIOS.obj (.text:ti_sysbios_knl_Semaphore_post__E)
                  00895780    00000240     ti.targets.rts6000.ae66 : Core-mem.oe66 (.text:xdc_runtime_Core_createObject__I)
                  008959c0    00000240                             : LoggerBuf.oe66 (.text:xdc_runtime_LoggerBuf_write8__E)
                  00895c00    00000220     rts6600_elf.lib : wiostrea.obj (.text:__sti___12_wiostrea_cpp_9fa80e7a)
                  00895e20    00000220                     : fputc.obj (.text:fputc)
                  00896040    00000220     sysbios.ae66 : BIOS.obj (.text:ti_sysbios_knl_Swi_run__I)
                  00896260    00000220                  : BIOS.obj (.text:ti_sysbios_timers_timer64_Timer_setPeriodMicroSecs__E)
                  00896480    00000200     rts6600_elf.lib : _printfi.obj (.text:_pconv_g)
                  00896680    00000200     sysbios.ae66 : c64p_Hwi_disp_always.obj (.text:_ti_sysbios_family_c64p_Hwi_dispatchAlways)
                  00896880    00000200     ti.targets.rts6000.ae66 : Error.oe66 (.text:xdc_runtime_Error_policyDefault__E)
                  00896a80    000001e0     dynamicMemory.obj (.text:_ZNKSt7num_putIcSt19ostreambuf_iteratorIcSt11char_traitsIcEEE6do_putES3_RSt8ios_basecb)
                  00896c60    000001e0     rts6600_elf.lib : imath40.obj (.text:__c6xabi_divul)
                  00896e40    000001e0     sysbios.ae66 : BIOS.obj (.text:ti_sysbios_timers_timer64_Timer_getFreq__E)
                  00897020    000001c0     rts6600_elf.lib : trgdrv.obj (.text:HOSTrename)
                  008971e0    000001c0                     : vec_newdel.obj (.text:_Z17array_new_generalPvijjS_PFYS_S_ES1_PFYS_jEPFYvS_Eii)
                  008973a0    000001c0                     : iostream.obj (.text:_ZNSt13basic_filebufIcSt11char_traitsIcEE7seekoffElNSt5_IosbIiE8_SeekdirENS4_9_OpenmodeE)
                  00897560    000001c0                     : wiostrea.obj (.text:_ZNSt13basic_filebufIwSt11char_traitsIwEE7seekoffElNSt5_IosbIiE8_SeekdirENS4_9_OpenmodeE)
                  00897720    000001c0                     : _printfi.obj (.text:_mcpy)
                  008978e0    000001c0     sysbios.ae66 : BIOS.obj (.text:ti_sysbios_knl_Task_checkStacks__E)
                  00897aa0    000001c0     ti.targets.rts6000.ae66 : Text.oe66 (.text:xdc_runtime_Text_putSite__E)
                  00897c60    000001a0     rts6600_elf.lib : string.obj (.text:_ZNKSt12_String_base5_XranEv)
                  00897e00    000001a0                     : iostream.obj (.text:_ZNSt13basic_filebufIcSt11char_traitsIcEE7seekposESt4fposIiENSt5_IosbIiE9_OpenmodeE)
                  00897fa0    000001a0                     : wiostrea.obj (.text:_ZNSt13basic_filebufIwSt11char_traitsIwEE7seekposESt4fposIiENSt5_IosbIiE9_OpenmodeE)
                  00898140    000001a0                     : wiostrea.obj (.text:_ZNSt13basic_filebufIwSt11char_traitsIwEE9pbackfailEj)
                  008982e0    000001a0                     : frexpf.obj (.text:frexpf)
                  00898480    000001a0     sysbios.ae66 : BIOS.obj (.text:ti_sysbios_gates_GateMutex_enter__E)
                  00898620    000001a0                  : BIOS.obj (.text:ti_sysbios_knl_Task_schedule__I)
                  008987c0    000001a0                  : BIOS.obj (.text:ti_sysbios_timers_timer64_Timer_start__E)
                  00898960    000001a0     ti.targets.rts6000.ae66 : LoggerBuf.oe66 (.text:xdc_runtime_LoggerBuf_write4__E)
                  00898b00    00000180     rts6600_elf.lib : xlocinfo.obj (.text:_Getctyptab)
                  00898c80    00000180                     : wiostrea.obj (.text:_ZNKSt5ctypeIwE10do_toupperEPwPKw)
                  00898e00    00000180                     : wiostrea.obj (.text:_ZNKSt7codecvtIwciE5do_inERiPKcS3_RS3_PwS5_RS5_)
                  00898f80    00000180                     : wiostrea.obj (.text:_ZNKSt7codecvtIwciE6do_outERiPKwS3_RS3_PcS5_RS5_)
                  00899100    00000180                     : iostream.obj (.text:_ZNSt13basic_filebufIcSt11char_traitsIcEE9pbackfailEi)
                  00899280    00000180                     : wiostrea.obj (.text:_ZSt9use_facetISt5ctypeIwEERKT_RKSt6locale)
                  00899400    00000180                     : ldexpf.obj (.text:ldexpf)
                  00899580    00000180     memoryManagement.obj (.text)
                  00899700    00000180     sysbios.ae66 : c64p_Exception_asm.obj (.text)
                  00899880    00000180                  : BIOS.obj (.text:ti_sysbios_knl_Task_exit__E)
                  00899a00    00000180                  : BIOS.obj (.text:ti_sysbios_knl_Task_startCore__E)
                  00899b80    00000180     ti.targets.rts6000.ae66 : Core-smem.oe66 (.text:xdc_runtime_Core_constructObject__I)
                  00899d00    00000160     rts6600_elf.lib : iostream.obj (.text:_ZNSt13basic_filebufIcSt11char_traitsIcEED0Ev)
                  00899e60    00000160                     : wiostrea.obj (.text:_ZNSt13basic_filebufIwSt11char_traitsIwEED0Ev)
                  00899fc0    00000160                     : iostream.obj (.text:_ZNSt9basic_iosIcSt11char_traitsIcEE4initEPSt15basic_streambufIcS1_Eb)
                  0089a120    00000160                     : wiostrea.obj (.text:_ZNSt9basic_iosIwSt11char_traitsIwEE4initEPSt15basic_streambufIwS1_Eb)
                  0089a280    00000160                     : copy_decompress_rle.obj (.text:__TI_decompress_rle_core)
                  0089a3e0    00000140                     : string.obj (.text:_ZNKSt12_String_base5_XlenEv)
                  0089a520    00000140     dynamicMemory.obj (.text:_ZNSolsEb)
                  0089a660    00000140     dynamicMemory.obj (.text:_ZNSolsEj)
                  0089a7a0    00000140     rts6600_elf.lib : iostream.obj (.text:_ZNSt13basic_filebufIcSt11char_traitsIcEE6setbufEPci)
                  0089a8e0    00000140                     : iostream.obj (.text:_ZNSt13basic_filebufIcSt11char_traitsIcEED1Ev)
                  0089aa20    00000140                     : wiostrea.obj (.text:_ZNSt13basic_filebufIwSt11char_traitsIwEED1Ev)
                  0089ab60    00000140                     : locale0.obj (.text:_ZNSt6locale7_LocimpD1Ev)
                  0089aca0    00000140     dynamicMemory.obj (.text:_ZNSt8numpunctIcE5_InitERKSt8_Locinfo)
                  0089ade0    00000140     rts6600_elf.lib : iostream.obj (.text:_ZSt9use_facetISt7codecvtIcciEERKT_RKSt6locale)
                  0089af20    00000140                     : _bufread.obj (.text:__TI_buff_read)
                  0089b060    00000140                     : fclose.obj (.text:__TI_closefile)
                  0089b1a0    00000140     boot.ae66 : autoinit.oe66 (.text:_auto_init_elf)
                  0089b2e0    00000140     rts6600_elf.lib : fflush.obj (.text:fflush)
                  0089b420    00000140                     : fgetc.obj (.text:fgetc)
                  0089b560    00000140                     : lowlev.obj (.text:getdevice)
                  0089b6a0    00000140     sysbios.ae66 : BIOS.obj (.text:ti_sysbios_family_c64p_Hwi_Module_startup__E)
                  0089b7e0    00000140                  : BIOS.obj (.text:ti_sysbios_family_c66_Cache_Module_startup__E)
                  0089b920    00000140                  : BIOS.obj (.text:ti_sysbios_knl_Semaphore_Instance_init__E)
                  0089ba60    00000140                  : BIOS.obj (.text:ti_sysbios_knl_Swi_post__E)
                  0089bba0    00000140                  : BIOS.obj (.text:ti_sysbios_knl_Task_blockI__E)
                  0089bce0    00000140     rts6600_elf.lib : ungetc.obj (.text:ungetc)
                  0089be20    00000140     ti.targets.rts6000.ae66 : Text.oe66 (.text:xdc_runtime_Text_putLab__E)
                  0089bf60    00000120     rts6600_elf.lib : wiostrea.obj (.text:_ZNKSt5ctypeIwE5do_isEPKwS2_Ps)
                  0089c080    00000120                     : wiostrea.obj (.text:_ZNKSt5ctypeIwE9do_narrowEPKwS2_cPc)
                  0089c1a0    00000120     dynamicMemory.obj (.text:_ZNKSt7num_putIcSt19ostreambuf_iteratorIcSt11char_traitsIcEEE5_IfmtEPcPKcNSt5_IosbIiE9_FmtflagsE)
                  0089c2c0    00000120     rts6600_elf.lib : wiostrea.obj (.text:_ZNSt13basic_filebufIwSt11char_traitsIwEE6setbufEPwi)
                  0089c3e0    00000120                     : locale0.obj (.text:_ZNSt6locale5_InitEv)
                  0089c500    00000120                     : locale0.obj (.text:_ZNSt8_LocinfoC1EPKc)
                  0089c620    00000120                     : locale0.obj (.text:_ZNSt8_LocinfoD1Ev)
                  0089c740    00000120                     : fseek.obj (.text:fseek)
                  0089c860    00000120                     : ftell.obj (.text:ftell)
                  0089c980    00000120                     : sqrtf.obj (.text:sqrtf)
                  0089caa0    00000120     ti.targets.rts6000.ae66 : LoggerBuf.oe66 (.text:xdc_runtime_LoggerBuf_setFilterLevel__E)
                  0089cbc0    00000120                             : Text.oe66 (.text:xdc_runtime_Text_putMod__E)
                  0089cce0    00000100     rts6600_elf.lib : trgdrv.obj (.text:HOSTlseek)
                  0089cde0    00000100                     : wiostrea.obj (.text:_ZNKSt7codecvtIwciE9do_lengthERKiPKcS4_j)
                  0089cee0    00000100     dynamicMemory.obj (.text:_ZNKSt7num_putIcSt19ostreambuf_iteratorIcSt11char_traitsIcEEE5_FfmtEPccNSt5_IosbIiE9_FmtflagsE)
                  0089cfe0    00000100     dynamicMemory.obj (.text:_ZNSs6appendERKSsjj)
                  0089d0e0    00000100     dynamicMemory.obj (.text:_ZNSs6insertEjjc)
                  0089d1e0    00000100     rts6600_elf.lib : iostream.obj (.text:_ZNSt15basic_streambufIcSt11char_traitsIcEE6xsgetnEPci)
                  0089d2e0    00000100                     : iostream.obj (.text:_ZNSt15basic_streambufIcSt11char_traitsIcEE6xsputnEPKci)
                  0089d3e0    00000100                     : wiostrea.obj (.text:_ZNSt15basic_streambufIwSt11char_traitsIwEE6xsgetnEPwi)
                  0089d4e0    00000100                     : wiostrea.obj (.text:_ZNSt15basic_streambufIwSt11char_traitsIwEE6xsputnEPKwi)
                  0089d5e0    00000100                     : _io_perm.obj (.text:__TI_wrt_ok)
                  0089d6e0    00000100                     : _printfi.obj (.text:_ltostr)
                  0089d7e0    00000100                     : _printfi.obj (.text:_pproc_fflags)
                  0089d8e0    00000100                     : atoi.obj (.text:atoi)
                  0089d9e0    00000100     schedulingAlgorithms.obj (.text)
                  0089dae0    00000100     sysbios.ae66 : BIOS.obj (.text:ti_sysbios_knl_Swi_restoreHwi__E)
                  0089dbe0    00000100                  : BIOS.obj (.text:ti_sysbios_knl_Task_unblockI__E)
                  0089dce0    00000100                  : BIOS.obj (.text:ti_sysbios_timers_timer64_Timer_initDevice__I)
                  0089dde0    00000100     ti.targets.rts6000.ae66 : Core-mem.oe66 (.text:xdc_runtime_Core_deleteObject__I)
                  0089dee0    00000100                             : LoggerBuf.oe66 (.text:xdc_runtime_LoggerBuf_getFilterLevel__E)
                  0089dfe0    00000100                             : Startup.oe66 (.text:xdc_runtime_Startup_exec__E)
                  0089e0e0    00000100                             : Text.oe66 (.text:xdc_runtime_Text_visitRope2__I)
                  0089e1e0    000000e0     rts6600_elf.lib : trgdrv.obj (.text:HOSTopen)
                  0089e2c0    000000e0                     : trgdrv.obj (.text:HOSTwrite)
                  0089e3a0    000000e0                     : locale0.obj (.text:_Fac_tidy)
                  0089e480    000000e0     dynamicMemory.obj (.text:_ZNSs5_CopyEjj)
                  0089e560    000000e0     dynamicMemory.obj (.text:_ZNSs5eraseEjj)
                  0089e640    000000e0     dynamicMemory.obj (.text:_ZNSs6assignERKSsjj)
                  0089e720    000000e0     rts6600_elf.lib : locale0.obj (.text:_ZNSt6locale7_LocimpC1Eb)
                  0089e800    000000e0                     : dtor_list.obj (.text:__cxa_finalize)
                  0089e8e0    000000e0                     : divi.obj (.text:__divi)
                  0089e9c0    000000e0                     : _printfi.obj (.text:_div)
                  0089eaa0    000000e0                     : lowlev.obj (.text:close)
                  0089eb80    000000e0                     : copy_zero_init.obj (.text:decompress:ZI:__TI_zero_init)
                  0089ec60    000000e0                     : ltoa.obj (.text:ltoa)
                  0089ed40    000000e0                     : memset.obj (.text:memset)
                  0089ee20    000000e0                     : printf.obj (.text:printf)
                  0089ef00    000000e0     sysMainLTE.obj (.text)
                  0089efe0    000000e0     sysbios.ae66 : BIOS.obj (.text:ti_sysbios_knl_Swi_runLoop__I)
                  0089f0c0    000000e0                  : BIOS.obj (.text:ti_sysbios_timers_timer64_Timer_startup__E)
                  0089f1a0    000000e0     ti.targets.rts6000.ae66 : Error.oe66 (.text:xdc_runtime_Error_print__E)
                  0089f280    000000e0                             : Memory.oe66 (.text:xdc_runtime_Memory_alloc__E)
                  0089f360    000000c0     rts6600_elf.lib : trgdrv.obj (.text:HOSTread)
                  0089f420    000000c0                     : trgdrv.obj (.text:HOSTunlink)
                  0089f4e0    000000c0                     : dtor_list.obj (.text:_Z11__TI_atexitPFYvPvES_S_)
                  0089f5a0    000000c0                     : wiostrea.obj (.text:_ZNKSt5ctypeIwE10do_tolowerEPwPKw)
                  0089f660    000000c0     dynamicMemory.obj (.text:_ZNKSt7num_putIcSt19ostreambuf_iteratorIcSt11char_traitsIcEEE11_PutgroupedES3_PKcjc)
                  0089f720    000000c0     frameworkFunctions.obj (.text:_ZNSo3putEc)
                  0089f7e0    000000c0     frameworkFunctions.obj (.text:_ZNSo6sentryC1ERSo)
                  0089f8a0    000000c0     dynamicMemory.obj (.text:_ZNSs5_GrowEjb)
                  0089f960    000000c0     dynamicMemory.obj (.text:_ZNSs6appendEPKcj)
                  0089fa20    000000c0     rts6600_elf.lib : iostream.obj (.text:_ZNSt13basic_filebufIcSt11char_traitsIcEE5_InitEPSt4FILENS2_7_InitflE)
                  0089fae0    000000c0     frameworkFunctions.obj (.text:_ZSt9use_facetISt5ctypeIcEERKT_RKSt6locale)
                  0089fba0    000000c0     dynamicMemory.obj (.text:_ZSt9use_facetISt7num_putIcSt19ostreambuf_iteratorIcSt11char_traitsIcEEEERKT_RKSt6locale)
                  0089fc60    000000c0     dynamicMemory.obj (.text:_ZSt9use_facetISt8numpunctIcEERKT_RKSt6locale)
                  0089fd20    000000c0     rts6600_elf.lib : new_.obj (.text:_Znwj)
                  0089fde0    000000c0                     : fflush.obj (.text:__TI_doflush)
                  0089fea0    000000c0                     : _io_perm.obj (.text:__TI_rd_ok)
                  0089ff60    000000c0                     : divu.obj (.text:__divu)
                  008a0020    000000c0                     : remi.obj (.text:__remi)
                  008a00e0    000000c0                     : exit.obj (.text:exit)
                  008a01a0    000000c0     globalDeclarations.obj (.text)
                  008a0260    000000c0     sysbios.ae66 : BIOS.obj (.text:ti_sysbios_heaps_HeapMem_getStats__E)
                  008a0320    000000c0                  : BIOS.obj (.text:ti_sysbios_knl_Clock_logTick__E)
                  008a03e0    000000c0                  : BIOS.obj (.text:ti_sysbios_knl_Swi_schedule__I)
                  008a04a0    000000c0                  : BIOS.obj (.text:ti_sysbios_knl_Task_allBlockedFunction__I)
                  008a0560    000000c0                  : BIOS.obj (.text:ti_sysbios_timers_timer64_Timer_stop__E)
                  008a0620    000000c0     ti.targets.rts6000.ae66 : Error.oe66 (.text:xdc_runtime_Error_setX__E)
                  008a06e0    000000c0                             : LoggerBuf.oe66 (.text:xdc_runtime_LoggerBuf_Instance_init__E)
                  008a07a0    000000c0     app_pe66.oe66 (.text:xdc_runtime_LoggerBuf_Object__create__S)
                  008a0860    000000c0     ti.targets.rts6000.ae66 : System.oe66 (.text:xdc_runtime_System_formatNum__I)
                  008a0920    000000a0     rts6600_elf.lib : trgdrv.obj (.text:HOSTclose)
                  008a09c0    000000a0                     : wiostrea.obj (.text:_ZNKSt5ctypeIwE8do_widenEPKcS2_Pw)
                  008a0a60    000000a0                     : wiostrea.obj (.text:_ZNKSt7codecvtIwciE10do_unshiftERiPcS2_RS2_)
                  008a0b00    000000a0     dynamicMemory.obj (.text:_ZNKSt7num_putIcSt19ostreambuf_iteratorIcSt11char_traitsIcEEE6do_putES3_RSt8ios_basecPKv)
                  008a0ba0    000000a0     frameworkFunctions.obj (.text:_ZNSo12_Sentry_baseC1ERSo)
                  008a0c40    000000a0     frameworkFunctions.obj (.text:_ZNSo12_Sentry_baseD1Ev)
                  008a0ce0    000000a0     dynamicMemory.obj (.text:_ZNSs6appendEjc)
                  008a0d80    000000a0     rts6600_elf.lib : string.obj (.text:_ZNSt11logic_errorD1Ev)
                  008a0e20    000000a0                     : string.obj (.text:_ZNSt12length_errorD1Ev)
                  008a0ec0    000000a0                     : string.obj (.text:_ZNSt12out_of_rangeC1ERKSs)
                  008a0f60    000000a0                     : string.obj (.text:_ZNSt12out_of_rangeD1Ev)
                  008a1000    000000a0     frameworkFunctions.obj (.text:_ZNSt13_Complex_baseIfSt16_C_float_complexE4_MulIfEEvRKSt7complexIT_E)
                  008a10a0    000000a0     rts6600_elf.lib : iostream.obj (.text:_ZNSt13basic_filebufIcSt11char_traitsIcEE9underflowEv)
                  008a1140    000000a0                     : wiostrea.obj (.text:_ZNSt13basic_filebufIwSt11char_traitsIwEE9underflowEv)
                  008a11e0    000000a0                     : ios.obj (.text:_ZNSt13runtime_errorD1Ev)
                  008a1280    000000a0     frameworkFunctions.obj (.text:_ZNSt5ctypeIcEC1EPKsbj)
                  008a1320    000000a0     rts6600_elf.lib : iostream.obj (.text:_ZNSt8ios_base4InitD1Ev)
                  008a13c0    000000a0                     : ios.obj (.text:_ZNSt8ios_base5_InitEv)
                  008a1460    000000a0                     : ios.obj (.text:_ZNSt8ios_base5_TidyEv)
                  008a1500    000000a0                     : ios.obj (.text:_ZNSt8ios_base7_AddstdEv)
                  008a15a0    000000a0                     : ios.obj (.text:_ZNSt8ios_base7failureD1Ev)
                  008a1640    000000a0                     : ios.obj (.text:_ZNSt8ios_baseD1Ev)
                  008a16e0    000000a0                     : fopen.obj (.text:__TI_cleanup)
                  008a1780    000000a0                     : remu.obj (.text:__remu)
                  008a1820    000000a0     boot.ae66 : boot.oe66 (.text:_c_int00)
                  008a18c0    000000a0     rts6600_elf.lib : _printfi.obj (.text:_ecpy)
                  008a1960    000000a0                     : _printfi.obj (.text:_fcpy)
                  008a1a00    000000a0                     : _printfi.obj (.text:_pconv_f)
                  008a1aa0    000000a0                     : memcpy64.obj (.text:memcpy)
                  008a1b40    000000a0     sysbios.ae66 : BIOS.obj (.text:ti_sysbios_family_c64p_Exception_Module_startup__E)
                  008a1be0    000000a0                  : BIOS.obj (.text:ti_sysbios_heaps_HeapMem_init__I)
                  008a1c80    000000a0     rts6600_elf.lib : wchar.obj (.text:wmemcpy)
                  008a1d20    000000a0     ti.targets.rts6000.ae66 : Assert.oe66 (.text:xdc_runtime_Assert_raise__I)
                  008a1dc0    000000a0                             : LoggerBuf.oe66 (.text:xdc_runtime_LoggerBuf_Module_startup__E)
                  008a1e60    000000a0                             : SysMin.oe66 (.text:xdc_runtime_SysMin_abort__E)
                  008a1f00    000000a0                             : SysMin.oe66 (.text:xdc_runtime_SysMin_flush__E)
                  008a1fa0    000000a0                             : SysMin.oe66 (.text:xdc_runtime_SysMin_putch__E)
                  008a2040    000000a0                             : Text.oe66 (.text:xdc_runtime_Text_xprintf__I)
                  008a20e0    00000080     rts6600_elf.lib : locale0.obj (.text:_Setgloballocale)
                  008a2160    00000080                     : wiostrea.obj (.text:_ZNKSt5ctypeIwE10do_scan_isEsPKwS2_)
                  008a21e0    00000080                     : wiostrea.obj (.text:_ZNKSt5ctypeIwE10do_tolowerEw)
                  008a2260    00000080                     : wiostrea.obj (.text:_ZNKSt5ctypeIwE11do_scan_notEsPKwS2_)
                  008a22e0    00000080                     : locale0.obj (.text:_ZNKSt6locale9_GetfacetEj)
                  008a2360    00000080     dynamicMemory.obj (.text:_ZNKSt7num_putIcSt19ostreambuf_iteratorIcSt11char_traitsIcEEE5_PutcES3_PKcj)
                  008a23e0    00000080     dynamicMemory.obj (.text:_ZNKSt7num_putIcSt19ostreambuf_iteratorIcSt11char_traitsIcEEE6do_putES3_RSt8ios_basecl)
                  008a2460    00000080     dynamicMemory.obj (.text:_ZNKSt7num_putIcSt19ostreambuf_iteratorIcSt11char_traitsIcEEE6do_putES3_RSt8ios_basecm)
                  008a24e0    00000080     dynamicMemory.obj (.text:_ZNKSt7num_putIcSt19ostreambuf_iteratorIcSt11char_traitsIcEEE6do_putES3_RSt8ios_basecx)
                  008a2560    00000080     dynamicMemory.obj (.text:_ZNKSt7num_putIcSt19ostreambuf_iteratorIcSt11char_traitsIcEEE6do_putES3_RSt8ios_basecy)
                  008a25e0    00000080     frameworkFunctions.obj (.text:_ZNSo5flushEv)
                  008a2660    00000080     dynamicMemory.obj (.text:_ZNSs5_TidyEbj)
                  008a26e0    00000080     dynamicMemory.obj (.text:_ZNSs6assignEPKcj)
                  008a2760    00000080     rts6600_elf.lib : string.obj (.text:_ZNSt11logic_errorC2ERKSs)
                  008a27e0    00000080                     : string.obj (.text:_ZNSt11logic_errorD0Ev)
                  008a2860    00000080                     : string.obj (.text:_ZNSt12length_errorD0Ev)
                  008a28e0    00000080                     : string.obj (.text:_ZNSt12out_of_rangeD0Ev)
                  008a2960    00000080                     : iostream.obj (.text:_ZNSt13basic_filebufIcSt11char_traitsIcEE4syncEv)
                  008a29e0    00000080                     : wiostrea.obj (.text:_ZNSt13basic_filebufIwSt11char_traitsIwEE4syncEv)
                  008a2a60    00000080                     : ios.obj (.text:_ZNSt13runtime_errorD0Ev)
                  008a2ae0    00000080     frameworkFunctions.obj (.text:_ZNSt15basic_streambufIcSt11char_traitsIcEE5sputcEc)
                  008a2b60    00000080     dynamicMemory.obj (.text:_ZNSt19ostreambuf_iteratorIcSt11char_traitsIcEEaSEc)
                  008a2be0    00000080     rts6600_elf.lib : locale0.obj (.text:_ZNSt6locale5facet9_RegisterEv)
                  008a2c60    00000080                     : ios.obj (.text:_ZNSt8ios_base7failureD0Ev)
                  008a2ce0    00000080                     : ios.obj (.text:_ZNSt8ios_base8_CallfnsENS_5eventE)
                  008a2d60    00000080     dynamicMemory.obj (.text:_ZSt10_MaklocstrIcEPT_PKcS1_RKSt7_Cvtvec)
                  008a2de0    00000080     rts6600_elf.lib : throw.obj (.text:_ZSt14_Debug_messagePKcS0_)
                  008a2e60    00000080                     : trgmsg.obj (.text:__TI_readmsg)
                  008a2ee0    00000080                     : trgmsg.obj (.text:__TI_writemsg)
                  008a2f60    00000080                     : fixfu.obj (.text:__c6xabi_fixfu)
                  008a2fe0    00000080                     : llshift.obj (.text:__c6xabi_llshl)
                  008a3060    00000080                     : roundf.obj (.text:__c6xabi_roundf)
                  008a30e0    00000080     sysbios.ae66 : c62_TaskSupport_asm.obj (.text:_ti_sysbios_family_c62_TaskSupport_swap__E)
                  008a3160    00000080     rts6600_elf.lib : fclose.obj (.text:fclose)
                  008a31e0    00000080                     : lowlev.obj (.text:finddevice)
                  008a3260    00000080     app_pe66.oe66 (.text:malloc)
                  008a32e0    00000080     rts6600_elf.lib : rand.obj (.text:rand)
                  008a3360    00000080     sysbios.ae66 : BIOS.obj (.text:ti_sysbios_family_c62_TaskSupport_start__E)
                  008a33e0    00000080                  : BIOS.obj (.text:ti_sysbios_family_c64p_Hwi_dispatchC__I)
                  008a3460    00000080                  : BIOS.obj (.text:ti_sysbios_family_c64p_Hwi_getStackInfo__E)
                  008a34e0    00000080                  : BIOS.obj (.text:ti_sysbios_hal_Hwi_checkStack)
                  008a3560    00000080                  : BIOS.obj (.text:ti_sysbios_hal_Hwi_initStack)
                  008a35e0    00000080                  : BIOS.obj (.text:ti_sysbios_knl_Idle_run__E)
                  008a3660    00000080                  : BIOS.obj (.text:ti_sysbios_knl_Swi_startup__E)
                  008a36e0    00000080                  : BIOS.obj (.text:ti_sysbios_knl_Task_restore__E)
                  008a3760    00000080     rts6600_elf.lib : wchar.obj (.text:ungetwc)
                  008a37e0    00000080                     : lowlev.obj (.text:unlink)
                  008a3860    00000080     ti.targets.rts6000.ae66 : Core-label.oe66 (.text:xdc_runtime_Core_assignLabel__I)
                  008a38e0    00000080                             : Core-params.oe66 (.text:xdc_runtime_Core_assignParams__I)
                  008a3960    00000080                             : LoggerBuf.oe66 (.text:xdc_runtime_LoggerBuf_filterOutEvent__I)
                  008a39e0    00000080                             : System.oe66 (.text:xdc_runtime_System_atexit__E)
                  008a3a60    00000080                             : System.oe66 (.text:xdc_runtime_System_processAtExit__E)
                  008a3ae0    00000080                             : System.oe66 (.text:xdc_runtime_System_putchar__I)
                  008a3b60    00000080                             : Text.oe66 (.text:xdc_runtime_Text_printVisFxn__I)
                  008a3be0    00000060     rts6600_elf.lib : locale0.obj (.text:_Deletegloballocale)
                  008a3c40    00000060     frameworkFunctions.obj (.text:_ZNKSt5ctypeIcE10do_tolowerEPcPKc)
                  008a3ca0    00000060     frameworkFunctions.obj (.text:_ZNKSt5ctypeIcE10do_toupperEPcPKc)
                  008a3d00    00000060     rts6600_elf.lib : wiostrea.obj (.text:_ZNKSt5ctypeIwE10do_toupperEw)
                  008a3d60    00000060                     : wiostrea.obj (.text:_ZNKSt5ctypeIwE9do_narrowEwc)
                  008a3dc0    00000060     dynamicMemory.obj (.text:_ZNKSt7num_putIcSt19ostreambuf_iteratorIcSt11char_traitsIcEEE4_PutES3_PKcj)
                  008a3e20    00000060     dynamicMemory.obj (.text:_ZNKSt7num_putIcSt19ostreambuf_iteratorIcSt11char_traitsIcEEE4_RepES3_cj)
                  008a3e80    00000060     frameworkFunctions.obj (.text:_ZNKSt9basic_iosIcSt11char_traitsIcEE5widenEc)
                  008a3ee0    00000060     rts6600_elf.lib : ios.obj (.text:_ZNKSt9exception6_RaiseEv)
                  008a3f40    00000060                     : iostream.obj (.text:_ZNSiD0Ev)
                  008a3fa0    00000060                     : iostream.obj (.text:_ZNSoD0Ev)
                  008a4000    00000060     dynamicMemory.obj (.text:_ZNSs7_InsideEPKc)
                  008a4060    00000060     dynamicMemory.obj (.text:_ZNSs9_ChassignEjjc)
                  008a40c0    00000060     lapackFunctions.obj (.text:_ZNSt13_Complex_baseIfSt16_C_float_complexE4_AddIfEEvRKSt7complexIT_E)
                  008a4120    00000060     lapackFunctions.obj (.text:_ZNSt13_Complex_baseIfSt16_C_float_complexE4_SubIfEEvRKSt7complexIT_E)
                  008a4180    00000060     rts6600_elf.lib : iostream.obj (.text:_ZNSt13basic_filebufIcSt11char_traitsIcEE5imbueERKSt6locale)
                  008a41e0    00000060                     : wiostrea.obj (.text:_ZNSt13basic_istreamIwSt11char_traitsIwEED0Ev)
                  008a4240    00000060                     : wiostrea.obj (.text:_ZNSt13basic_ostreamIwSt11char_traitsIwEED0Ev)
                  008a42a0    00000060                     : iostream.obj (.text:_ZNSt15basic_streambufIcSt11char_traitsIcEE5_InitEv)
                  008a4300    00000060                     : iostream.obj (.text:_ZNSt15basic_streambufIcSt11char_traitsIcEE5uflowEv)
                  008a4360    00000060                     : iostream.obj (.text:_ZNSt15basic_streambufIcSt11char_traitsIcEE7seekoffElNSt5_IosbIiE8_SeekdirENS4_9_OpenmodeE)
                  008a43c0    00000060                     : iostream.obj (.text:_ZNSt15basic_streambufIcSt11char_traitsIcEE7seekposESt4fposIiENSt5_IosbIiE9_OpenmodeE)
                  008a4420    00000060                     : iostream.obj (.text:_ZNSt15basic_streambufIcSt11char_traitsIcEED0Ev)
                  008a4480    00000060                     : iostream.obj (.text:_ZNSt15basic_streambufIcSt11char_traitsIcEED1Ev)
                  008a44e0    00000060                     : wiostrea.obj (.text:_ZNSt15basic_streambufIwSt11char_traitsIwEE5_InitEv)
                  008a4540    00000060                     : wiostrea.obj (.text:_ZNSt15basic_streambufIwSt11char_traitsIwEE5uflowEv)
                  008a45a0    00000060                     : wiostrea.obj (.text:_ZNSt15basic_streambufIwSt11char_traitsIwEE7seekoffElNSt5_IosbIiE8_SeekdirENS4_9_OpenmodeE)
                  008a4600    00000060                     : wiostrea.obj (.text:_ZNSt15basic_streambufIwSt11char_traitsIwEE7seekposESt4fposIiENSt5_IosbIiE9_OpenmodeE)
                  008a4660    00000060                     : wiostrea.obj (.text:_ZNSt15basic_streambufIwSt11char_traitsIwEED0Ev)
                  008a46c0    00000060                     : wiostrea.obj (.text:_ZNSt15basic_streambufIwSt11char_traitsIwEED1Ev)
                  008a4720    00000060     frameworkFunctions.obj (.text:_ZNSt5ctypeIcE7_GetcatEPPKNSt6locale5facetE)
                  008a4780    00000060     rts6600_elf.lib : wiostrea.obj (.text:_ZNSt5ctypeIwED0Ev)
                  008a47e0    00000060                     : wiostrea.obj (.text:_ZNSt5ctypeIwED1Ev)
                  008a4840    00000060     frameworkFunctions.obj (.text:_ZNSt6locale2idcvjEv)
                  008a48a0    00000060     frameworkFunctions.obj (.text:_ZNSt6locale5facet7_DecrefEv)
                  008a4900    00000060     rts6600_elf.lib : locale0.obj (.text:_ZNSt6locale7_LocimpD0Ev)
                  008a4960    00000060                     : locale0.obj (.text:_ZNSt6localeC1Ev)
                  008a49c0    00000060     frameworkFunctions.obj (.text:_ZNSt7complexIfEdVERKf)
                  008a4a20    00000060     dynamicMemory.obj (.text:_ZNSt7num_putIcSt19ostreambuf_iteratorIcSt11char_traitsIcEEEC1Ej)
                  008a4a80    00000060     rts6600_elf.lib : ios.obj (.text:_ZNSt8ios_baseD0Ev)
                  008a4ae0    00000060     dynamicMemory.obj (.text:_ZNSt8numpunctIcEC1Ej)
                  008a4b40    00000060     rts6600_elf.lib : iostream.obj (.text:_ZNSt9basic_iosIcSt11char_traitsIcEED0Ev)
                  008a4ba0    00000060                     : wiostrea.obj (.text:_ZNSt9basic_iosIwSt11char_traitsIwEED0Ev)
                  008a4c00    00000060     frameworkFunctions.obj (.text:_ZSt4endlIcSt11char_traitsIcEERSt13basic_ostreamIT_T0_ES6_)
                  008a4c60    00000060     pipdScheduling.obj (.text:_ZStdvIfESt7complexIT_ERKS2_RKS1_)
                  008a4cc0    00000060     rts6600_elf.lib : iostream.obj (.text:_ZTv0_n12_NSiD0Ev)
                  008a4d20    00000060                     : iostream.obj (.text:_ZTv0_n12_NSoD0Ev)
                  008a4d80    00000060                     : wiostrea.obj (.text:_ZTv0_n12_NSt13basic_istreamIwSt11char_traitsIwEED0Ev)
                  008a4de0    00000060                     : wiostrea.obj (.text:_ZTv0_n12_NSt13basic_ostreamIwSt11char_traitsIwEED0Ev)
                  008a4e40    00000060     pipdScheduling.obj (.text:__FDtest)
                  008a4ea0    00000060     rts6600_elf.lib : frcmpyd_div.obj (.text:__TI_frcmpyd_div)
                  008a4f00    00000060                     : llshift.obj (.text:__c6xabi_llshru)
                  008a4f60    00000060                     : vec_newdel.obj (.text:__cxa_vec_ctor)
                  008a4fc0    00000060                     : vec_newdel.obj (.text:__cxa_vec_new)
                  008a5020    00000060                     : locale0.obj (.text:__sti___11_locale0_cpp_36e19383)
                  008a5080    00000060                     : imath64.obj (.text:_subcull)
                  008a50e0    00000060     sysbios.ae66 : c64p_Hwi_asm_switch.obj (.text:_ti_sysbios_family_c64p_Hwi_switchAndDispatch__I)
                  008a5140    00000060                  : c64p_Hwi_asm_switch.obj (.text:_ti_sysbios_family_xxx_Hwi_switchAndRunFunc)
                  008a51a0    00000060     app_pe66.oe66 (.text:calloc)
                  008a5200    00000060     rts6600_elf.lib : fgetpos.obj (.text:fgetpos)
                  008a5260    00000060                     : lowlev.obj (.text:lseek)
                  008a52c0    00000060                     : memccpy.obj (.text:memccpy)
                  008a5320    00000060                     : memchr.obj (.text:memchr)
                  008a5380    00000060                     : memmov.obj (.text:memmove)
                  008a53e0    00000060                     : modff.obj (.text:modff)
                  008a5440    00000060                     : lowlev.obj (.text:read)
                  008a54a0    00000060                     : setlocale.obj (.text:setlocale)
                  008a5500    00000060                     : sprintf.obj (.text:sprintf)
                  008a5560    00000060                     : strcmp.obj (.text:strcmp)
                  008a55c0    00000060                     : strcspn.obj (.text:strcspn)
                  008a5620    00000060     app_pe66.oe66 (.text:ti_sysbios_BIOS_atExitFunc__I)
                  008a5680    00000060     app_pe66.oe66 (.text:ti_sysbios_BIOS_errorRaiseHook__I)
                  008a56e0    00000060     app_pe66.oe66 (.text:ti_sysbios_BIOS_registerRTSLock__I)
                  008a5740    00000060     app_pe66.oe66 (.text:ti_sysbios_BIOS_removeRTSLock__I)
                  008a57a0    00000060     app_pe66.oe66 (.text:ti_sysbios_BIOS_rtsUnlock__I)
                  008a5800    00000060     app_pe66.oe66 (.text:ti_sysbios_gates_GateHwi_Object__create__S)
                  008a5860    00000060     app_pe66.oe66 (.text:ti_sysbios_gates_GateMutex_Object__create__S)
                  008a58c0    00000060     app_pe66.oe66 (.text:ti_sysbios_heaps_HeapMem_Object__create__S)
                  008a5920    00000060     sysbios.ae66 : BIOS.obj (.text:ti_sysbios_knl_Clock_Module_startup__E)
                  008a5980    00000060     app_pe66.oe66 (.text:ti_sysbios_knl_Clock_doTick__I)
                  008a59e0    00000060     app_pe66.oe66 (.text:ti_sysbios_knl_Queue_construct)
                  008a5a40    00000060     app_pe66.oe66 (.text:ti_sysbios_knl_Semaphore_construct)
                  008a5aa0    00000060     sysbios.ae66 : BIOS.obj (.text:ti_sysbios_knl_Semaphore_pendTimeout__I)
                  008a5b00    00000060                  : BIOS.obj (.text:ti_sysbios_knl_Swi_Module_startup__E)
                  008a5b60    00000060                  : BIOS.obj (.text:ti_sysbios_knl_Task_enter__I)
                  008a5bc0    00000060     rts6600_elf.lib : lowlev.obj (.text:write)
                  008a5c20    00000060     ti.targets.rts6000.ae66 : Memory.oe66 (.text:xdc_runtime_Memory_calloc__E)
                  008a5c80    00000060                             : SysMin.oe66 (.text:xdc_runtime_SysMin_Module_startup__E)
                  008a5ce0    00000060                             : SysMin.oe66 (.text:xdc_runtime_SysMin_exit__E)
                  008a5d40    00000060     app_pe66.oe66 (.text:xdc_runtime_SysMin_output__I)
                  008a5da0    00000060     ti.targets.rts6000.ae66 : System.oe66 (.text:xdc_runtime_System_avprintf__E)
                  008a5e00    00000060                             : System.oe66 (.text:xdc_runtime_System_vprintf__E)
                  008a5e60    00000060                             : Text.oe66 (.text:xdc_runtime_Text_cordText__E)
                  008a5ec0    00000040     dynamicMemory.obj (.text:_ZNKSs6_MyptrEv)
                  008a5f00    00000040     dynamicMemory.obj (.text:_ZNKSs8max_sizeEv)
                  008a5f40    00000040     frameworkFunctions.obj (.text:_ZNKSt15basic_streambufIcSt11char_traitsIcEE8_PnavailEv)
                  008a5f80    00000040     frameworkFunctions.obj (.text:_ZNKSt5ctypeIcE10do_tolowerEc)
                  008a5fc0    00000040     frameworkFunctions.obj (.text:_ZNKSt5ctypeIcE10do_toupperEc)
                  008a6000    00000040     frameworkFunctions.obj (.text:_ZNKSt5ctypeIcE5widenEc)
                  008a6040    00000040     frameworkFunctions.obj (.text:_ZNKSt5ctypeIcE8do_widenEPKcS2_Pc)
                  008a6080    00000040     frameworkFunctions.obj (.text:_ZNKSt5ctypeIcE9do_narrowEPKcS2_cPc)
                  008a60c0    00000040     rts6600_elf.lib : wiostrea.obj (.text:_ZNKSt5ctypeIwE5do_isEsw)
                  008a6100    00000040                     : wiostrea.obj (.text:_ZNKSt5ctypeIwE8do_widenEc)
                  008a6140    00000040     dynamicMemory.obj (.text:_ZNKSt7num_putIcSt19ostreambuf_iteratorIcSt11char_traitsIcEEE3putES3_RSt8ios_basecb)
                  008a6180    00000040     dynamicMemory.obj (.text:_ZNKSt7num_putIcSt19ostreambuf_iteratorIcSt11char_traitsIcEEE3putES3_RSt8ios_basecm)
                  008a61c0    00000040     dynamicMemory.obj (.text:_ZNKSt8_Locinfo7_GetcvtEv)
                  008a6200    00000040     frameworkFunctions.obj (.text:_ZNKSt8_Locinfo9_GetctypeEv)
                  008a6240    00000040     dynamicMemory.obj (.text:_ZNKSt8numpunctIcE8groupingEv)
                  008a6280    00000040     dynamicMemory.obj (.text:_ZNKSt8numpunctIcE8truenameEv)
                  008a62c0    00000040     dynamicMemory.obj (.text:_ZNKSt8numpunctIcE9falsenameEv)
                  008a6300    00000040     rts6600_elf.lib : iostream.obj (.text:_ZNSiD1Ev)
                  008a6340    00000040     frameworkFunctions.obj (.text:_ZNSo5_OsfxEv)
                  008a6380    00000040     rts6600_elf.lib : iostream.obj (.text:_ZNSoD1Ev)
                  008a63c0    00000040     dynamicMemory.obj (.text:_ZNSs4_EosEj)
                  008a6400    00000040     dynamicMemory.obj (.text:_ZNSs6_MyptrEv)
                  008a6440    00000040     dynamicMemory.obj (.text:_ZNSs6assignEPKc)
                  008a6480    00000040     dynamicMemory.obj (.text:_ZNSs6assignERKSs)
                  008a64c0    00000040     dynamicMemory.obj (.text:_ZNSsC1EPKc)
                  008a6500    00000040     dynamicMemory.obj (.text:_ZNSsC1Ev)
                  008a6540    00000040     frameworkFunctions.obj (.text:_ZNSt10ctype_baseC1Ej)
                  008a6580    00000040     dynamicMemory.obj (.text:_ZNSt11char_traitsIcE6assignEPcjc)
                  008a65c0    00000040     frameworkFunctions.obj (.text:_ZNSt13_Complex_baseIfSt16_C_float_complexEC1ERKfS3_)
                  008a6600    00000040     rts6600_elf.lib : wiostrea.obj (.text:_ZNSt13basic_istreamIwSt11char_traitsIwEED1Ev)
                  008a6640    00000040                     : wiostrea.obj (.text:_ZNSt13basic_ostreamIwSt11char_traitsIwEED1Ev)
                  008a6680    00000040     frameworkFunctions.obj (.text:_ZNSt15basic_streambufIcSt11char_traitsIcEE5sputnEPKci)
                  008a66c0    00000040     dynamicMemory.obj (.text:_ZNSt19ostreambuf_iteratorIcSt11char_traitsIcEEC1EPSt15basic_streambufIcS1_E)
                  008a6700    00000040     frameworkFunctions.obj (.text:_ZNSt5ctypeIcE5_TidyEv)
                  008a6740    00000040     frameworkFunctions.obj (.text:_ZNSt5ctypeIcED1Ev)
                  008a6780    00000040     frameworkFunctions.obj (.text:_ZNSt6locale5facet7_IncrefEv)
                  008a67c0    00000040     frameworkFunctions.obj (.text:_ZNSt6locale5facetC1Ej)
                  008a6800    00000040     frameworkFunctions.obj (.text:_ZNSt6localeC1ERKS_)
                  008a6840    00000040     frameworkFunctions.obj (.text:_ZNSt6localeD1Ev)
                  008a6880    00000040     lapackFunctions.obj (.text:_ZNSt7complexIfEaSERKf)
                  008a68c0    00000040     dynamicMemory.obj (.text:_ZNSt7num_putIcSt19ostreambuf_iteratorIcSt11char_traitsIcEEE7_GetcatEPPKNSt6locale5facetE)
                  008a6900    00000040     frameworkFunctions.obj (.text:_ZNSt8ios_base5widthEi)
                  008a6940    00000040     dynamicMemory.obj (.text:_ZNSt8numpunctIcE5_TidyEv)
                  008a6980    00000040     dynamicMemory.obj (.text:_ZNSt8numpunctIcE7_GetcatEPPKNSt6locale5facetE)
                  008a69c0    00000040     dynamicMemory.obj (.text:_ZNSt8numpunctIcED1Ev)
                  008a6a00    00000040     frameworkFunctions.obj (.text:_ZNSt9basic_iosIcSt11char_traitsIcEE5clearENSt5_IosbIiE8_IostateEb)
                  008a6a40    00000040     frameworkFunctions.obj (.text:_ZNSt9basic_iosIcSt11char_traitsIcEE8setstateENSt5_IosbIiE8_IostateEb)
                  008a6a80    00000040     pipdScheduling.obj (.text:_ZSt3absIfET_RKSt7complexIS0_E)
                  008a6ac0    00000040     pipdScheduling.obj (.text:_ZSt3absf)
                  008a6b00    00000040     blasFunctions.obj (.text:_ZSt3powff)
                  008a6b40    00000040     pipdScheduling.obj (.text:_ZSt4conjIfESt7complexIT_ERKS2_)
                  008a6b80    00000040     rts6600_elf.lib : throw.obj (.text:_ZSt6_ThrowRKSt9exception)
                  008a6bc0    00000040     lapackFunctions.obj (.text:_ZStdvIfESt7complexIT_ERKS1_RKS2_)
                  008a6c00    00000040     lapackFunctions.obj (.text:_ZStdvIfESt7complexIT_ERKS2_S4_)
                  008a6c40    00000040     lapackFunctions.obj (.text:_ZStmiIfESt7complexIT_ERKS2_S4_)
                  008a6c80    00000040     frameworkFunctions.obj (.text:_ZStmlIfESt7complexIT_ERKS1_RKS2_)
                  008a6cc0    00000040     lapackFunctions.obj (.text:_ZStmlIfESt7complexIT_ERKS2_S4_)
                  008a6d00    00000040     frameworkFunctions.obj (.text:_ZStoRRNSt5_IosbIiE8_IostateES1_)
                  008a6d40    00000040     lapackFunctions.obj (.text:_ZStplIfESt7complexIT_ERKS2_S4_)
                  008a6d80    00000040     rts6600_elf.lib : iostream.obj (.text:_ZTv0_n12_NSiD1Ev)
                  008a6dc0    00000040                     : iostream.obj (.text:_ZTv0_n12_NSoD1Ev)
                  008a6e00    00000040                     : wiostrea.obj (.text:_ZTv0_n12_NSt13basic_istreamIwSt11char_traitsIwEED1Ev)
                  008a6e40    00000040                     : wiostrea.obj (.text:_ZTv0_n12_NSt13basic_ostreamIwSt11char_traitsIwEED1Ev)
                  008a6e80    00000040                     : isinf.obj (.text:__c6xabi_isinf)
                  008a6ec0    00000040                     : _printfi.obj (.text:__c6xabi_isnan)
                  008a6f00    00000040                     : args_main.obj (.text:_args_main)
                  008a6f40    00000040                     : sprintf.obj (.text:_outs)
                  008a6f80    00000040     sysbios.ae66 : c62_TaskSupport_asm.obj (.text:_ti_sysbios_family_c62_TaskSupport_buildTaskStack)
                  008a6fc0    00000040     app_pe66.oe66 (.text:free)
                  008a7000    00000040     rts6600_elf.lib : wchar.obj (.text:mbrtowc)
                  008a7040    00000040                     : multibyte.obj (.text:mbtowc)
                  008a7080    00000040                     : strlen.obj (.text:strlen)
                  008a70c0    00000040     app_pe66.oe66 (.text:ti_sysbios_BIOS_exitFunc__I)
                  008a7100    00000040     app_pe66.oe66 (.text:ti_sysbios_BIOS_rtsLock__I)
                  008a7140    00000040     app_pe66.oe66 (.text:ti_sysbios_BIOS_startFunc__I)
                  008a7180    00000040     app_pe66.oe66 (.text:ti_sysbios_family_c64p_Hwi_Module__startupDone__F)
                  008a71c0    00000040     sysbios.ae66 : BIOS.obj (.text:ti_sysbios_family_c64p_Hwi_disableInterrupt__E)
                  008a7200    00000040                  : BIOS.obj (.text:ti_sysbios_family_c64p_Hwi_enableInterrupt__E)
                  008a7240    00000040     app_pe66.oe66 (.text:ti_sysbios_gates_GateHwi_Handle__label__S)
                  008a7280    00000040     app_pe66.oe66 (.text:ti_sysbios_gates_GateHwi_Object__delete__S)
                  008a72c0    00000040     app_pe66.oe66 (.text:ti_sysbios_gates_GateMutex_Handle__label__S)
                  008a7300    00000040     sysbios.ae66 : BIOS.obj (.text:ti_sysbios_gates_GateMutex_Instance_init__E)
                  008a7340    00000040     app_pe66.oe66 (.text:ti_sysbios_gates_GateMutex_Object__delete__S)
                  008a7380    00000040     sysbios.ae66 : BIOS.obj (.text:ti_sysbios_gates_GateMutex_leave__E)
                  008a73c0    00000040     app_pe66.oe66 (.text:ti_sysbios_heaps_HeapMem_Handle__label__S)
                  008a7400    00000040     app_pe66.oe66 (.text:ti_sysbios_heaps_HeapMem_Object__delete__S)
                  008a7440    00000040     app_pe66.oe66 (.text:ti_sysbios_heaps_HeapMem_Object__get__S)
                  008a7480    00000040     app_pe66.oe66 (.text:ti_sysbios_knl_Queue_Object__destruct__S)
                  008a74c0    00000040     app_pe66.oe66 (.text:ti_sysbios_knl_Semaphore_Object__destruct__S)
                  008a7500    00000040     app_pe66.oe66 (.text:ti_sysbios_knl_Swi_Object__get__S)
                  008a7540    00000040     app_pe66.oe66 (.text:ti_sysbios_knl_Task_Object__get__S)
                  008a7580    00000040     app_pe66.oe66 (.text:ti_sysbios_timers_timer64_Timer_Module__startupDone__F)
                  008a75c0    00000040     rts6600_elf.lib : wchar.obj (.text:wcrtomb)
                  008a7600    00000040     ti.targets.rts6000.ae66 : Error.oe66 (.text:xdc_runtime_Error_check__E)
                  008a7640    00000040                             : Error.oe66 (.text:xdc_runtime_Error_init__E)
                  008a7680    00000040                             : Error.oe66 (.text:xdc_runtime_Error_raiseX__E)
                  008a76c0    00000040                             : Gate.oe66 (.text:xdc_runtime_Gate_leaveSystem__E)
                  008a7700    00000040     app_pe66.oe66 (.text:xdc_runtime_LoggerBuf_Handle__label__S)
                  008a7740    00000040     ti.targets.rts6000.ae66 : LoggerBuf.oe66 (.text:xdc_runtime_LoggerBuf_Instance_finalize__E)
                  008a7780    00000040     app_pe66.oe66 (.text:xdc_runtime_LoggerBuf_Object__delete__S)
                  008a77c0    00000040     app_pe66.oe66 (.text:xdc_runtime_LoggerBuf_Object__get__S)
                  008a7800    00000040     ti.targets.rts6000.ae66 : LoggerBuf.oe66 (.text:xdc_runtime_LoggerBuf_write0__E)
                  008a7840    00000040                             : LoggerBuf.oe66 (.text:xdc_runtime_LoggerBuf_write1__E)
                  008a7880    00000040                             : LoggerBuf.oe66 (.text:xdc_runtime_LoggerBuf_write2__E)
                  008a78c0    00000040                             : Memory.oe66 (.text:xdc_runtime_Memory_free__E)
                  008a7900    00000040                             : Registry.oe66 (.text:xdc_runtime_Registry_findById__E)
                  008a7940    00000040                             : System.oe66 (.text:xdc_runtime_System_abort__E)
                  008a7980    00000040     app_pe66.oe66 (.text:xdc_runtime_System_aprintf__E)
                  008a79c0    00000040     ti.targets.rts6000.ae66 : System.oe66 (.text:xdc_runtime_System_exit__E)
                  008a7a00    00000040     app_pe66.oe66 (.text:xdc_runtime_System_printf__E)
                  008a7a40    00000040     ti.targets.rts6000.ae66 : Text.oe66 (.text:xdc_runtime_Text_ropeText__E)
                  008a7a80    00000020     rts6600_elf.lib : xatexit.obj (.text:_Atexit)
                  008a7aa0    00000020                     : locale0.obj (.text:_Getgloballocale)
                  008a7ac0    00000020                     : newhandler.obj (.text:_Z21__default_new_handlerv)
                  008a7ae0    00000020                     : typeinfo_.obj (.text:_ZN10__cxxabiv117__class_type_infoD0Ev)
                  008a7b00    00000020                     : typeinfo_.obj (.text:_ZN10__cxxabiv117__class_type_infoD1Ev)
                  008a7b20    00000020                     : typeinfo_.obj (.text:_ZN10__cxxabiv120__si_class_type_infoD0Ev)
                  008a7b40    00000020                     : typeinfo_.obj (.text:_ZN10__cxxabiv120__si_class_type_infoD1Ev)
                  008a7b60    00000020                     : typeinfo_.obj (.text:_ZN10__cxxabiv121__vmi_class_type_infoD0Ev)
                  008a7b80    00000020                     : typeinfo_.obj (.text:_ZN10__cxxabiv121__vmi_class_type_infoD1Ev)
                  008a7ba0    00000020     dynamicMemory.obj (.text:_ZNKSaIcE8max_sizeEv)
                  008a7bc0    00000020     frameworkFunctions.obj (.text:_ZNKSo6sentrycvbEv)
                  008a7be0    00000020     dynamicMemory.obj (.text:_ZNKSs4sizeEv)
                  008a7c00    00000020     dynamicMemory.obj (.text:_ZNKSs5c_strEv)
                  008a7c20    00000020     rts6600_elf.lib : string.obj (.text:_ZNKSt11logic_error4whatEv)
                  008a7c40    00000020                     : string.obj (.text:_ZNKSt11logic_error8_DoraiseEv)
                  008a7c60    00000020                     : iostream.obj (.text:_ZNKSt12codecvt_base11do_encodingEv)
                  008a7c80    00000020                     : iostream.obj (.text:_ZNKSt12codecvt_base13do_max_lengthEv)
                  008a7ca0    00000020                     : iostream.obj (.text:_ZNKSt12codecvt_base16do_always_noconvEv)
                  008a7cc0    00000020                     : string.obj (.text:_ZNKSt12length_error8_DoraiseEv)
                  008a7ce0    00000020                     : string.obj (.text:_ZNKSt12out_of_range8_DoraiseEv)
                  008a7d00    00000020     frameworkFunctions.obj (.text:_ZNKSt13_Complex_baseIfSt16_C_float_complexE4imagEv)
                  008a7d20    00000020     frameworkFunctions.obj (.text:_ZNKSt13_Complex_baseIfSt16_C_float_complexE4realEv)
                  008a7d40    00000020     rts6600_elf.lib : ios.obj (.text:_ZNKSt13runtime_error4whatEv)
                  008a7d60    00000020                     : ios.obj (.text:_ZNKSt13runtime_error8_DoraiseEv)
                  008a7d80    00000020     dynamicMemory.obj (.text:_ZNKSt19ostreambuf_iteratorIcSt11char_traitsIcEE6failedEv)
                  008a7da0    00000020     frameworkFunctions.obj (.text:_ZNKSt5ctypeIcE8do_widenEc)
                  008a7dc0    00000020     frameworkFunctions.obj (.text:_ZNKSt5ctypeIcE9do_narrowEcc)
                  008a7de0    00000020     rts6600_elf.lib : wiostrea.obj (.text:_ZNKSt5ctypeIwE2isEsw)
                  008a7e00    00000020                     : wiostrea.obj (.text:_ZNKSt5ctypeIwE5widenEc)
                  008a7e20    00000020                     : wiostrea.obj (.text:_ZNKSt5ctypeIwE6narrowEwc)
                  008a7e40    00000020                     : iostream.obj (.text:_ZNKSt7codecvtIcciE10do_unshiftERiPcS2_RS2_)
                  008a7e60    00000020                     : iostream.obj (.text:_ZNKSt7codecvtIcciE5do_inERiPKcS3_RS3_PcS5_RS5_)
                  008a7e80    00000020                     : iostream.obj (.text:_ZNKSt7codecvtIcciE6do_outERiPKcS3_RS3_PcS5_RS5_)
                  008a7ea0    00000020                     : iostream.obj (.text:_ZNKSt7codecvtIcciE9do_lengthERKiPKcS4_j)
                  008a7ec0    00000020                     : wiostrea.obj (.text:_ZNKSt7codecvtIwciE11do_encodingEv)
                  008a7ee0    00000020                     : wiostrea.obj (.text:_ZNKSt7codecvtIwciE13do_max_lengthEv)
                  008a7f00    00000020                     : wiostrea.obj (.text:_ZNKSt7codecvtIwciE16do_always_noconvEv)
                  008a7f20    00000020     dynamicMemory.obj (.text:_ZNKSt8_Locinfo8_GettrueEv)
                  008a7f40    00000020     dynamicMemory.obj (.text:_ZNKSt8_Locinfo9_GetfalseEv)
                  008a7f60    00000020     dynamicMemory.obj (.text:_ZNKSt8_Locinfo9_GetlconvEv)
                  008a7f80    00000020     frameworkFunctions.obj (.text:_ZNKSt8ios_base4failEv)
                  008a7fa0    00000020     frameworkFunctions.obj (.text:_ZNKSt8ios_base4goodEv)
                  008a7fc0    00000020     frameworkFunctions.obj (.text:_ZNKSt8ios_base5flagsEv)
                  008a7fe0    00000020     frameworkFunctions.obj (.text:_ZNKSt8ios_base5widthEv)
                  008a8000    00000020     frameworkFunctions.obj (.text:_ZNKSt8ios_base6getlocEv)
                  008a8020    00000020     rts6600_elf.lib : ios.obj (.text:_ZNKSt8ios_base7failure8_DoraiseEv)
                  008a8040    00000020     frameworkFunctions.obj (.text:_ZNKSt8ios_base7rdstateEv)
                  008a8060    00000020     dynamicMemory.obj (.text:_ZNKSt8ios_base9precisionEv)
                  008a8080    00000020     dynamicMemory.obj (.text:_ZNKSt8numpunctIcE11do_groupingEv)
                  008a80a0    00000020     dynamicMemory.obj (.text:_ZNKSt8numpunctIcE11do_truenameEv)
                  008a80c0    00000020     dynamicMemory.obj (.text:_ZNKSt8numpunctIcE12do_falsenameEv)
                  008a80e0    00000020     dynamicMemory.obj (.text:_ZNKSt8numpunctIcE13decimal_pointEv)
                  008a8100    00000020     dynamicMemory.obj (.text:_ZNKSt8numpunctIcE13thousands_sepEv)
                  008a8120    00000020     dynamicMemory.obj (.text:_ZNKSt8numpunctIcE16do_decimal_pointEv)
                  008a8140    00000020     dynamicMemory.obj (.text:_ZNKSt8numpunctIcE16do_thousands_sepEv)
                  008a8160    00000020     frameworkFunctions.obj (.text:_ZNKSt9basic_iosIcSt11char_traitsIcEE3tieEv)
                  008a8180    00000020     frameworkFunctions.obj (.text:_ZNKSt9basic_iosIcSt11char_traitsIcEE4fillEv)
                  008a81a0    00000020     frameworkFunctions.obj (.text:_ZNKSt9basic_iosIcSt11char_traitsIcEE5rdbufEv)
                  008a81c0    00000020     rts6600_elf.lib : ios.obj (.text:_ZNKSt9exception4whatEv)
                  008a81e0    00000020                     : ios.obj (.text:_ZNKSt9exception8_DoraiseEv)
                  008a8200    00000020     dynamicMemory.obj (.text:_ZNSaIcE10deallocateEPcj)
                  008a8220    00000020     dynamicMemory.obj (.text:_ZNSaIcE8allocateEj)
                  008a8240    00000020     dynamicMemory.obj (.text:_ZNSaIcEC1ERKS_)
                  008a8260    00000020     dynamicMemory.obj (.text:_ZNSaIcEC1Ev)
                  008a8280    00000020     frameworkFunctions.obj (.text:_ZNSo12_Sentry_baseC2ERSo)
                  008a82a0    00000020     frameworkFunctions.obj (.text:_ZNSo12_Sentry_baseD2Ev)
                  008a82c0    00000020     frameworkFunctions.obj (.text:_ZNSo6sentryD1Ev)
                  008a82e0    00000020     frameworkFunctions.obj (.text:_ZNSolsEPFRSoS_E)
                  008a8300    00000020     dynamicMemory.obj (.text:_ZNSsD1Ev)
                  008a8320    00000020     dynamicMemory.obj (.text:_ZNSsixEj)
                  008a8340    00000020     frameworkFunctions.obj (.text:_ZNSt10ctype_baseC2Ej)
                  008a8360    00000020     frameworkFunctions.obj (.text:_ZNSt10ctype_baseD0Ev)
                  008a8380    00000020     frameworkFunctions.obj (.text:_ZNSt10ctype_baseD1Ev)
                  008a83a0    00000020     frameworkFunctions.obj (.text:_ZNSt10ctype_baseD2Ev)
                  008a83c0    00000020     dynamicMemory.obj (.text:_ZNSt11_String_valIcSaIcEEC1ES0_)
                  008a83e0    00000020     dynamicMemory.obj (.text:_ZNSt11_String_valIcSaIcEEC2ES0_)
                  008a8400    00000020     frameworkFunctions.obj (.text:_ZNSt11char_traitsIcE11eq_int_typeERKiS2_)
                  008a8420    00000020     frameworkFunctions.obj (.text:_ZNSt11char_traitsIcE11to_int_typeERKc)
                  008a8440    00000020     frameworkFunctions.obj (.text:_ZNSt11char_traitsIcE3eofEv)
                  008a8460    00000020     dynamicMemory.obj (.text:_ZNSt11char_traitsIcE4copyEPcPKcj)
                  008a8480    00000020     dynamicMemory.obj (.text:_ZNSt11char_traitsIcE4moveEPcPKcj)
                  008a84a0    00000020     dynamicMemory.obj (.text:_ZNSt11char_traitsIcE6assignERcRKc)
                  008a84c0    00000020     frameworkFunctions.obj (.text:_ZNSt11char_traitsIcE6lengthEPKc)
                  008a84e0    00000020     rts6600_elf.lib : iostream.obj (.text:_ZNSt12codecvt_baseD0Ev)
                  008a8500    00000020                     : iostream.obj (.text:_ZNSt12codecvt_baseD1Ev)
                  008a8520    00000020     pipdScheduling.obj (.text:_ZNSt13_Complex_baseIfSt16_C_float_complexE4imagERKf)
                  008a8540    00000020     pipdScheduling.obj (.text:_ZNSt13_Complex_baseIfSt16_C_float_complexE4realERKf)
                  008a8560    00000020     frameworkFunctions.obj (.text:_ZNSt13_Complex_baseIfSt16_C_float_complexEC2ERKfS3_)
                  008a8580    00000020     rts6600_elf.lib : iostream.obj (.text:_ZNSt15basic_streambufIcSt11char_traitsIcEE4syncEv)
                  008a85a0    00000020                     : iostream.obj (.text:_ZNSt15basic_streambufIcSt11char_traitsIcEE5_LockEv)
                  008a85c0    00000020                     : iostream.obj (.text:_ZNSt15basic_streambufIcSt11char_traitsIcEE5imbueERKSt6locale)
                  008a85e0    00000020     frameworkFunctions.obj (.text:_ZNSt15basic_streambufIcSt11char_traitsIcEE6_PnincEv)
                  008a8600    00000020     rts6600_elf.lib : iostream.obj (.text:_ZNSt15basic_streambufIcSt11char_traitsIcEE6setbufEPci)
                  008a8620    00000020                     : iostream.obj (.text:_ZNSt15basic_streambufIcSt11char_traitsIcEE7_UnlockEv)
                  008a8640    00000020     frameworkFunctions.obj (.text:_ZNSt15basic_streambufIcSt11char_traitsIcEE7pubsyncEv)
                  008a8660    00000020     rts6600_elf.lib : iostream.obj (.text:_ZNSt15basic_streambufIcSt11char_traitsIcEE8overflowEi)
                  008a8680    00000020                     : iostream.obj (.text:_ZNSt15basic_streambufIcSt11char_traitsIcEE9pbackfailEi)
                  008a86a0    00000020                     : iostream.obj (.text:_ZNSt15basic_streambufIcSt11char_traitsIcEE9showmanycEv)
                  008a86c0    00000020                     : iostream.obj (.text:_ZNSt15basic_streambufIcSt11char_traitsIcEE9underflowEv)
                  008a86e0    00000020                     : wiostrea.obj (.text:_ZNSt15basic_streambufIwSt11char_traitsIwEE4syncEv)
                  008a8700    00000020                     : wiostrea.obj (.text:_ZNSt15basic_streambufIwSt11char_traitsIwEE5_LockEv)
                  008a8720    00000020                     : wiostrea.obj (.text:_ZNSt15basic_streambufIwSt11char_traitsIwEE5imbueERKSt6locale)
                  008a8740    00000020                     : wiostrea.obj (.text:_ZNSt15basic_streambufIwSt11char_traitsIwEE6setbufEPwi)
                  008a8760    00000020                     : wiostrea.obj (.text:_ZNSt15basic_streambufIwSt11char_traitsIwEE7_UnlockEv)
                  008a8780    00000020                     : wiostrea.obj (.text:_ZNSt15basic_streambufIwSt11char_traitsIwEE8overflowEj)
                  008a87a0    00000020                     : wiostrea.obj (.text:_ZNSt15basic_streambufIwSt11char_traitsIwEE9pbackfailEj)
                  008a87c0    00000020                     : wiostrea.obj (.text:_ZNSt15basic_streambufIwSt11char_traitsIwEE9showmanycEv)
                  008a87e0    00000020                     : wiostrea.obj (.text:_ZNSt15basic_streambufIwSt11char_traitsIwEE9underflowEv)
                  008a8800    00000020     dynamicMemory.obj (.text:_ZNSt19ostreambuf_iteratorIcSt11char_traitsIcEEdeEv)
                  008a8820    00000020     dynamicMemory.obj (.text:_ZNSt19ostreambuf_iteratorIcSt11char_traitsIcEEppEv)
                  008a8840    00000020     frameworkFunctions.obj (.text:_ZNSt5ctypeIcE5_InitERKSt8_Locinfo)
                  008a8860    00000020     frameworkFunctions.obj (.text:_ZNSt5ctypeIcED0Ev)
                  008a8880    00000020     dynamicMemory.obj (.text:_ZNSt6locale2idC1Ej)
                  008a88a0    00000020     frameworkFunctions.obj (.text:_ZNSt6locale5facetC2Ej)
                  008a88c0    00000020     frameworkFunctions.obj (.text:_ZNSt6locale5facetD0Ev)
                  008a88e0    00000020     frameworkFunctions.obj (.text:_ZNSt6locale5facetD1Ev)
                  008a8900    00000020     frameworkFunctions.obj (.text:_ZNSt6locale5facetD2Ev)
                  008a8920    00000020     frameworkFunctions.obj (.text:_ZNSt7_LockitC1Ei)
                  008a8940    00000020     frameworkFunctions.obj (.text:_ZNSt7_LockitD1Ev)
                  008a8960    00000020     rts6600_elf.lib : iostream.obj (.text:_ZNSt7codecvtIcciED0Ev)
                  008a8980    00000020                     : iostream.obj (.text:_ZNSt7codecvtIcciED1Ev)
                  008a89a0    00000020                     : wiostrea.obj (.text:_ZNSt7codecvtIwciED0Ev)
                  008a89c0    00000020                     : wiostrea.obj (.text:_ZNSt7codecvtIwciED1Ev)
                  008a89e0    00000020     frameworkFunctions.obj (.text:_ZNSt7complexIfEC1ERKfS2_)
                  008a8a00    00000020     lapackFunctions.obj (.text:_ZNSt7complexIfEdVIfEERS0_RKS_IT_E)
                  008a8a20    00000020     lapackFunctions.obj (.text:_ZNSt7complexIfEmIIfEERS0_RKS_IT_E)
                  008a8a40    00000020     frameworkFunctions.obj (.text:_ZNSt7complexIfEmLIfEERS0_RKS_IT_E)
                  008a8a60    00000020     lapackFunctions.obj (.text:_ZNSt7complexIfEpLIfEERS0_RKS_IT_E)
                  008a8a80    00000020     dynamicMemory.obj (.text:_ZNSt7num_putIcSt19ostreambuf_iteratorIcSt11char_traitsIcEEE5_InitERKSt8_Locinfo)
                  008a8aa0    00000020     dynamicMemory.obj (.text:_ZNSt7num_putIcSt19ostreambuf_iteratorIcSt11char_traitsIcEEED0Ev)
                  008a8ac0    00000020     dynamicMemory.obj (.text:_ZNSt7num_putIcSt19ostreambuf_iteratorIcSt11char_traitsIcEEED1Ev)
                  008a8ae0    00000020     pipdScheduling.obj (.text:_ZNSt8_CtraitsIfE4sqrtEf)
                  008a8b00    00000020     pipdScheduling.obj (.text:_ZNSt8_CtraitsIfE5_InfvEf)
                  008a8b20    00000020     lapackFunctions.obj (.text:_ZNSt8_CtraitsIfE5_NanvEf)
                  008a8b40    00000020     pipdScheduling.obj (.text:_ZNSt8_CtraitsIfE5ldexpEfi)
                  008a8b60    00000020     pipdScheduling.obj (.text:_ZNSt8_CtraitsIfE6_IsinfEf)
                  008a8b80    00000020     pipdScheduling.obj (.text:_ZNSt8_CtraitsIfE6_IsnanEf)
                  008a8ba0    00000020     dynamicMemory.obj (.text:_ZNSt8numpunctIcED0Ev)
                  008a8bc0    00000020     rts6600_elf.lib : iostream.obj (.text:_ZNSt9basic_iosIcSt11char_traitsIcEED1Ev)
                  008a8be0    00000020                     : wiostrea.obj (.text:_ZNSt9basic_iosIwSt11char_traitsIwEED1Ev)
                  008a8c00    00000020                     : ios.obj (.text:_ZNSt9exceptionD0Ev)
                  008a8c20    00000020                     : ios.obj (.text:_ZNSt9exceptionD1Ev)
                  008a8c40    00000020     dynamicMemory.obj (.text:_ZSt10_MaklocchrIcET_cPS0_RKSt7_Cvtvec)
                  008a8c60    00000020     rts6600_elf.lib : locale0.obj (.text:_ZSt11tidy_globalv)
                  008a8c80    00000020     displayFunctions.obj (.text:_ZSt4imagIfET_RKSt7complexIS0_E)
                  008a8ca0    00000020     displayFunctions.obj (.text:_ZSt4realIfET_RKSt7complexIS0_E)
                  008a8cc0    00000020     lapackFunctions.obj (.text:_ZSt4sqrtf)
                  008a8ce0    00000020     frameworkFunctions.obj (.text:_ZSt8_ToloweriPKSt9_Ctypevec)
                  008a8d00    00000020     frameworkFunctions.obj (.text:_ZSt8_ToupperiPKSt9_Ctypevec)
                  008a8d20    00000020     dynamicMemory.obj (.text:_ZSt9_AllocateIcEPT_jS1_)
                  008a8d40    00000020     frameworkFunctions.obj (.text:_ZStanNSt5_IosbIiE9_FmtflagsES1_)
                  008a8d60    00000020     rts6600_elf.lib : delete.obj (.text:_ZdlPv)
                  008a8d80    00000020                     : placenew.obj (.text:_ZnwjPv)
                  008a8da0    00000020                     : errno.obj (.text:__c6xabi_errno_addr)
                  008a8dc0    00000020                     : truncf.obj (.text:__c6xabi_truncf)
                  008a8de0    00000020                     : dtor_list.obj (.text:__cxa_atexit)
                  008a8e00    00000020                     : guard.obj (.text:__cxa_guard_acquire)
                  008a8e20    00000020                     : guard.obj (.text:__cxa_guard_release)
                  008a8e40    00000020                     : dtor_list.obj (.text:__cxa_ia64_exit)
                  008a8e60    00000020                     : memzero.obj (.text:__memzero)
                  008a8e80    00000020     ti.targets.rts6000.ae66 : xdc_noinit.oe66 (.text:__xdc__init)
                  008a8ea0    00000020     rts6600_elf.lib : _lock.obj (.text:_nop)
                  008a8ec0    00000020                     : printf.obj (.text:_outc)
                  008a8ee0    00000020                     : sprintf.obj (.text:_outc)
                  008a8f00    00000020                     : printf.obj (.text:_outs)
                  008a8f20    00000020                     : _lock.obj (.text:_register_lock)
                  008a8f40    00000020                     : _lock.obj (.text:_register_unlock)
                  008a8f60    00000020     sysbios.ae66 : c62_TaskSupport_asm.obj (.text:_ti_sysbios_family_c62_TaskSupport_glue)
                  008a8f80    00000020     rts6600_elf.lib : exit.obj (.text:abort)
                  008a8fa0    00000020                     : dtor_list.obj (.text:atexit)
                  008a8fc0    00000020                     : copy_decompress_none.obj (.text:decompress:none:__TI_decompress_none)
                  008a8fe0    00000020                     : copy_decompress_rle.obj (.text:decompress:rle24:__TI_decompress_rle24)
                  008a9000    00000020                     : wchar.obj (.text:fgetwc)
                  008a9020    00000020                     : wchar.obj (.text:fputwc)
                  008a9040    00000020                     : fsetpos.obj (.text:fsetpos)
                  008a9060    00000020                     : setlocale.obj (.text:localeconv)
                  008a9080    00000020     app_pe66.oe66 (.text:ti_sysbios_BIOS_RtsGateProxy_enter__E)
                  008a90a0    00000020     app_pe66.oe66 (.text:ti_sysbios_BIOS_RtsGateProxy_leave__E)
                  008a90c0    00000020     app_pe66.oe66 (.text:ti_sysbios_BIOS_nullFunc__I)
                  008a90e0    00000020     sysbios.ae66 : BIOS.obj (.text:ti_sysbios_BIOS_setThreadType__E)
                  008a9100    00000020                  : BIOS.obj (.text:ti_sysbios_BIOS_start__E)
                  008a9120    00000020     app_pe66.oe66 (.text:ti_sysbios_family_c62_TaskSupport_Module__startupDone__S)
                  008a9140    00000020     sysbios.ae66 : BIOS.obj (.text:ti_sysbios_family_c62_TaskSupport_checkStack__E)
                  008a9160    00000020                  : BIOS.obj (.text:ti_sysbios_family_c64p_Hwi_clearInterrupt__E)
                  008a9180    00000020                  : BIOS.obj (.text:ti_sysbios_family_c64p_Hwi_startup__E)
                  008a91a0    00000020                  : BIOS.obj (.text:ti_sysbios_family_c64p_Hwi_switchFromBootStack__E)
                  008a91c0    00000020                  : BIOS.obj (.text:ti_sysbios_family_c64p_TimestampProvider_Module_startup__E)
                  008a91e0    00000020                  : BIOS.obj (.text:ti_sysbios_family_c64p_TimestampProvider_get64__E)
                  008a9200    00000020                  : BIOS.obj (.text:ti_sysbios_family_c64p_tci6488_TimerSupport_enable__E)
                  008a9220    00000020                  : BIOS.obj (.text:ti_sysbios_gates_GateHwi_Instance_init__E)
                  008a9240    00000020                  : BIOS.obj (.text:ti_sysbios_gates_GateHwi_enter__E)
                  008a9260    00000020                  : BIOS.obj (.text:ti_sysbios_gates_GateHwi_leave__E)
                  008a9280    00000020                  : BIOS.obj (.text:ti_sysbios_gates_GateHwi_query__E)
                  008a92a0    00000020                  : BIOS.obj (.text:ti_sysbios_gates_GateMutex_Instance_finalize__E)
                  008a92c0    00000020                  : BIOS.obj (.text:ti_sysbios_gates_GateMutex_query__E)
                  008a92e0    00000020     app_pe66.oe66 (.text:ti_sysbios_hal_Hwi_HwiProxy_Module__startupDone__S)
                  008a9300    00000020     sysbios.ae66 : BIOS.obj (.text:ti_sysbios_hal_Hwi_Module_startup__E)
                  008a9320    00000020     app_pe66.oe66 (.text:ti_sysbios_heaps_HeapMem_Module_GateProxy_enter__E)
                  008a9340    00000020     app_pe66.oe66 (.text:ti_sysbios_heaps_HeapMem_Module_GateProxy_leave__E)
                  008a9360    00000020     sysbios.ae66 : BIOS.obj (.text:ti_sysbios_heaps_HeapMem_isBlocking__E)
                  008a9380    00000020     app_pe66.oe66 (.text:ti_sysbios_knl_Clock_TimerProxy_Module__startupDone__S)
                  008a93a0    00000020     app_pe66.oe66 (.text:ti_sysbios_knl_Clock_TimerProxy_getMaxTicks__E)
                  008a93c0    00000020     sysbios.ae66 : BIOS.obj (.text:ti_sysbios_knl_Clock_getTicks__E)
                  008a93e0    00000020                  : BIOS.obj (.text:ti_sysbios_knl_Idle_loop__E)
                  008a9400    00000020                  : BIOS.obj (.text:ti_sysbios_knl_Queue_Instance_init__E)
                  008a9420    00000020     app_pe66.oe66 (.text:ti_sysbios_knl_Queue_Object__get__S)
                  008a9440    00000020     app_pe66.oe66 (.text:ti_sysbios_knl_Queue_destruct)
                  008a9460    00000020     sysbios.ae66 : BIOS.obj (.text:ti_sysbios_knl_Queue_empty__E)
                  008a9480    00000020                  : BIOS.obj (.text:ti_sysbios_knl_Semaphore_Instance_finalize__E)
                  008a94a0    00000020     app_pe66.oe66 (.text:ti_sysbios_knl_Semaphore_destruct)
                  008a94c0    00000020     sysbios.ae66 : BIOS.obj (.text:ti_sysbios_knl_Swi_disable__E)
                  008a94e0    00000020     app_pe66.oe66 (.text:ti_sysbios_knl_Task_SupportProxy_Module__startupDone__S)
                  008a9500    00000020     sysbios.ae66 : BIOS.obj (.text:ti_sysbios_knl_Task_disable__E)
                  008a9520    00000020                  : BIOS.obj (.text:ti_sysbios_knl_Task_startup__E)
                  008a9540    00000020                  : BIOS.obj (.text:ti_sysbios_timers_timer64_Timer_getMaxTicks__E)
                  008a9560    00000020     rts6600_elf.lib : tolower.obj (.text:tolower)
                  008a9580    00000020                     : toupper.obj (.text:toupper)
                  008a95a0    00000020                     : multibyte.obj (.text:wctomb)
                  008a95c0    00000020     ti.targets.rts6000.ae66 : Gate.oe66 (.text:xdc_runtime_Gate_enterSystem__E)
                  008a95e0    00000020     app_pe66.oe66 (.text:xdc_runtime_IHeap_alloc)
                  008a9600    00000020     app_pe66.oe66 (.text:xdc_runtime_IHeap_free)
                  008a9620    00000020     app_pe66.oe66 (.text:xdc_runtime_LoggerBuf_Module_GateProxy_enter__E)
                  008a9640    00000020     app_pe66.oe66 (.text:xdc_runtime_LoggerBuf_Module_GateProxy_leave__E)
                  008a9660    00000020     ti.targets.rts6000.ae66 : LoggerBuf.oe66 (.text:xdc_runtime_LoggerBuf_disable__E)
                  008a9680    00000020                             : LoggerBuf.oe66 (.text:xdc_runtime_LoggerBuf_enable__E)
                  008a96a0    00000020     app_pe66.oe66 (.text:xdc_runtime_Memory_HeapProxy_alloc__E)
                  008a96c0    00000020     app_pe66.oe66 (.text:xdc_runtime_Memory_HeapProxy_free__E)
                  008a96e0    00000020     app_pe66.oe66 (.text:xdc_runtime_Startup_exec__I)
                  008a9700    00000020     app_pe66.oe66 (.text:xdc_runtime_Startup_reset__I)
                  008a9720    00000020     ti.targets.rts6000.ae66 : SysMin.oe66 (.text:xdc_runtime_SysMin_ready__E)
                  008a9740    00000020     app_pe66.oe66 (.text:xdc_runtime_System_Module_GateProxy_enter__E)
                  008a9760    00000020     app_pe66.oe66 (.text:xdc_runtime_System_Module_GateProxy_leave__E)
                  008a9780    00000020     ti.targets.rts6000.ae66 : System.oe66 (.text:xdc_runtime_System_Module_startup__E)
                  008a97a0    00000020                             : System.oe66 (.text:xdc_runtime_System_vsnprintf__E)
                  008a97c0    00000020     app_pe66.oe66 (.text:xdc_runtime_Text_visitRope__I)

.const.2   0    008a97e0    0000378a     
                  008a97e0    00001626     app_pe66.oe66 (.const:xdc_runtime_Text_charTab__A)
                  008aae06    00000002     app_pe66.oe66 (.const:ti_sysbios_family_c64p_Exception_Module__id__C)
                  008aae08    00000518     sysbios.ae66 : BIOS.obj (.const:.string)
                  008ab320    00000400     app_pe66.oe66 (.const:ti_sysbios_family_c66_Cache_marvalues__C)
                  008ab720    0000024c     dynamicMemory.obj (.const:.string)
                  008ab96c    00000004     rts6600_elf.lib : iostream.obj (.const:.string)
                  008ab970    00000202                     : xlocinfo.obj (.const:_ZSt8_Ctyptab)
                  008abb72    00000002     app_pe66.oe66 (.const:ti_sysbios_family_c64p_Exception_useInternalBuffer__C)
                  008abb74    0000016c     displayFunctions.obj (.const:.string)
                  008abce0    00000101     rts6600_elf.lib : ctype.obj (.const:.string:_ctypes_)
                  008abde1    00000001     app_pe66.oe66 (.const:ti_sysbios_timers_timer64_Timer_localTimerBaseId__C)
                  008abde2    00000002     app_pe66.oe66 (.const:ti_sysbios_family_c64p_Hwi_Module__id__C)
                  008abde4    00000004     rts6600_elf.lib : locale0.obj (.const:.string)
                  008abde8    000000c4     app_pe66.oe66 (.const:xdc_runtime_Text_nodeTab__A)
                  008abeac    00000064     lteSystem.obj (.const:.string)
                  008abf10    00000058     ti.targets.rts6000.ae66 : Error.oe66 (.const:.string)
                  008abf68    00000048     app_pe66.oe66 (.const:.string)
                  008abfb0    00000048     rts6600_elf.lib : ios.obj (.const:.string)
                  008abff8    00000048                     : iostream.obj (.const:_ZTVSt13basic_filebufIcSt11char_traitsIcEE)
                  008ac040    00000048                     : wiostrea.obj (.const:_ZTVSt13basic_filebufIwSt11char_traitsIwEE)
                  008ac088    00000048                     : iostream.obj (.const:_ZTVSt15basic_streambufIcSt11char_traitsIcEE)
                  008ac0d0    00000048                     : wiostrea.obj (.const:_ZTVSt15basic_streambufIwSt11char_traitsIwEE)
                  008ac118    00000040     ti.targets.rts6000.ae66 : Text.oe66 (.const:.string)
                  008ac158    00000040     rts6600_elf.lib : wiostrea.obj (.const:_ZTVSt5ctypeIwE)
                  008ac198    0000003c     app_pe66.oe66 (.const:xdc_runtime_LoggerBuf_Module__FXNS__C)
                  008ac1d4    00000004     rts6600_elf.lib : wiostrea.obj (.const:.string)
                  008ac1d8    0000003a     dynamicMemory.obj (.const:.typeinfo:_ZTSSt7num_putIcSt19ostreambuf_iteratorIcSt11char_traitsIcEEE)
                  008ac212    00000002     app_pe66.oe66 (.const:ti_sysbios_family_c64p_Hwi_Module__loggerDefined__C)
                  008ac214    00000030     rts6600_elf.lib : string.obj (.const:.string)
                  008ac244    00000030     sysMainLTE.obj (.const:.string)
                  008ac274    00000004     ti.targets.rts6000.ae66 : Assert.oe66 (.const:.string)
                  008ac278    00000030     rts6600_elf.lib : iostream.obj (.const:_ZTVSi)
                  008ac2a8    00000030                     : iostream.obj (.const:_ZTVSo)
                  008ac2d8    00000030                     : wiostrea.obj (.const:_ZTVSt13basic_istreamIwSt11char_traitsIwEE)
                  008ac308    00000030                     : wiostrea.obj (.const:_ZTVSt13basic_ostreamIwSt11char_traitsIwEE)
                  008ac338    00000030     frameworkFunctions.obj (.const:_ZTVSt5ctypeIcE)
                  008ac368    00000030     dynamicMemory.obj (.const:_ZTVSt7num_putIcSt19ostreambuf_iteratorIcSt11char_traitsIcEEE)
                  008ac398    00000030     app_pe66.oe66 (.const:xdc_runtime_Startup_sfxnTab__A)
                  008ac3c8    0000002c     ti.targets.rts6000.ae66 : Startup.oe66 (.const:.string)
                  008ac3f4    00000004     dynamicMemory.obj (.const:_ZNSs4nposE)
                  008ac3f8    0000002c     rts6600_elf.lib : iostream.obj (.const:_ZTVSt7codecvtIcciE)
                  008ac424    00000004                     : ios.obj (.const)
                  008ac428    0000002c                     : wiostrea.obj (.const:_ZTVSt7codecvtIwciE)
                  008ac454    00000004     app_pe66.oe66 (.const:ti_sysbios_family_c64p_Exception_E_exceptionMax__C)
                  008ac458    00000029     rts6600_elf.lib : iostream.obj (.const:.typeinfo:_ZTSSt15basic_streambufIcSt11char_traitsIcEE)
                  008ac481    00000001     --HOLE-- [fill = 0]
                  008ac482    00000002     app_pe66.oe66 (.const:ti_sysbios_gates_GateMutex_Module__id__C)
                  008ac484    00000004     app_pe66.oe66 (.const:ti_sysbios_family_c64p_Exception_exceptionHook__C)
                  008ac488    00000029     rts6600_elf.lib : wiostrea.obj (.const:.typeinfo:_ZTSSt15basic_streambufIwSt11char_traitsIwEE)
                  008ac4b1    00000001     --HOLE-- [fill = 0]
                  008ac4b2    00000002     app_pe66.oe66 (.const:ti_sysbios_hal_Hwi_Module__id__C)
                  008ac4b4    00000028     app_pe66.oe66 (.const:ti_sysbios_heaps_HeapMem_Module__FXNS__C)
                  008ac4dc    00000028     app_pe66.oe66 (.const:xdc_runtime_LoggerBuf_Object__PARAMS__C)
                  008ac504    00000004     app_pe66.oe66 (.const:ti_sysbios_family_c64p_Exception_externalHook__C)
                  008ac508    00000027     rts6600_elf.lib : iostream.obj (.const:.typeinfo:_ZTSSt13basic_filebufIcSt11char_traitsIcEE)
                  008ac52f    00000001     --HOLE-- [fill = 0]
                  008ac530    00000027                     : wiostrea.obj (.const:.typeinfo:_ZTSSt13basic_filebufIwSt11char_traitsIwEE)
                  008ac557    00000001     --HOLE-- [fill = 0]
                  008ac558    00000027                     : wiostrea.obj (.const:.typeinfo:_ZTSSt13basic_istreamIwSt11char_traitsIwEE)
                  008ac57f    00000001     --HOLE-- [fill = 0]
                  008ac580    00000027                     : wiostrea.obj (.const:.typeinfo:_ZTSSt13basic_ostreamIwSt11char_traitsIwEE)
                  008ac5a7    00000001     --HOLE-- [fill = 0]
                  008ac5a8    00000026                     : typeinfo_.obj (.const:.typeinfo:_ZTSN10__cxxabiv121__vmi_class_type_infoE)
                  008ac5ce    00000002     app_pe66.oe66 (.const:ti_sysbios_heaps_HeapMem_Module__id__C)
                  008ac5d0    00000025     rts6600_elf.lib : typeinfo_.obj (.const:.typeinfo:_ZTSN10__cxxabiv120__si_class_type_infoE)
                  008ac5f5    00000001     --HOLE-- [fill = 0]
                  008ac5f6    00000002     app_pe66.oe66 (.const:ti_sysbios_knl_Clock_Module__id__C)
                  008ac5f8    00000024     rts6600_elf.lib : _printfi.obj (.const:.string)
                  008ac61c    00000004     app_pe66.oe66 (.const:ti_sysbios_family_c64p_Exception_internalHook__C)
                  008ac620    00000024     dynamicMemory.obj (.const:_ZTVSt8numpunctIcE)
                  008ac644    00000024     app_pe66.oe66 (.const:ti_sysbios_gates_GateHwi_Module__FXNS__C)
                  008ac668    00000024     app_pe66.oe66 (.const:ti_sysbios_gates_GateMutex_Module__FXNS__C)
                  008ac68c    00000024     app_pe66.oe66 (.const:ti_sysbios_heaps_HeapMem_Object__PARAMS__C)
                  008ac6b0    00000024     app_pe66.oe66 (.const:ti_sysbios_knl_Semaphore_Object__PARAMS__C)
                  008ac6d4    00000004     app_pe66.oe66 (.const:ti_sysbios_family_c64p_Exception_nmiHook__C)
                  008ac6d8    00000022     rts6600_elf.lib : typeinfo_.obj (.const:.typeinfo:_ZTSN10__cxxabiv117__class_type_infoE)
                  008ac6fa    00000002     app_pe66.oe66 (.const:ti_sysbios_knl_Clock_Module__loggerDefined__C)
                  008ac6fc    00000004     app_pe66.oe66 (.const:ti_sysbios_family_c64p_Hwi_LD_end__C)
                  008ac700    00000022     rts6600_elf.lib : iostream.obj (.const:.typeinfo:_ZTSSt9basic_iosIcSt11char_traitsIcEE)
                  008ac722    00000002     app_pe66.oe66 (.const:ti_sysbios_knl_Semaphore_Module__id__C)
                  008ac724    00000004     app_pe66.oe66 (.const:ti_sysbios_family_c64p_Hwi_LM_begin__C)
                  008ac728    00000022     rts6600_elf.lib : wiostrea.obj (.const:.typeinfo:_ZTSSt9basic_iosIwSt11char_traitsIwEE)
                  008ac74a    00000002     app_pe66.oe66 (.const:ti_sysbios_knl_Semaphore_Module__loggerDefined__C)
                  008ac74c    00000020     schedulingAlgorithms.obj (.const:.string)
                  008ac76c    00000020     app_pe66.oe66 (.const:ti_sysbios_gates_GateHwi_Object__DESC__C)
                  008ac78c    00000020     app_pe66.oe66 (.const:ti_sysbios_gates_GateMutex_Object__DESC__C)
                  008ac7ac    00000020     app_pe66.oe66 (.const:ti_sysbios_heaps_HeapMem_Object__DESC__C)
                  008ac7cc    00000020     app_pe66.oe66 (.const:ti_sysbios_knl_Queue_Object__DESC__C)
                  008ac7ec    00000020     app_pe66.oe66 (.const:ti_sysbios_knl_Semaphore_Object__DESC__C)
                  008ac80c    00000020     app_pe66.oe66 (.const:xdc_runtime_LoggerBuf_Object__DESC__C)
                  008ac82c    00000004     app_pe66.oe66 (.const:ti_sysbios_family_c64p_Hwi_Module__diagsEnabled__C)
                  008ac830    0000001c     rts6600_elf.lib : iostream.obj (.const:_ZTVSt12codecvt_base)
                  008ac84c    00000018                     : throw.obj (.const:.string)
                  008ac864    00000018                     : iostream.obj (.const:.typeinfo:_ZTISi)
                  008ac87c    00000018                     : iostream.obj (.const:.typeinfo:_ZTISo)
                  008ac894    00000018                     : wiostrea.obj (.const:.typeinfo:_ZTISt13basic_istreamIwSt11char_traitsIwEE)
                  008ac8ac    00000018                     : wiostrea.obj (.const:.typeinfo:_ZTISt13basic_ostreamIwSt11char_traitsIwEE)
                  008ac8c4    00000004     app_pe66.oe66 (.const:ti_sysbios_family_c64p_Hwi_Module__diagsIncluded__C)
                  008ac8c8    00000018     rts6600_elf.lib : ios.obj (.const:_ZTVNSt8ios_base7failureE)
                  008ac8e0    00000018                     : string.obj (.const:_ZTVSt11logic_error)
                  008ac8f8    00000018                     : string.obj (.const:_ZTVSt12length_error)
                  008ac910    00000018                     : string.obj (.const:_ZTVSt12out_of_range)
                  008ac928    00000018                     : ios.obj (.const:_ZTVSt13runtime_error)
                  008ac940    00000018                     : ios.obj (.const:_ZTVSt9exception)
                  008ac958    00000018     app_pe66.oe66 (.const:ti_sysbios_gates_GateHwi_Object__PARAMS__C)
                  008ac970    00000018     app_pe66.oe66 (.const:ti_sysbios_gates_GateMutex_Object__PARAMS__C)
                  008ac988    00000018     app_pe66.oe66 (.const:ti_sysbios_knl_Queue_Object__PARAMS__C)
                  008ac9a0    00000018     app_pe66.oe66 (.const:xdc_runtime_Startup_sfxnRts__A)
                  008ac9b8    00000016     rts6600_elf.lib : ios.obj (.const:.typeinfo:_ZTSNSt8ios_base7failureE)
                  008ac9ce    00000002     app_pe66.oe66 (.const:ti_sysbios_knl_Swi_Module__id__C)
                  008ac9d0    00000014     blasFunctions.obj (.const:.string)
                  008ac9e4    00000004     app_pe66.oe66 (.const:ti_sysbios_family_c64p_Hwi_Module__diagsMask__C)
                  008ac9e8    00000014     rts6600_elf.lib : locale0.obj (.const:.typeinfo:_ZTSNSt6locale7_LocimpE)
                  008ac9fc    00000004     app_pe66.oe66 (.const:ti_sysbios_family_c64p_Hwi_Module__loggerFxn1__C)
                  008aca00    00000012     frameworkFunctions.obj (.const:.typeinfo:_ZTSNSt6locale5facetE)
                  008aca12    00000002     app_pe66.oe66 (.const:ti_sysbios_knl_Swi_Module__loggerDefined__C)
                  008aca14    00000004     app_pe66.oe66 (.const:ti_sysbios_family_c64p_Hwi_Module__loggerFxn8__C)
                  008aca18    00000012     rts6600_elf.lib : ios.obj (.const:.typeinfo:_ZTSSt13runtime_error)
                  008aca2a    00000002     app_pe66.oe66 (.const:ti_sysbios_knl_Task_Module__id__C)
                  008aca2c    00000004     app_pe66.oe66 (.const:ti_sysbios_family_c64p_Hwi_Module__loggerObj__C)
                  008aca30    00000011     rts6600_elf.lib : iostream.obj (.const:.typeinfo:_ZTSSt12codecvt_base)
                  008aca41    00000001     --HOLE-- [fill = 0]
                  008aca42    00000002     app_pe66.oe66 (.const:ti_sysbios_knl_Task_Module__loggerDefined__C)
                  008aca44    00000004     app_pe66.oe66 (.const:ti_sysbios_gates_GateMutex_A_badContext__C)
                  008aca48    00000011     rts6600_elf.lib : string.obj (.const:.typeinfo:_ZTSSt12length_error)
                  008aca59    00000001     --HOLE-- [fill = 0]
                  008aca5a    00000002     app_pe66.oe66 (.const:ti_sysbios_knl_Task_initStackFlag__C)
                  008aca5c    00000004     app_pe66.oe66 (.const:ti_sysbios_gates_GateMutex_Instance_State_sem__O)
                  008aca60    00000011     rts6600_elf.lib : string.obj (.const:.typeinfo:_ZTSSt12out_of_range)
                  008aca71    00000001     --HOLE-- [fill = 0]
                  008aca72    00000002     app_pe66.oe66 (.const:ti_sysbios_timers_timer64_Timer_Module__id__C)
                  008aca74    0000000c     rts6600_elf.lib : typeinfo_.obj (.const:.typeinfo:_ZTIN10__cxxabiv117__class_type_infoE)
                  008aca80    00000011     ti.targets.rts6000.ae66 : System.oe66 (.const:digtohex)
                  008aca91    00000001     --HOLE-- [fill = 0]
                  008aca92    00000002     app_pe66.oe66 (.const:ti_sysbios_timers_timer64_Timer_startupNeeded__C)
                  008aca94    00000004     app_pe66.oe66 (.const:ti_sysbios_gates_GateMutex_Module__diagsEnabled__C)
                  008aca98    00000010     rts6600_elf.lib : string.obj (.const:.typeinfo:_ZTSSt11logic_error)
                  008acaa8    00000010                     : iostream.obj (.const:.typeinfo:_ZTSSt7codecvtIcciE)
                  008acab8    00000010                     : wiostrea.obj (.const:.typeinfo:_ZTSSt7codecvtIwciE)
                  008acac8    00000010                     : typeinfo_.obj (.const:_ZTVN10__cxxabiv117__class_type_infoE)
                  008acad8    00000010                     : typeinfo_.obj (.const:_ZTVN10__cxxabiv120__si_class_type_infoE)
                  008acae8    00000010                     : typeinfo_.obj (.const:_ZTVN10__cxxabiv121__vmi_class_type_infoE)
                  008acaf8    00000010     frameworkFunctions.obj (.const:_ZTVNSt6locale5facetE)
                  008acb08    00000010     rts6600_elf.lib : locale0.obj (.const:_ZTVNSt6locale7_LocimpE)
                  008acb18    00000010     frameworkFunctions.obj (.const:_ZTVSt10ctype_base)
                  008acb28    00000010     rts6600_elf.lib : ios.obj (.const:_ZTVSt8ios_base)
                  008acb38    00000010                     : iostream.obj (.const:_ZTVSt9basic_iosIcSt11char_traitsIcEE)
                  008acb48    00000010                     : wiostrea.obj (.const:_ZTVSt9basic_iosIwSt11char_traitsIwEE)
                  008acb58    0000000f     frameworkFunctions.obj (.const:.typeinfo:_ZTSSt10ctype_base)
                  008acb67    00000001     --HOLE-- [fill = 0]
                  008acb68    0000000f     dynamicMemory.obj (.const:.typeinfo:_ZTSSt8numpunctIcE)
                  008acb77    00000001     --HOLE-- [fill = 0]
                  008acb78    0000000d     rts6600_elf.lib : ios.obj (.const:.typeinfo:_ZTSSt9exception)
                  008acb85    00000001     --HOLE-- [fill = 0]
                  008acb86    00000002     app_pe66.oe66 (.const:ti_sysbios_timers_timer64_Timer_useTimer64pRegMap__C)
                  008acb88    0000000d     rts6600_elf.lib : typeinfo_.obj (.const:.typeinfo:_ZTSSt9type_info)
                  008acb95    00000001     --HOLE-- [fill = 0]
                  008acb96    00000002     app_pe66.oe66 (.const:xdc_runtime_Core_Module__id__C)
                  008acb98    0000000c     rts6600_elf.lib : typeinfo_.obj (.const:.typeinfo:_ZTIN10__cxxabiv120__si_class_type_infoE)
                  008acba4    0000000c                     : typeinfo_.obj (.const:.typeinfo:_ZTIN10__cxxabiv121__vmi_class_type_infoE)
                  008acbb0    0000000c                     : locale0.obj (.const:.typeinfo:_ZTINSt6locale7_LocimpE)
                  008acbbc    0000000c                     : ios.obj (.const:.typeinfo:_ZTINSt8ios_base7failureE)
                  008acbc8    0000000c     frameworkFunctions.obj (.const:.typeinfo:_ZTISt10ctype_base)
                  008acbd4    0000000c     rts6600_elf.lib : string.obj (.const:.typeinfo:_ZTISt11logic_error)
                  008acbe0    0000000c                     : iostream.obj (.const:.typeinfo:_ZTISt12codecvt_base)
                  008acbec    0000000c                     : string.obj (.const:.typeinfo:_ZTISt12length_error)
                  008acbf8    0000000c                     : string.obj (.const:.typeinfo:_ZTISt12out_of_range)
                  008acc04    0000000c                     : iostream.obj (.const:.typeinfo:_ZTISt13basic_filebufIcSt11char_traitsIcEE)
                  008acc10    0000000c                     : wiostrea.obj (.const:.typeinfo:_ZTISt13basic_filebufIwSt11char_traitsIwEE)
                  008acc1c    0000000c                     : ios.obj (.const:.typeinfo:_ZTISt13runtime_error)
                  008acc28    0000000c     frameworkFunctions.obj (.const:.typeinfo:_ZTISt5ctypeIcE)
                  008acc34    0000000c     rts6600_elf.lib : wiostrea.obj (.const:.typeinfo:_ZTISt5ctypeIwE)
                  008acc40    0000000c                     : iostream.obj (.const:.typeinfo:_ZTISt7codecvtIcciE)
                  008acc4c    0000000c                     : wiostrea.obj (.const:.typeinfo:_ZTISt7codecvtIwciE)
                  008acc58    0000000c     dynamicMemory.obj (.const:.typeinfo:_ZTISt7num_putIcSt19ostreambuf_iteratorIcSt11char_traitsIcEEE)
                  008acc64    0000000c     rts6600_elf.lib : ios.obj (.const:.typeinfo:_ZTISt8ios_base)
                  008acc70    0000000c     dynamicMemory.obj (.const:.typeinfo:_ZTISt8numpunctIcE)
                  008acc7c    0000000c     rts6600_elf.lib : iostream.obj (.const:.typeinfo:_ZTISt9basic_iosIcSt11char_traitsIcEE)
                  008acc88    0000000c                     : wiostrea.obj (.const:.typeinfo:_ZTISt9basic_iosIwSt11char_traitsIwEE)
                  008acc94    00000004     app_pe66.oe66 (.const:ti_sysbios_gates_GateMutex_Module__diagsIncluded__C)
                  008acc98    0000000c     rts6600_elf.lib : ios.obj (.const:.typeinfo:_ZTSSt5_IosbIiE)
                  008acca4    00000004     app_pe66.oe66 (.const:ti_sysbios_gates_GateMutex_Module__diagsMask__C)
                  008acca8    0000000c     frameworkFunctions.obj (.const:.typeinfo:_ZTSSt5ctypeIcE)
                  008accb4    00000004     app_pe66.oe66 (.const:ti_sysbios_hal_Hwi_E_stackOverflow__C)
                  008accb8    0000000c     rts6600_elf.lib : wiostrea.obj (.const:.typeinfo:_ZTSSt5ctypeIwE)
                  008accc4    00000004     app_pe66.oe66 (.const:ti_sysbios_heaps_HeapMem_A_align__C)
                  008accc8    0000000c     rts6600_elf.lib : ios.obj (.const:.typeinfo:_ZTSSt8ios_base)
                  008accd4    0000000c     app_pe66.oe66 (.const:ti_sysbios_family_c66_Cache_initSize__C)
                  008acce0    00000009     dynamicMemory.obj (.const)
                  008acce9    00000001     --HOLE-- [fill = 0]
                  008accea    00000002     app_pe66.oe66 (.const:xdc_runtime_Error_Module__loggerDefined__C)
                  008accec    00000008     rts6600_elf.lib : setlocale.obj (.const:.string)
                  008accf4    00000008     ti.targets.rts6000.ae66 : System.oe66 (.const:.string)
                  008accfc    00000008     frameworkFunctions.obj (.const:.typeinfo:_ZTINSt6locale5facetE)
                  008acd04    00000008     rts6600_elf.lib : iostream.obj (.const:.typeinfo:_ZTISt15basic_streambufIcSt11char_traitsIcEE)
                  008acd0c    00000008                     : wiostrea.obj (.const:.typeinfo:_ZTISt15basic_streambufIwSt11char_traitsIwEE)
                  008acd14    00000008                     : ios.obj (.const:.typeinfo:_ZTISt5_IosbIiE)
                  008acd1c    00000008                     : ios.obj (.const:.typeinfo:_ZTISt9exception)
                  008acd24    00000008                     : typeinfo_.obj (.const:.typeinfo:_ZTISt9type_info)
                  008acd2c    00000008     frameworkFunctions.obj (.const)
                  008acd34    00000004     app_pe66.oe66 (.const:ti_sysbios_heaps_HeapMem_A_heapSize__C)
                  008acd38    00000008     app_pe66.oe66 (.const:ti_sysbios_knl_Idle_funcList__A)
                  008acd40    00000008     app_pe66.oe66 (.const:ti_sysbios_knl_Idle_funcList__C)
                  008acd48    00000008     app_pe66.oe66 (.const:xdc_runtime_Startup_firstFxns__A)
                  008acd50    00000008     app_pe66.oe66 (.const:xdc_runtime_Startup_firstFxns__C)
                  008acd58    00000008     app_pe66.oe66 (.const:xdc_runtime_Startup_lastFxns__C)
                  008acd60    00000006     dynamicMemory.obj (.const:.string:_ZZNKSt8_Locinfo9_GetfalseEvEs)
                  008acd66    00000002     app_pe66.oe66 (.const:xdc_runtime_Error_maxDepth__C)
                  008acd68    00000005     dynamicMemory.obj (.const:.string:_ZZNKSt8_Locinfo8_GettrueEvEs)
                  008acd6d    00000001     --HOLE-- [fill = 0]
                  008acd6e    00000002     app_pe66.oe66 (.const:xdc_runtime_LoggerBuf_Module__id__C)
                  008acd70    00000004     app_pe66.oe66 (.const:ti_sysbios_heaps_HeapMem_A_invalidFree__C)
                  008acd74    00000004     app_pe66.oe66 (.const:ti_sysbios_heaps_HeapMem_A_zeroBlock__C)
                  008acd78    00000004     app_pe66.oe66 (.const:ti_sysbios_heaps_HeapMem_E_memory__C)
                  008acd7c    00000004     app_pe66.oe66 (.const:ti_sysbios_heaps_HeapMem_Module__diagsEnabled__C)
                  008acd80    00000004     app_pe66.oe66 (.const:ti_sysbios_heaps_HeapMem_Module__diagsIncluded__C)
                  008acd84    00000004     app_pe66.oe66 (.const:ti_sysbios_heaps_HeapMem_Module__diagsMask__C)
                  008acd88    00000004     app_pe66.oe66 (.const:ti_sysbios_heaps_HeapMem_Module__gateObj__C)
                  008acd8c    00000004     app_pe66.oe66 (.const:ti_sysbios_heaps_HeapMem_Object__count__C)
                  008acd90    00000004     app_pe66.oe66 (.const:ti_sysbios_heaps_HeapMem_reqAlign__C)
                  008acd94    00000004     app_pe66.oe66 (.const:ti_sysbios_knl_Clock_LM_begin__C)
                  008acd98    00000004     app_pe66.oe66 (.const:ti_sysbios_knl_Clock_LM_tick__C)
                  008acd9c    00000004     app_pe66.oe66 (.const:ti_sysbios_knl_Clock_LW_delayed__C)
                  008acda0    00000004     app_pe66.oe66 (.const:ti_sysbios_knl_Clock_Module_State_clockQ__O)
                  008acda4    00000004     app_pe66.oe66 (.const:ti_sysbios_knl_Clock_Module__diagsEnabled__C)
                  008acda8    00000004     app_pe66.oe66 (.const:ti_sysbios_knl_Clock_Module__diagsIncluded__C)
                  008acdac    00000004     app_pe66.oe66 (.const:ti_sysbios_knl_Clock_Module__diagsMask__C)
                  008acdb0    00000004     app_pe66.oe66 (.const:ti_sysbios_knl_Clock_Module__loggerFxn1__C)
                  008acdb4    00000004     app_pe66.oe66 (.const:ti_sysbios_knl_Clock_Module__loggerFxn2__C)
                  008acdb8    00000004     app_pe66.oe66 (.const:ti_sysbios_knl_Clock_Module__loggerObj__C)
                  008acdbc    00000004     app_pe66.oe66 (.const:ti_sysbios_knl_Semaphore_A_badContext__C)
                  008acdc0    00000004     app_pe66.oe66 (.const:ti_sysbios_knl_Semaphore_A_noEvents__C)
                  008acdc4    00000004     app_pe66.oe66 (.const:ti_sysbios_knl_Semaphore_A_overflow__C)
                  008acdc8    00000004     app_pe66.oe66 (.const:ti_sysbios_knl_Semaphore_A_pendTaskDisabled__C)
                  008acdcc    00000004     app_pe66.oe66 (.const:ti_sysbios_knl_Semaphore_Instance_State_pendQ__O)
                  008acdd0    00000004     app_pe66.oe66 (.const:ti_sysbios_knl_Semaphore_LM_pend__C)
                  008acdd4    00000004     app_pe66.oe66 (.const:ti_sysbios_knl_Semaphore_LM_post__C)
                  008acdd8    00000004     app_pe66.oe66 (.const:ti_sysbios_knl_Semaphore_Module__diagsEnabled__C)
                  008acddc    00000004     app_pe66.oe66 (.const:ti_sysbios_knl_Semaphore_Module__diagsIncluded__C)
                  008acde0    00000004     app_pe66.oe66 (.const:ti_sysbios_knl_Semaphore_Module__diagsMask__C)
                  008acde4    00000004     app_pe66.oe66 (.const:ti_sysbios_knl_Semaphore_Module__loggerFxn2__C)
                  008acde8    00000004     app_pe66.oe66 (.const:ti_sysbios_knl_Semaphore_Module__loggerFxn4__C)
                  008acdec    00000004     app_pe66.oe66 (.const:ti_sysbios_knl_Semaphore_Module__loggerObj__C)
                  008acdf0    00000004     app_pe66.oe66 (.const:ti_sysbios_knl_Swi_LD_end__C)
                  008acdf4    00000004     app_pe66.oe66 (.const:ti_sysbios_knl_Swi_LM_begin__C)
                  008acdf8    00000004     app_pe66.oe66 (.const:ti_sysbios_knl_Swi_LM_post__C)
                  008acdfc    00000004     app_pe66.oe66 (.const:ti_sysbios_knl_Swi_Module__diagsEnabled__C)
                  008ace00    00000004     app_pe66.oe66 (.const:ti_sysbios_knl_Swi_Module__diagsIncluded__C)
                  008ace04    00000004     app_pe66.oe66 (.const:ti_sysbios_knl_Swi_Module__diagsMask__C)
                  008ace08    00000004     app_pe66.oe66 (.const:ti_sysbios_knl_Swi_Module__loggerFxn1__C)
                  008ace0c    00000004     app_pe66.oe66 (.const:ti_sysbios_knl_Swi_Module__loggerFxn4__C)
                  008ace10    00000004     app_pe66.oe66 (.const:ti_sysbios_knl_Swi_Module__loggerObj__C)
                  008ace14    00000004     app_pe66.oe66 (.const:ti_sysbios_knl_Swi_Object__count__C)
                  008ace18    00000004     app_pe66.oe66 (.const:ti_sysbios_knl_Task_E_spOutOfBounds__C)
                  008ace1c    00000004     app_pe66.oe66 (.const:ti_sysbios_knl_Task_E_stackOverflow__C)
                  008ace20    00000004     app_pe66.oe66 (.const:ti_sysbios_knl_Task_LD_block__C)
                  008ace24    00000004     app_pe66.oe66 (.const:ti_sysbios_knl_Task_LD_exit__C)
                  008ace28    00000004     app_pe66.oe66 (.const:ti_sysbios_knl_Task_LD_ready__C)
                  008ace2c    00000004     app_pe66.oe66 (.const:ti_sysbios_knl_Task_LM_switch__C)
                  008ace30    00000004     app_pe66.oe66 (.const:ti_sysbios_knl_Task_Module_State_inactiveQ__O)
                  008ace34    00000004     app_pe66.oe66 (.const:ti_sysbios_knl_Task_Module__diagsEnabled__C)
                  008ace38    00000004     app_pe66.oe66 (.const:ti_sysbios_knl_Task_Module__diagsIncluded__C)
                  008ace3c    00000004     app_pe66.oe66 (.const:ti_sysbios_knl_Task_Module__diagsMask__C)
                  008ace40    00000004     app_pe66.oe66 (.const:ti_sysbios_knl_Task_Module__loggerFxn2__C)
                  008ace44    00000004     app_pe66.oe66 (.const:ti_sysbios_knl_Task_Module__loggerFxn4__C)
                  008ace48    00000004     app_pe66.oe66 (.const:ti_sysbios_knl_Task_Module__loggerObj__C)
                  008ace4c    00000004     app_pe66.oe66 (.const:ti_sysbios_knl_Task_Object__count__C)
                  008ace50    00000004     app_pe66.oe66 (.const:ti_sysbios_knl_Task_allBlockedFunc__C)
                  008ace54    00000004     app_pe66.oe66 (.const:ti_sysbios_knl_Task_numConstructedTasks__C)
                  008ace58    00000004     app_pe66.oe66 (.const:ti_sysbios_timers_timer64_Timer_A_notAvailable__C)
                  008ace5c    00000004     app_pe66.oe66 (.const:ti_sysbios_timers_timer64_Timer_E_cannotSupport__C)
                  008ace60    00000004     app_pe66.oe66 (.const:ti_sysbios_timers_timer64_Timer_Module__diagsEnabled__C)
                  008ace64    00000004     app_pe66.oe66 (.const:ti_sysbios_timers_timer64_Timer_Module__diagsIncluded__C)
                  008ace68    00000004     app_pe66.oe66 (.const:ti_sysbios_timers_timer64_Timer_Module__diagsMask__C)
                  008ace6c    00000004     app_pe66.oe66 (.const:ti_sysbios_timers_timer64_Timer_anyMaskHigh__C)
                  008ace70    00000004     app_pe66.oe66 (.const:ti_sysbios_timers_timer64_Timer_anyMask__C)
                  008ace74    00000004     app_pe66.oe66 (.const:ti_sysbios_timers_timer64_Timer_freqDivisor__C)
                  008ace78    00000004     app_pe66.oe66 (.const:ti_sysbios_timers_timer64_Timer_numLocalTimers__C)
                  008ace7c    00000004     app_pe66.oe66 (.const:ti_sysbios_timers_timer64_Timer_numTimerDevices__C)
                  008ace80    00000004     app_pe66.oe66 (.const:xdc_runtime_Assert_E_assertFailed__C)
                  008ace84    00000004     app_pe66.oe66 (.const:xdc_runtime_Core_A_initializedParams__C)
                  008ace88    00000004     app_pe66.oe66 (.const:xdc_runtime_Core_Module__diagsEnabled__C)
                  008ace8c    00000004     app_pe66.oe66 (.const:xdc_runtime_Core_Module__diagsIncluded__C)
                  008ace90    00000004     app_pe66.oe66 (.const:xdc_runtime_Core_Module__diagsMask__C)
                  008ace94    00000004     app_pe66.oe66 (.const:xdc_runtime_Error_E_memory__C)
                  008ace98    00000004     app_pe66.oe66 (.const:xdc_runtime_Error_Module__diagsEnabled__C)
                  008ace9c    00000004     app_pe66.oe66 (.const:xdc_runtime_Error_Module__diagsIncluded__C)
                  008acea0    00000004     app_pe66.oe66 (.const:xdc_runtime_Error_Module__diagsMask__C)
                  008acea4    00000004     app_pe66.oe66 (.const:xdc_runtime_Error_Module__loggerFxn8__C)
                  008acea8    00000004     app_pe66.oe66 (.const:xdc_runtime_Error_Module__loggerObj__C)
                  008aceac    00000004     app_pe66.oe66 (.const:xdc_runtime_Error_policyFxn__C)
                  008aceb0    00000004     app_pe66.oe66 (.const:xdc_runtime_Error_policy__C)
                  008aceb4    00000004     app_pe66.oe66 (.const:xdc_runtime_Error_raiseHook__C)
                  008aceb8    00000004     app_pe66.oe66 (.const:xdc_runtime_IFilterLogger_Interface__BASE__C)
                  008acebc    00000004     app_pe66.oe66 (.const:xdc_runtime_IGateProvider_Interface__BASE__C)
                  008acec0    00000004     app_pe66.oe66 (.const:xdc_runtime_IHeap_Interface__BASE__C)
                  008acec4    00000004     app_pe66.oe66 (.const:xdc_runtime_ILogger_Interface__BASE__C)
                  008acec8    00000004     app_pe66.oe66 (.const:xdc_runtime_IModule_Interface__BASE__C)
                  008acecc    00000004     app_pe66.oe66 (.const:xdc_runtime_Log_L_error__C)
                  008aced0    00000004     app_pe66.oe66 (.const:xdc_runtime_LoggerBuf_E_badLevel__C)
                  008aced4    00000004     app_pe66.oe66 (.const:xdc_runtime_LoggerBuf_Module__gateObj__C)
                  008aced8    00000004     app_pe66.oe66 (.const:xdc_runtime_LoggerBuf_Object__count__C)
                  008acedc    00000004     app_pe66.oe66 (.const:xdc_runtime_LoggerBuf_statusLogger__C)
                  008acee0    00000004     app_pe66.oe66 (.const:xdc_runtime_Memory_defaultHeapInstance__C)
                  008acee4    00000004     app_pe66.oe66 (.const:xdc_runtime_Startup_execImpl__C)
                  008acee8    00000004     app_pe66.oe66 (.const:xdc_runtime_Startup_maxPasses__C)
                  008aceec    00000004     app_pe66.oe66 (.const:xdc_runtime_Startup_sfxnRts__C)
                  008acef0    00000004     app_pe66.oe66 (.const:xdc_runtime_Startup_sfxnTab__C)
                  008acef4    00000004     app_pe66.oe66 (.const:xdc_runtime_SysMin_bufSize__C)
                  008acef8    00000004     app_pe66.oe66 (.const:xdc_runtime_SysMin_outputFunc__C)
                  008acefc    00000004     app_pe66.oe66 (.const:xdc_runtime_System_Module__gateObj__C)
                  008acf00    00000004     app_pe66.oe66 (.const:xdc_runtime_System_abortFxn__C)
                  008acf04    00000004     app_pe66.oe66 (.const:xdc_runtime_System_exitFxn__C)
                  008acf08    00000004     app_pe66.oe66 (.const:xdc_runtime_System_extendFxn__C)
                  008acf0c    00000004     app_pe66.oe66 (.const:xdc_runtime_System_maxAtexitHandlers__C)
                  008acf10    00000004     app_pe66.oe66 (.const:xdc_runtime_Text_charTab__C)
                  008acf14    00000004     app_pe66.oe66 (.const:xdc_runtime_Text_nameEmpty__C)
                  008acf18    00000004     app_pe66.oe66 (.const:xdc_runtime_Text_nameStatic__C)
                  008acf1c    00000004     app_pe66.oe66 (.const:xdc_runtime_Text_nameUnknown__C)
                  008acf20    00000004     app_pe66.oe66 (.const:xdc_runtime_Text_nodeTab__C)
                  008acf24    00000004     app_pe66.oe66 (.const:xdc_runtime_Text_visitRopeFxn__C)
                  008acf28    00000003     dynamicMemory.obj (.const:.string:_ZZNKSt7num_putIcSt19ostreambuf_iteratorIcSt11char_traitsIcEEE6do_putES3_RSt8ios_basecPKvEs)
                  008acf2b    00000001     --HOLE-- [fill = 0]
                  008acf2c    00000002     app_pe66.oe66 (.const:xdc_runtime_LoggerBuf_filterByLevel__C)
                  008acf2e    00000002     app_pe66.oe66 (.const:xdc_runtime_Memory_Module__id__C)
                  008acf30    00000003     dynamicMemory.obj (.const:.string:_ZZNKSt7num_putIcSt19ostreambuf_iteratorIcSt11char_traitsIcEEE6do_putES3_RSt8ios_baseclEs)
                  008acf33    00000001     --HOLE-- [fill = 0]
                  008acf34    00000002     app_pe66.oe66 (.const:xdc_runtime_SysMin_flushAtExit__C)
                  008acf36    00000002     app_pe66.oe66 (.const:xdc_runtime_Text_charCnt__C)
                  008acf38    00000003     dynamicMemory.obj (.const:.string:_ZZNKSt7num_putIcSt19ostreambuf_iteratorIcSt11char_traitsIcEEE6do_putES3_RSt8ios_basecmEs)
                  008acf3b    00000001     --HOLE-- [fill = 0]
                  008acf3c    00000002     app_pe66.oe66 (.const:xdc_runtime_Text_isLoaded__C)
                  008acf3e    00000002     app_pe66.oe66 (.const:xdc_runtime_Text_registryModsLastId__C)
                  008acf40    00000003     dynamicMemory.obj (.const:.string:_ZZNKSt7num_putIcSt19ostreambuf_iteratorIcSt11char_traitsIcEEE6do_putES3_RSt8ios_basecxEs)
                  008acf43    00000001     --HOLE-- [fill = 0]
                  008acf44    00000002     app_pe66.oe66 (.const:xdc_runtime_Text_unnamedModsLastId__C)
                  008acf46    00000002     --HOLE-- [fill = 0]
                  008acf48    00000003     dynamicMemory.obj (.const:.string:_ZZNKSt7num_putIcSt19ostreambuf_iteratorIcSt11char_traitsIcEEE6do_putES3_RSt8ios_basecyEs)
                  008acf4b    00000005     --HOLE-- [fill = 0]
                  008acf50    00000003     rts6600_elf.lib : iostream.obj (.const:.typeinfo:_ZTSSi)
                  008acf53    00000005     --HOLE-- [fill = 0]
                  008acf58    00000003                     : iostream.obj (.const:.typeinfo:_ZTSSo)
                  008acf5b    00000005     --HOLE-- [fill = 0]
                  008acf60    00000002     dynamicMemory.obj (.const:.string:_ZZNKSt7num_putIcSt19ostreambuf_iteratorIcSt11char_traitsIcEEE5_FputES3_RSt8ios_basecPKcjjjjEs)
                  008acf62    00000006     --HOLE-- [fill = 0]
                  008acf68    00000002     dynamicMemory.obj (.const:.string:_ZZNKSt7num_putIcSt19ostreambuf_iteratorIcSt11char_traitsIcEEE5_FputES3_RSt8ios_basecPKcjjjjEs_0)

.fardata.2 
*          0    008aef70    00000bc4     UNINITIALIZED
                  008aef70    00000200     app_pe66.oe66 (.fardata)
                  008af170    000001e0     rts6600_elf.lib : defs.obj (.fardata:_ftable)
                  008af350    000000c0     app_pe66.oe66 (.fardata:ti_sysbios_timers_timer64_Timer_Module_State_0_device__A)
                  008af410    000000a0     rts6600_elf.lib : lowlev.obj (.fardata:_stream)
                  008af4b0    00000098     app_pe66.oe66 (.fardata:ti_sysbios_knl_Task_Object__table__V)
                  008af548    00000090     app_pe66.oe66 (.fardata:ti_sysbios_knl_Swi_Object__table__V)
                  008af5d8    00000080     app_pe66.oe66 (.fardata:ti_sysbios_knl_Swi_Module_State_0_readyQ__A)
                  008af658    00000080     app_pe66.oe66 (.fardata:ti_sysbios_knl_Task_Module_State_0_readyQ__A)
                  008af6d8    00000078     rts6600_elf.lib : lowlev.obj (.fardata:_device)
                  008af750    00000068                     : xfvalues.obj (.fardata)
                  008af7b8    00000050     app_pe66.oe66 (.fardata:ti_sysbios_timers_timer64_Timer_Object__table__V)
                  008af808    00000044     rts6600_elf.lib : powf.obj (.fardata:A1$1)
                  008af84c    00000004     frameworkFunctions.obj (.fardata:_ZNSt9_FacetptrISt5ctypeIcEE6_PsaveE)
                  008af850    00000040     app_pe66.oe66 (.fardata:ti_sysbios_gates_GateMutex_Object__table__V)
                  008af890    00000040     app_pe66.oe66 (.fardata:ti_sysbios_knl_Clock_Object__table__V)
                  008af8d0    00000040     app_pe66.oe66 (.fardata:ti_sysbios_timers_timer64_Timer_Module_State_0_gctrl__A)
                  008af910    00000040     app_pe66.oe66 (.fardata:ti_sysbios_timers_timer64_Timer_Module_State_0_handles__A)
                  008af950    00000040     app_pe66.oe66 (.fardata:ti_sysbios_timers_timer64_Timer_Module_State_0_intFreqs__A)
                  008af990    00000034     rts6600_elf.lib : setlocale.obj (.fardata)
                  008af9c4    00000004                     : wiostrea.obj (.fardata:_ZNSt9_FacetptrISt5ctypeIwEE6_PsaveE)
                  008af9c8    00000030     app_pe66.oe66 (.fardata:ti_sysbios_heaps_HeapMem_Object__table__V)
                  008af9f8    00000028     rts6600_elf.lib : ios.obj (.fardata:_ZSt6stdstr)
                  008afa20    00000024     app_pe66.oe66 (.fardata:xdc_runtime_LoggerBuf_Object__table__V)
                  008afa44    00000004     rts6600_elf.lib : iostream.obj (.fardata:_ZNSt9_FacetptrISt7codecvtIcciEE6_PsaveE)
                  008afa48    00000020                     : powf.obj (.fardata:A2$2)
                  008afa68    00000018     app_pe66.oe66 (.fardata:ti_sysbios_family_c64p_Hwi_Object__table__V)
                  008afa80    00000018     app_pe66.oe66 (.fardata:ti_sysbios_knl_Semaphore_Object__table__V)
                  008afa98    00000011     rts6600_elf.lib : locale0.obj (.fardata)
                  008afaa9    00000003     --HOLE--
                  008afaac    00000004                     : wiostrea.obj (.fardata:_ZNSt9_FacetptrISt7codecvtIwciEE6_PsaveE)
                  008afab0    00000010     app_pe66.oe66 (.fardata:xdc_runtime_System_Module_State_0_atexitHandlers__A)
                  008afac0    0000000c     rts6600_elf.lib : powf.obj (.fardata:Q$4)
                  008afacc    0000000c                     : exit.obj (.fardata)
                  008afad8    0000000c                     : ios.obj (.fardata)
                  008afae4    00000004     dynamicMemory.obj (.fardata:_ZNSt9_FacetptrISt7num_putIcSt19ostreambuf_iteratorIcSt11char_traitsIcEEEE6_PsaveE)
                  008afae8    0000000a     rts6600_elf.lib : ios.obj (.fardata:_ZSt8stdopens)
                  008afaf2    00000002     --HOLE--
                  008afaf4    00000004     dynamicMemory.obj (.fardata:_ZNSt9_FacetptrISt8numpunctIcEE6_PsaveE)
                  008afaf8    00000004     rts6600_elf.lib : powf.obj (.fardata:P$3)
                  008afafc    00000004                     : _lock.obj (.fardata:_lock)
                  008afb00    00000004                     : _lock.obj (.fardata:_unlock)
                  008afb04    00000004                     : defs.obj (.fardata)
                  008afb08    00000004                     : dtor_list.obj (.fardata)
                  008afb0c    00000004                     : errno.obj (.fardata)
                  008afb10    00000004                     : iostream.obj (.fardata)
                  008afb14    00000004                     : raisehan.obj (.fardata)
                  008afb18    00000004                     : rand.obj (.fardata)
                  008afb1c    00000004                     : vars.obj (.fardata)
                  008afb20    00000004                     : wiostrea.obj (.fardata)
                  008afb24    00000004     --HOLE--
                  008afb28    00000004     app_pe66.oe66 (.fardata:ti_sysbios_gates_GateHwi_Object__table__V)
                  008afb2c    00000004     --HOLE--
                  008afb30    00000004     app_pe66.oe66 (.fardata:ti_sysbios_knl_Task_Module_State_0_idleTask__A)

.switch    0    008afbbc    00000010     
                  008afbbc    00000010     schedulingAlgorithms.obj (.switch:_Z21performUserSchedulingP14systemConfig_tP16downlinkConfig_t)

.cio       0    008afe00    00000120     UNINITIALIZED
                  008afe00    00000120     rts6600_elf.lib : trgmsg.obj (.cio)


LINKER GENERATED COPY TABLES

__TI_cinit_table @ 008b0598 records: 7, size/record: 8, table size: 56
	.fardata.2: load addr=008aff20, load size=00000610 bytes, run addr=008aef70, run size=00000bc4 bytes, compression=rle
	.rodata: load addr=008b0530, load size=00000022 bytes, run addr=008afba0, run size=0000001c bytes, compression=rle
	.neardata: load addr=008b0554, load size=0000000e bytes, run addr=008afb98, run size=00000008 bytes, compression=rle
	.fardata.1: load addr=008b0564, load size=0000000d bytes, run addr=00881b48, run size=00000008 bytes, compression=rle
	.bigMem: load addr=008b0580, load size=00000008 bytes, run addr=0c000000, run size=0008c7f8 bytes, compression=zero_init
	.bss: load addr=008b0588, load size=00000008 bytes, run addr=008afb80, run size=00000018 bytes, compression=zero_init
	.far: load addr=008b0590, load size=00000008 bytes, run addr=00800000, run size=00081b44 bytes, compression=zero_init


LINKER GENERATED HANDLER TABLE

__TI_handler_table @ 008b0574 records: 3, size/record: 4, table size: 12
	index: 0, handler: __TI_zero_init
	index: 1, handler: __TI_decompress_rle24
	index: 2, handler: __TI_decompress_none


GLOBAL SYMBOLS: SORTED ALPHABETICALLY BY Name 

address    name
--------   ----
008a8f80   C$$EXIT
008a2f40   C$$IO$$
008af990   C_locale
008a0920   HOSTclose
0089cce0   HOSTlseek
0089e1e0   HOSTopen
0089f360   HOSTread
00897020   HOSTrename
0089f420   HOSTunlink
0089e2c0   HOSTwrite
008af4fc   TSK_idle
008a7a80   _Atexit
008a3be0   _Deletegloballocale
008af750   _FDenorm
008af760   _FEps
008af770   _FInf
008af780   _FNan
008af7a0   _FRteps
008af790   _FSnan
008af7b0   _FXbig
008af7b4   _FZero
0089e3a0   _Fac_tidy
00898b00   _Getctyptab
008a7aa0   _Getgloballocale
008a20e0   _Setgloballocale
00899580   _Z10freeMatrixP9cmatrix_t
0089966c   _Z10freeMemoryPvj
0088324c   _Z10matrixCopyP9cmatrix_tS0_15CBLAS_TRANSPOSEb
00883584   _Z10matrixMultP9cmatrix_tS0_S0_15CBLAS_TRANSPOSES1_b
00883bec   _Z11dotProductVPSt7complexIfES1_t
00883aa4   _Z11matrixMultVP9cmatrix_tPSt7complexIfES3_b
008831b0   _Z12cblas_isamaxjPvj
00883120   _Z12cblas_scnrm2jPvj
00885cc8   _Z12cleanupUsersP16downlinkConfig_t
00899594   _Z12createMatrixP9cmatrix_ttt
0088cbe0   _Z13displayMatrixP9cmatrix_t
0088cd28   _Z13displayMatrixR9cmatrix_t
00884b70   _Z13getNullMatrixP9cmatrix_tS0_
00883cac   _Z13outerProductVPSt7complexIfES1_P9cmatrix_tS0_
008995f4   _Z13reshapeMatrixP9cmatrix_ttt
00899654   _Z14allocateMemoryj
00884180   _Z15matrixHermitianP9cmatrix_t
00883fa0   _Z15matrixMultSafeAP9cmatrix_tS0_
00883dc4   _Z15matrixMultSafeBP9cmatrix_tS0_
00884378   _Z15matrixTransposeP9cmatrix_t
008995c4   _Z16createZeroMatrixP9cmatrix_ttt
008846ec   _Z16getMatrixInverseP9cmatrix_tS0_St7complexIfE
0088558c   _Z16initializeSystemP16downlinkConfig_tP14systemConfig_tttttt
0088cf68   _Z17displaySystemInfov
00885c50   _Z17updateUserChannelP12userConfig_t
00885a58   _Z18clearDLConfig_UserP16downlinkConfig_tt
00884cd8   _Z18getQRDecompositionP9cmatrix_tS0_S0_
00895000   _Z18lteSystemTerminatejj
008858d8   _Z19updateDLConfig_UserP16downlinkConfig_tP12userConfig_t
0088ce70   _Z20displayUserStructureP12userConfig_t
00899624   _Z20reshapeAndCopyMatrixP9cmatrix_ttt
008a7ac0   _Z21__default_new_handlerv
0088cff0   _Z21displayScheduledUsersP14systemConfig_tP16downlinkConfig_t
00886f20   _Z21performPIPDSchedulingP14systemConfig_tP16downlinkConfig_t
0089d9e0   _Z21performUserSchedulingP14systemConfig_tP16downlinkConfig_t
00885698   _Z22createNewUserStructurettt
008853a0   _Z22randomizeChannelMatrixP9cmatrix_tb
00890440   _Z23performGreedySchedulingP14systemConfig_tP16downlinkConfig_t
008934c0   _Z23performRandomSchedulingP14systemConfig_tP16downlinkConfig_t
0088e1c0   _Z24decomposeChannelMatricesP14systemConfig_tP16downlinkConfig_t
0088e624   _Z28clearSchedulerConfigurationsP14systemConfig_tP16downlinkConfig_t
00887e80   _Z28performSuccessiveProjectionsP14systemConfig_tP16downlinkConfig_t
00885188   _Z6getSVDP9cmatrix_tS0_S0_S0_c
00885b34   _Z8freeUserP12userConfig_t
008845e0   _Z9eyeMatrixP9cmatrix_t
00881a90   _ZGVNSt10moneypunctIwLb0EE2idE
00881a98   _ZGVNSt10moneypunctIwLb1EE2idE
00881aa0   _ZGVNSt7codecvtIcciE2idE
00881aa8   _ZGVNSt7collateIwE2idE
00881ab0   _ZGVNSt7num_getIwSt19istreambuf_iteratorIwSt11char_traitsIwEEE2idE
008afb80   _ZGVNSt7num_putIcSt19ostreambuf_iteratorIcSt11char_traitsIcEEE2idE
00881ab8   _ZGVNSt7num_putIwSt19ostreambuf_iteratorIwSt11char_traitsIwEEE2idE
00881ac0   _ZGVNSt8messagesIwE2idE
008afb88   _ZGVNSt8numpunctIcE2idE
00881ac8   _ZGVNSt8numpunctIwE2idE
00881ad0   _ZGVNSt8time_getIwSt19istreambuf_iteratorIwSt11char_traitsIwEEE2idE
00881ad8   _ZGVNSt9money_getIwSt19istreambuf_iteratorIwSt11char_traitsIwEEE2idE
00881ae0   _ZGVNSt9money_putIwSt19ostreambuf_iteratorIwSt11char_traitsIwEEE2idE
008a7ae0   _ZN10__cxxabiv117__class_type_infoD0Ev
008a7b00   _ZN10__cxxabiv117__class_type_infoD1Ev
008a7b00   _ZN10__cxxabiv117__class_type_infoD2Ev
008a7b20   _ZN10__cxxabiv120__si_class_type_infoD0Ev
008a7b40   _ZN10__cxxabiv120__si_class_type_infoD1Ev
008a7b40   _ZN10__cxxabiv120__si_class_type_infoD2Ev
008a7b60   _ZN10__cxxabiv121__vmi_class_type_infoD0Ev
008a7b80   _ZN10__cxxabiv121__vmi_class_type_infoD1Ev
008a7b80   _ZN10__cxxabiv121__vmi_class_type_infoD2Ev
00881de0   _ZN13DynamicMemory10clearListsEv
00882208   _ZN13DynamicMemory10getMatrixREP9cmatrix_ttt
00882088   _ZN13DynamicMemory10getMatrixZEtt
00882f54   _ZN13DynamicMemory10resetQInfoEv
00882f88   _ZN13DynamicMemory12displayQInfoEv
00881b60   _ZN13DynamicMemory12getEmptyListEj
0088242c   _ZN13DynamicMemory12updateMatrixEP9cmatrix_ttt
0088268c   _ZN13DynamicMemory13reshapeMatrixEP9cmatrix_ttt
00882510   _ZN13DynamicMemory13updateMatrixZEP9cmatrix_ttt
00882c84   _ZN13DynamicMemory15displayDMStatusEv
00881f40   _ZN13DynamicMemory16freeMatrixMemoryEP9cmatrix_t
00882f34   _ZN13DynamicMemory16freeMemoryBufferEPvj
00882ef8   _ZN13DynamicMemory18obtainMemoryBufferEj
008827c0   _ZN13DynamicMemory20reshapeMatrixAndCopyEP9cmatrix_ttt
00882d40   _ZN13DynamicMemory23displayDMCompleteStatusEv
00881fa0   _ZN13DynamicMemory9getMatrixEtt
00881e34   _ZN13DynamicMemoryC1Ev
00881e34   _ZN13DynamicMemoryC2Ev
00881f0c   _ZN13DynamicMemoryD1Ev
00881f0c   _ZN13DynamicMemoryD2Ev
008a7ba0   _ZNKSaIcE8max_sizeEv
008a7bc0   _ZNKSo6sentrycvbEv
008a7be0   _ZNKSs4sizeEv
008a7c00   _ZNKSs5c_strEv
008a5ec0   _ZNKSs6_MyptrEv
008a5f00   _ZNKSs8max_sizeEv
008a7c20   _ZNKSt11logic_error4whatEv
008a7c40   _ZNKSt11logic_error8_DoraiseEv
0089a3e0   _ZNKSt12_String_base5_XlenEv
00897c60   _ZNKSt12_String_base5_XranEv
008a7c60   _ZNKSt12codecvt_base11do_encodingEv
008a7c80   _ZNKSt12codecvt_base13do_max_lengthEv
008a7ca0   _ZNKSt12codecvt_base16do_always_noconvEv
008a7cc0   _ZNKSt12length_error8_DoraiseEv
008a7ce0   _ZNKSt12out_of_range8_DoraiseEv
008a7d00   _ZNKSt13_Complex_baseIfSt16_C_float_complexE4imagEv
008a7d20   _ZNKSt13_Complex_baseIfSt16_C_float_complexE4realEv
008a7d40   _ZNKSt13runtime_error4whatEv
008a7d60   _ZNKSt13runtime_error8_DoraiseEv
008a5f40   _ZNKSt15basic_streambufIcSt11char_traitsIcEE8_PnavailEv
008a7d80   _ZNKSt19ostreambuf_iteratorIcSt11char_traitsIcEE6failedEv
008a3c40   _ZNKSt5ctypeIcE10do_tolowerEPcPKc
008a5f80   _ZNKSt5ctypeIcE10do_tolowerEc
008a3ca0   _ZNKSt5ctypeIcE10do_toupperEPcPKc
008a5fc0   _ZNKSt5ctypeIcE10do_toupperEc
008a6000   _ZNKSt5ctypeIcE5widenEc
008a6040   _ZNKSt5ctypeIcE8do_widenEPKcS2_Pc
008a7da0   _ZNKSt5ctypeIcE8do_widenEc
008a6080   _ZNKSt5ctypeIcE9do_narrowEPKcS2_cPc
008a7dc0   _ZNKSt5ctypeIcE9do_narrowEcc
008a2160   _ZNKSt5ctypeIwE10do_scan_isEsPKwS2_
0089f5a0   _ZNKSt5ctypeIwE10do_tolowerEPwPKw
008a21e0   _ZNKSt5ctypeIwE10do_tolowerEw
00898c80   _ZNKSt5ctypeIwE10do_toupperEPwPKw
008a3d00   _ZNKSt5ctypeIwE10do_toupperEw
008a2260   _ZNKSt5ctypeIwE11do_scan_notEsPKwS2_
008a7de0   _ZNKSt5ctypeIwE2isEsw
0089bf60   _ZNKSt5ctypeIwE5do_isEPKwS2_Ps
008a60c0   _ZNKSt5ctypeIwE5do_isEsw
008a7e00   _ZNKSt5ctypeIwE5widenEc
008a7e20   _ZNKSt5ctypeIwE6narrowEwc
008a09c0   _ZNKSt5ctypeIwE8do_widenEPKcS2_Pw
008a6100   _ZNKSt5ctypeIwE8do_widenEc
0089c080   _ZNKSt5ctypeIwE9do_narrowEPKwS2_cPc
008a3d60   _ZNKSt5ctypeIwE9do_narrowEwc
008a22e0   _ZNKSt6locale9_GetfacetEj
008a7e40   _ZNKSt7codecvtIcciE10do_unshiftERiPcS2_RS2_
008a7e60   _ZNKSt7codecvtIcciE5do_inERiPKcS3_RS3_PcS5_RS5_
008a7e80   _ZNKSt7codecvtIcciE6do_outERiPKcS3_RS3_PcS5_RS5_
008a7ea0   _ZNKSt7codecvtIcciE9do_lengthERKiPKcS4_j
008a0a60   _ZNKSt7codecvtIwciE10do_unshiftERiPcS2_RS2_
008a7ec0   _ZNKSt7codecvtIwciE11do_encodingEv
008a7ee0   _ZNKSt7codecvtIwciE13do_max_lengthEv
008a7f00   _ZNKSt7codecvtIwciE16do_always_noconvEv
00898e00   _ZNKSt7codecvtIwciE5do_inERiPKcS3_RS3_PwS5_RS5_
00898f80   _ZNKSt7codecvtIwciE6do_outERiPKwS3_RS3_PcS5_RS5_
0089cde0   _ZNKSt7codecvtIwciE9do_lengthERKiPKcS4_j
0089f660   _ZNKSt7num_putIcSt19ostreambuf_iteratorIcSt11char_traitsIcEEE11_PutgroupedES3_PKcjc
008a6140   _ZNKSt7num_putIcSt19ostreambuf_iteratorIcSt11char_traitsIcEEE3putES3_RSt8ios_basecb
008a6180   _ZNKSt7num_putIcSt19ostreambuf_iteratorIcSt11char_traitsIcEEE3putES3_RSt8ios_basecm
008a3dc0   _ZNKSt7num_putIcSt19ostreambuf_iteratorIcSt11char_traitsIcEEE4_PutES3_PKcj
008a3e20   _ZNKSt7num_putIcSt19ostreambuf_iteratorIcSt11char_traitsIcEEE4_RepES3_cj
0089cee0   _ZNKSt7num_putIcSt19ostreambuf_iteratorIcSt11char_traitsIcEEE5_FfmtEPccNSt5_IosbIiE9_FmtflagsE
0088d180   _ZNKSt7num_putIcSt19ostreambuf_iteratorIcSt11char_traitsIcEEE5_FputES3_RSt8ios_basecPKcjjjj
0089c1a0   _ZNKSt7num_putIcSt19ostreambuf_iteratorIcSt11char_traitsIcEEE5_IfmtEPcPKcNSt5_IosbIiE9_FmtflagsE
00891a80   _ZNKSt7num_putIcSt19ostreambuf_iteratorIcSt11char_traitsIcEEE5_IputES3_RSt8ios_basecPcj
008a2360   _ZNKSt7num_putIcSt19ostreambuf_iteratorIcSt11char_traitsIcEEE5_PutcES3_PKcj
008a0b00   _ZNKSt7num_putIcSt19ostreambuf_iteratorIcSt11char_traitsIcEEE6do_putES3_RSt8ios_basecPKv
00896a80   _ZNKSt7num_putIcSt19ostreambuf_iteratorIcSt11char_traitsIcEEE6do_putES3_RSt8ios_basecb
00891d40   _ZNKSt7num_putIcSt19ostreambuf_iteratorIcSt11char_traitsIcEEE6do_putES3_RSt8ios_basecd
00892000   _ZNKSt7num_putIcSt19ostreambuf_iteratorIcSt11char_traitsIcEEE6do_putES3_RSt8ios_basece
008a23e0   _ZNKSt7num_putIcSt19ostreambuf_iteratorIcSt11char_traitsIcEEE6do_putES3_RSt8ios_basecl
008a2460   _ZNKSt7num_putIcSt19ostreambuf_iteratorIcSt11char_traitsIcEEE6do_putES3_RSt8ios_basecm
008a24e0   _ZNKSt7num_putIcSt19ostreambuf_iteratorIcSt11char_traitsIcEEE6do_putES3_RSt8ios_basecx
008a2560   _ZNKSt7num_putIcSt19ostreambuf_iteratorIcSt11char_traitsIcEEE6do_putES3_RSt8ios_basecy
008a61c0   _ZNKSt8_Locinfo7_GetcvtEv
008a7f20   _ZNKSt8_Locinfo8_GettrueEv
008a6200   _ZNKSt8_Locinfo9_GetctypeEv
008a7f40   _ZNKSt8_Locinfo9_GetfalseEv
008a7f60   _ZNKSt8_Locinfo9_GetlconvEv
008a7f80   _ZNKSt8ios_base4failEv
008a7fa0   _ZNKSt8ios_base4goodEv
008a7fc0   _ZNKSt8ios_base5flagsEv
008a7fe0   _ZNKSt8ios_base5widthEv
008a8000   _ZNKSt8ios_base6getlocEv
008a8020   _ZNKSt8ios_base7failure8_DoraiseEv
008a8040   _ZNKSt8ios_base7rdstateEv
008a8060   _ZNKSt8ios_base9precisionEv
008a8080   _ZNKSt8numpunctIcE11do_groupingEv
008a80a0   _ZNKSt8numpunctIcE11do_truenameEv
008a80c0   _ZNKSt8numpunctIcE12do_falsenameEv
008a80e0   _ZNKSt8numpunctIcE13decimal_pointEv
008a8100   _ZNKSt8numpunctIcE13thousands_sepEv
008a8120   _ZNKSt8numpunctIcE16do_decimal_pointEv
008a8140   _ZNKSt8numpunctIcE16do_thousands_sepEv
008a6240   _ZNKSt8numpunctIcE8groupingEv
008a6280   _ZNKSt8numpunctIcE8truenameEv
008a62c0   _ZNKSt8numpunctIcE9falsenameEv
008a8160   _ZNKSt9basic_iosIcSt11char_traitsIcEE3tieEv
008a8180   _ZNKSt9basic_iosIcSt11char_traitsIcEE4fillEv
008a81a0   _ZNKSt9basic_iosIcSt11char_traitsIcEE5rdbufEv
008a3e80   _ZNKSt9basic_iosIcSt11char_traitsIcEE5widenEc
008a81c0   _ZNKSt9exception4whatEv
008a3ee0   _ZNKSt9exception6_RaiseEv
008a81e0   _ZNKSt9exception8_DoraiseEv
008a8200   _ZNSaIcE10deallocateEPcj
008a8220   _ZNSaIcE8allocateEj
008a8240   _ZNSaIcEC1ERKS_
008a8260   _ZNSaIcEC1Ev
008a3f40   _ZNSiD0Ev
008a6300   _ZNSiD1Ev
008a0ba0   _ZNSo12_Sentry_baseC1ERSo
008a8280   _ZNSo12_Sentry_baseC2ERSo
008a0c40   _ZNSo12_Sentry_baseD1Ev
008a82a0   _ZNSo12_Sentry_baseD2Ev
0089f720   _ZNSo3putEc
008a6340   _ZNSo5_OsfxEv
008a25e0   _ZNSo5flushEv
0089f7e0   _ZNSo6sentryC1ERSo
008a82c0   _ZNSo6sentryD1Ev
008a3fa0   _ZNSoD0Ev
008a6380   _ZNSoD1Ev
008a82e0   _ZNSolsEPFRSoS_E
0089a520   _ZNSolsEb
0089a660   _ZNSolsEj
008a63c0   _ZNSs4_EosEj
008ac3f4   _ZNSs4nposE
0089e480   _ZNSs5_CopyEjj
0089f8a0   _ZNSs5_GrowEjb
008a2660   _ZNSs5_TidyEbj
0089e560   _ZNSs5eraseEjj
008a6400   _ZNSs6_MyptrEv
0089f960   _ZNSs6appendEPKcj
0089cfe0   _ZNSs6appendERKSsjj
008a0ce0   _ZNSs6appendEjc
008a6440   _ZNSs6assignEPKc
008a26e0   _ZNSs6assignEPKcj
008a6480   _ZNSs6assignERKSs
0089e640   _ZNSs6assignERKSsjj
0089d0e0   _ZNSs6insertEjjc
008a4000   _ZNSs7_InsideEPKc
008a4060   _ZNSs9_ChassignEjjc
008a64c0   _ZNSsC1EPKc
008a6500   _ZNSsC1Ev
008a8300   _ZNSsD1Ev
008a8320   _ZNSsixEj
008a6540   _ZNSt10ctype_baseC1Ej
008a8340   _ZNSt10ctype_baseC2Ej
008a8360   _ZNSt10ctype_baseD0Ev
008a8380   _ZNSt10ctype_baseD1Ev
008a83a0   _ZNSt10ctype_baseD2Ev
00881a84   _ZNSt10moneypunctIwLb0EE2idE
00881ae8   _ZNSt10moneypunctIwLb1EE2idE
008a83c0   _ZNSt11_String_valIcSaIcEEC1ES0_
008a83e0   _ZNSt11_String_valIcSaIcEEC2ES0_
008a8400   _ZNSt11char_traitsIcE11eq_int_typeERKiS2_
008a8420   _ZNSt11char_traitsIcE11to_int_typeERKc
008a8440   _ZNSt11char_traitsIcE3eofEv
008a8460   _ZNSt11char_traitsIcE4copyEPcPKcj
008a8480   _ZNSt11char_traitsIcE4moveEPcPKcj
008a6580   _ZNSt11char_traitsIcE6assignEPcjc
008a84a0   _ZNSt11char_traitsIcE6assignERcRKc
008a84c0   _ZNSt11char_traitsIcE6lengthEPKc
008a2760   _ZNSt11logic_errorC2ERKSs
008a27e0   _ZNSt11logic_errorD0Ev
008a0d80   _ZNSt11logic_errorD1Ev
008a84e0   _ZNSt12codecvt_baseD0Ev
008a8500   _ZNSt12codecvt_baseD1Ev
008a2860   _ZNSt12length_errorD0Ev
008a0e20   _ZNSt12length_errorD1Ev
008a0ec0   _ZNSt12out_of_rangeC1ERKSs
008a28e0   _ZNSt12out_of_rangeD0Ev
008a0f60   _ZNSt12out_of_rangeD1Ev
008a40c0   _ZNSt13_Complex_baseIfSt16_C_float_complexE4_AddIfEEvRKSt7complexIT_E
00893740   _ZNSt13_Complex_baseIfSt16_C_float_complexE4_DivIfEEvRKSt7complexIT_E
008a1000   _ZNSt13_Complex_baseIfSt16_C_float_complexE4_MulIfEEvRKSt7complexIT_E
008a4120   _ZNSt13_Complex_baseIfSt16_C_float_complexE4_SubIfEEvRKSt7complexIT_E
008a8520   _ZNSt13_Complex_baseIfSt16_C_float_complexE4imagERKf
008a8540   _ZNSt13_Complex_baseIfSt16_C_float_complexE4realERKf
008a65c0   _ZNSt13_Complex_baseIfSt16_C_float_complexEC1ERKfS3_
008a8560   _ZNSt13_Complex_baseIfSt16_C_float_complexEC2ERKfS3_
008a2960   _ZNSt13basic_filebufIcSt11char_traitsIcEE4syncEv
0089fa20   _ZNSt13basic_filebufIcSt11char_traitsIcEE5_InitEPSt4FILENS2_7_InitflE
008a4180   _ZNSt13basic_filebufIcSt11char_traitsIcEE5imbueERKSt6locale
0088c620   _ZNSt13basic_filebufIcSt11char_traitsIcEE5uflowEv
0089a7a0   _ZNSt13basic_filebufIcSt11char_traitsIcEE6setbufEPci
00881aec   _ZNSt13basic_filebufIcSt11char_traitsIcEE7_StinitE
008973a0   _ZNSt13basic_filebufIcSt11char_traitsIcEE7seekoffElNSt5_IosbIiE8_SeekdirENS4_9_OpenmodeE
00897e00   _ZNSt13basic_filebufIcSt11char_traitsIcEE7seekposESt4fposIiENSt5_IosbIiE9_OpenmodeE
0088a840   _ZNSt13basic_filebufIcSt11char_traitsIcEE8overflowEi
0088f140   _ZNSt13basic_filebufIcSt11char_traitsIcEE9_EndwriteEv
00899100   _ZNSt13basic_filebufIcSt11char_traitsIcEE9pbackfailEi
008a10a0   _ZNSt13basic_filebufIcSt11char_traitsIcEE9underflowEv
00899d00   _ZNSt13basic_filebufIcSt11char_traitsIcEED0Ev
0089a8e0   _ZNSt13basic_filebufIcSt11char_traitsIcEED1Ev
008a29e0   _ZNSt13basic_filebufIwSt11char_traitsIwEE4syncEv
00894580   _ZNSt13basic_filebufIwSt11char_traitsIwEE5imbueERKSt6locale
0088ba60   _ZNSt13basic_filebufIwSt11char_traitsIwEE5uflowEv
0089c2c0   _ZNSt13basic_filebufIwSt11char_traitsIwEE6setbufEPwi
00881af0   _ZNSt13basic_filebufIwSt11char_traitsIwEE7_StinitE
00897560   _ZNSt13basic_filebufIwSt11char_traitsIwEE7seekoffElNSt5_IosbIiE8_SeekdirENS4_9_OpenmodeE
00897fa0   _ZNSt13basic_filebufIwSt11char_traitsIwEE7seekposESt4fposIiENSt5_IosbIiE9_OpenmodeE
0088ae60   _ZNSt13basic_filebufIwSt11char_traitsIwEE8overflowEj
0088e700   _ZNSt13basic_filebufIwSt11char_traitsIwEE9_EndwriteEv
00898140   _ZNSt13basic_filebufIwSt11char_traitsIwEE9pbackfailEj
008a1140   _ZNSt13basic_filebufIwSt11char_traitsIwEE9underflowEv
00899e60   _ZNSt13basic_filebufIwSt11char_traitsIwEED0Ev
0089aa20   _ZNSt13basic_filebufIwSt11char_traitsIwEED1Ev
008a41e0   _ZNSt13basic_istreamIwSt11char_traitsIwEED0Ev
008a6600   _ZNSt13basic_istreamIwSt11char_traitsIwEED1Ev
008a4240   _ZNSt13basic_ostreamIwSt11char_traitsIwEED0Ev
008a6640   _ZNSt13basic_ostreamIwSt11char_traitsIwEED1Ev
008a2a60   _ZNSt13runtime_errorD0Ev
008a11e0   _ZNSt13runtime_errorD1Ev
008a8580   _ZNSt15basic_streambufIcSt11char_traitsIcEE4syncEv
008a42a0   _ZNSt15basic_streambufIcSt11char_traitsIcEE5_InitEv
008a85a0   _ZNSt15basic_streambufIcSt11char_traitsIcEE5_LockEv
008a85c0   _ZNSt15basic_streambufIcSt11char_traitsIcEE5imbueERKSt6locale
008a2ae0   _ZNSt15basic_streambufIcSt11char_traitsIcEE5sputcEc
008a6680   _ZNSt15basic_streambufIcSt11char_traitsIcEE5sputnEPKci
008a4300   _ZNSt15basic_streambufIcSt11char_traitsIcEE5uflowEv
008a85e0   _ZNSt15basic_streambufIcSt11char_traitsIcEE6_PnincEv
008a8600   _ZNSt15basic_streambufIcSt11char_traitsIcEE6setbufEPci
0089d1e0   _ZNSt15basic_streambufIcSt11char_traitsIcEE6xsgetnEPci
0089d2e0   _ZNSt15basic_streambufIcSt11char_traitsIcEE6xsputnEPKci
008a8620   _ZNSt15basic_streambufIcSt11char_traitsIcEE7_UnlockEv
008a8640   _ZNSt15basic_streambufIcSt11char_traitsIcEE7pubsyncEv
008a4360   _ZNSt15basic_streambufIcSt11char_traitsIcEE7seekoffElNSt5_IosbIiE8_SeekdirENS4_9_OpenmodeE
008a43c0   _ZNSt15basic_streambufIcSt11char_traitsIcEE7seekposESt4fposIiENSt5_IosbIiE9_OpenmodeE
008a8660   _ZNSt15basic_streambufIcSt11char_traitsIcEE8overflowEi
008a8680   _ZNSt15basic_streambufIcSt11char_traitsIcEE9pbackfailEi
008a86a0   _ZNSt15basic_streambufIcSt11char_traitsIcEE9showmanycEv
008a86c0   _ZNSt15basic_streambufIcSt11char_traitsIcEE9underflowEv
008a4420   _ZNSt15basic_streambufIcSt11char_traitsIcEED0Ev
008a4480   _ZNSt15basic_streambufIcSt11char_traitsIcEED1Ev
008a86e0   _ZNSt15basic_streambufIwSt11char_traitsIwEE4syncEv
008a44e0   _ZNSt15basic_streambufIwSt11char_traitsIwEE5_InitEv
008a8700   _ZNSt15basic_streambufIwSt11char_traitsIwEE5_LockEv
008a8720   _ZNSt15basic_streambufIwSt11char_traitsIwEE5imbueERKSt6locale
008a4540   _ZNSt15basic_streambufIwSt11char_traitsIwEE5uflowEv
008a8740   _ZNSt15basic_streambufIwSt11char_traitsIwEE6setbufEPwi
0089d3e0   _ZNSt15basic_streambufIwSt11char_traitsIwEE6xsgetnEPwi
0089d4e0   _ZNSt15basic_streambufIwSt11char_traitsIwEE6xsputnEPKwi
008a8760   _ZNSt15basic_streambufIwSt11char_traitsIwEE7_UnlockEv
008a45a0   _ZNSt15basic_streambufIwSt11char_traitsIwEE7seekoffElNSt5_IosbIiE8_SeekdirENS4_9_OpenmodeE
008a4600   _ZNSt15basic_streambufIwSt11char_traitsIwEE7seekposESt4fposIiENSt5_IosbIiE9_OpenmodeE
008a8780   _ZNSt15basic_streambufIwSt11char_traitsIwEE8overflowEj
008a87a0   _ZNSt15basic_streambufIwSt11char_traitsIwEE9pbackfailEj
008a87c0   _ZNSt15basic_streambufIwSt11char_traitsIwEE9showmanycEv
008a87e0   _ZNSt15basic_streambufIwSt11char_traitsIwEE9underflowEv
008a4660   _ZNSt15basic_streambufIwSt11char_traitsIwEED0Ev
008a46c0   _ZNSt15basic_streambufIwSt11char_traitsIwEED1Ev
008a66c0   _ZNSt19ostreambuf_iteratorIcSt11char_traitsIcEEC1EPSt15basic_streambufIcS1_E
008a2b60   _ZNSt19ostreambuf_iteratorIcSt11char_traitsIcEEaSEc
008a8800   _ZNSt19ostreambuf_iteratorIcSt11char_traitsIcEEdeEv
008a8820   _ZNSt19ostreambuf_iteratorIcSt11char_traitsIcEEppEv
00881af4   _ZNSt4fposIiE4_StzE
00881a7c   _ZNSt5ctypeIcE2idE
008a8840   _ZNSt5ctypeIcE5_InitERKSt8_Locinfo
008a6700   _ZNSt5ctypeIcE5_TidyEv
008a4720   _ZNSt5ctypeIcE7_GetcatEPPKNSt6locale5facetE
008a1280   _ZNSt5ctypeIcEC1EPKsbj
008a8860   _ZNSt5ctypeIcED0Ev
008a6740   _ZNSt5ctypeIcED1Ev
00881b28   _ZNSt5ctypeIwE2idE
008a4780   _ZNSt5ctypeIwED0Ev
008a47e0   _ZNSt5ctypeIwED1Ev
008afb20   _ZNSt6_Winit9_Init_cntE
00885da0   _ZNSt6_WinitC1Ev
00885da0   _ZNSt6_WinitC2Ev
00892d40   _ZNSt6_WinitD1Ev
00892d40   _ZNSt6_WinitD2Ev
008afa98   _ZNSt6locale2id7_Id_cntE
008a8880   _ZNSt6locale2idC1Ej
008a4840   _ZNSt6locale2idcvjEv
0089c3e0   _ZNSt6locale5_InitEv
008a48a0   _ZNSt6locale5facet7_DecrefEv
008a6780   _ZNSt6locale5facet7_IncrefEv
008a2be0   _ZNSt6locale5facet9_RegisterEv
008a67c0   _ZNSt6locale5facetC1Ej
008a88a0   _ZNSt6locale5facetC2Ej
008a88c0   _ZNSt6locale5facetD0Ev
008a88e0   _ZNSt6locale5facetD1Ev
008a8900   _ZNSt6locale5facetD2Ev
008afa9c   _ZNSt6locale7_Locimp8_ClocptrE
0089e720   _ZNSt6locale7_LocimpC1Eb
0089e720   _ZNSt6locale7_LocimpC2Eb
008a4900   _ZNSt6locale7_LocimpD0Ev
0089ab60   _ZNSt6locale7_LocimpD1Ev
0089ab60   _ZNSt6locale7_LocimpD2Ev
008a6800   _ZNSt6localeC1ERKS_
008a4960   _ZNSt6localeC1Ev
008a4960   _ZNSt6localeC2Ev
008a6840   _ZNSt6localeD1Ev
008a8920   _ZNSt7_LockitC1Ei
008a8940   _ZNSt7_LockitD1Ev
00881af8   _ZNSt7codecvtIcciE2idE
008a8960   _ZNSt7codecvtIcciED0Ev
008a8980   _ZNSt7codecvtIcciED1Ev
00881a78   _ZNSt7codecvtIwciE2idE
008a89a0   _ZNSt7codecvtIwciED0Ev
008a89c0   _ZNSt7codecvtIwciED1Ev
00881afc   _ZNSt7collateIwE2idE
008a89e0   _ZNSt7complexIfEC1ERKfS2_
008a6880   _ZNSt7complexIfEaSERKf
008a49c0   _ZNSt7complexIfEdVERKf
008a8a00   _ZNSt7complexIfEdVIfEERS0_RKS_IT_E
008a8a20   _ZNSt7complexIfEmIIfEERS0_RKS_IT_E
008a8a40   _ZNSt7complexIfEmLIfEERS0_RKS_IT_E
008a8a60   _ZNSt7complexIfEpLIfEERS0_RKS_IT_E
00881b00   _ZNSt7num_getIwSt19istreambuf_iteratorIwSt11char_traitsIwEEE2idE
00881b04   _ZNSt7num_putIcSt19ostreambuf_iteratorIcSt11char_traitsIcEEE2idE
008a8a80   _ZNSt7num_putIcSt19ostreambuf_iteratorIcSt11char_traitsIcEEE5_InitERKSt8_Locinfo
008a68c0   _ZNSt7num_putIcSt19ostreambuf_iteratorIcSt11char_traitsIcEEE7_GetcatEPPKNSt6locale5facetE
008a4a20   _ZNSt7num_putIcSt19ostreambuf_iteratorIcSt11char_traitsIcEEEC1Ej
008a8aa0   _ZNSt7num_putIcSt19ostreambuf_iteratorIcSt11char_traitsIcEEED0Ev
008a8ac0   _ZNSt7num_putIcSt19ostreambuf_iteratorIcSt11char_traitsIcEEED1Ev
00881b08   _ZNSt7num_putIwSt19ostreambuf_iteratorIwSt11char_traitsIwEEE2idE
008a8ae0   _ZNSt8_CtraitsIfE4sqrtEf
008a8b00   _ZNSt8_CtraitsIfE5_InfvEf
008a8b20   _ZNSt8_CtraitsIfE5_NanvEf
008a8b40   _ZNSt8_CtraitsIfE5ldexpEfi
008a8b60   _ZNSt8_CtraitsIfE6_IsinfEf
008a8b80   _ZNSt8_CtraitsIfE6_IsnanEf
0089c500   _ZNSt8_LocinfoC1EPKc
0089c500   _ZNSt8_LocinfoC2EPKc
0089c620   _ZNSt8_LocinfoD1Ev
0089c620   _ZNSt8_LocinfoD2Ev
008afb10   _ZNSt8ios_base4Init9_Init_cntE
008876e0   _ZNSt8ios_base4InitC1Ev
008876e0   _ZNSt8ios_base4InitC2Ev
008a1320   _ZNSt8ios_base4InitD1Ev
008a1320   _ZNSt8ios_base4InitD2Ev
008a13c0   _ZNSt8ios_base5_InitEv
008afadc   _ZNSt8ios_base5_SyncE
008a1460   _ZNSt8ios_base5_TidyEv
0088ec20   _ZNSt8ios_base5clearENSt5_IosbIiE8_IostateEb
008a6900   _ZNSt8ios_base5widthEi
008afad8   _ZNSt8ios_base6_IndexE
008a1500   _ZNSt8ios_base7_AddstdEv
008a2c60   _ZNSt8ios_base7failureD0Ev
008a15a0   _ZNSt8ios_base7failureD1Ev
008a2ce0   _ZNSt8ios_base8_CallfnsENS_5eventE
008a4a80   _ZNSt8ios_baseD0Ev
008a1640   _ZNSt8ios_baseD1Ev
008a1640   _ZNSt8ios_baseD2Ev
00881b0c   _ZNSt8messagesIwE2idE
00881b10   _ZNSt8numpunctIcE2idE
0089aca0   _ZNSt8numpunctIcE5_InitERKSt8_Locinfo
008a6940   _ZNSt8numpunctIcE5_TidyEv
008a6980   _ZNSt8numpunctIcE7_GetcatEPPKNSt6locale5facetE
008a4ae0   _ZNSt8numpunctIcEC1Ej
008a8ba0   _ZNSt8numpunctIcED0Ev
008a69c0   _ZNSt8numpunctIcED1Ev
00881b14   _ZNSt8numpunctIwE2idE
00881b18   _ZNSt8time_getIwSt19istreambuf_iteratorIwSt11char_traitsIwEEE2idE
00881b1c   _ZNSt8time_putIwSt19ostreambuf_iteratorIwSt11char_traitsIwEEE2idE
008af84c   _ZNSt9_FacetptrISt5ctypeIcEE6_PsaveE
008af9c4   _ZNSt9_FacetptrISt5ctypeIwEE6_PsaveE
008afa44   _ZNSt9_FacetptrISt7codecvtIcciEE6_PsaveE
008afaac   _ZNSt9_FacetptrISt7codecvtIwciEE6_PsaveE
008afae4   _ZNSt9_FacetptrISt7num_putIcSt19ostreambuf_iteratorIcSt11char_traitsIcEEEE6_PsaveE
008afaf4   _ZNSt9_FacetptrISt8numpunctIcEE6_PsaveE
00899fc0   _ZNSt9basic_iosIcSt11char_traitsIcEE4initEPSt15basic_streambufIcS1_Eb
008a6a00   _ZNSt9basic_iosIcSt11char_traitsIcEE5clearENSt5_IosbIiE8_IostateEb
008a6a40   _ZNSt9basic_iosIcSt11char_traitsIcEE8setstateENSt5_IosbIiE8_IostateEb
008a4b40   _ZNSt9basic_iosIcSt11char_traitsIcEED0Ev
008a8bc0   _ZNSt9basic_iosIcSt11char_traitsIcEED1Ev
0089a120   _ZNSt9basic_iosIwSt11char_traitsIwEE4initEPSt15basic_streambufIwS1_Eb
008a4ba0   _ZNSt9basic_iosIwSt11char_traitsIwEED0Ev
008a8be0   _ZNSt9basic_iosIwSt11char_traitsIwEED1Ev
008a8c00   _ZNSt9exceptionD0Ev
008a8c20   _ZNSt9exceptionD1Ev
00881b20   _ZNSt9money_getIwSt19istreambuf_iteratorIwSt11char_traitsIwEEE2idE
00881b24   _ZNSt9money_putIwSt19ostreambuf_iteratorIwSt11char_traitsIwEEE2idE
008a8c40   _ZSt10_MaklocchrIcET_cPS0_RKSt7_Cvtvec
008a2d60   _ZSt10_MaklocstrIcEPT_PKcS1_RKSt7_Cvtvec
008a2de0   _ZSt14_Debug_messagePKcS0_
008afb14   _ZSt14_Raise_handler
008a6a80   _ZSt3absIfET_RKSt7complexIS0_E
008a6ac0   _ZSt3absf
00881670   _ZSt3cin
008a6b00   _ZSt3powff
008afae0   _ZSt4_Fpz
00881734   _ZSt4cerr
0088176c   _ZSt4clog
008a6b40   _ZSt4conjIfESt7complexIT_ERKS2_
008816ac   _ZSt4cout
008a4c00   _ZSt4endlIcSt11char_traitsIcEERSt13basic_ostreamIT_T0_ES6_
008a8c80   _ZSt4imagIfET_RKSt7complexIS0_E
008a8ca0   _ZSt4realIfET_RKSt7complexIS0_E
008a8cc0   _ZSt4sqrtf
008814ec   _ZSt4wcin
008939a0   _ZSt5_FabsIfET_RKSt7complexIS0_EPi
00881560   _ZSt5wcerr
00881598   _ZSt5wclog
00881528   _ZSt5wcout
008a6b80   _ZSt6_ThrowRKSt9exception
008ac424   _ZSt7_BADOFF
008a8ce0   _ZSt8_ToloweriPKSt9_Ctypevec
008a8d00   _ZSt8_ToupperiPKSt9_Ctypevec
008a8d20   _ZSt9_AllocateIcEPT_jS1_
0089fae0   _ZSt9use_facetISt5ctypeIcEERKT_RKSt6locale
00899280   _ZSt9use_facetISt5ctypeIwEERKT_RKSt6locale
0089ade0   _ZSt9use_facetISt7codecvtIcciEERKT_RKSt6locale
0089fba0   _ZSt9use_facetISt7num_putIcSt19ostreambuf_iteratorIcSt11char_traitsIcEEEERKT_RKSt6locale
0089fc60   _ZSt9use_facetISt8numpunctIcEERKT_RKSt6locale
008a8d40   _ZStanNSt5_IosbIiE9_FmtflagsES1_
008a6bc0   _ZStdvIfESt7complexIT_ERKS1_RKS2_
008a4c60   _ZStdvIfESt7complexIT_ERKS2_RKS1_
008a6c00   _ZStdvIfESt7complexIT_ERKS2_S4_
00890ee0   _ZStlsISt11char_traitsIcEERSt13basic_ostreamIcT_ES5_PKc
008a6c40   _ZStmiIfESt7complexIT_ERKS2_S4_
008a6c80   _ZStmlIfESt7complexIT_ERKS1_RKS2_
008a6cc0   _ZStmlIfESt7complexIT_ERKS2_S4_
008a6d00   _ZStoRRNSt5_IosbIiE8_IostateES1_
008a6d40   _ZStplIfESt7complexIT_ERKS2_S4_
008aca74   _ZTIN10__cxxabiv117__class_type_infoE
008acb98   _ZTIN10__cxxabiv120__si_class_type_infoE
008acba4   _ZTIN10__cxxabiv121__vmi_class_type_infoE
008accfc   _ZTINSt6locale5facetE
008acbb0   _ZTINSt6locale7_LocimpE
008acbbc   _ZTINSt8ios_base7failureE
008ac864   _ZTISi
008ac87c   _ZTISo
008acbc8   _ZTISt10ctype_base
008acbd4   _ZTISt11logic_error
008acbe0   _ZTISt12codecvt_base
008acbec   _ZTISt12length_error
008acbf8   _ZTISt12out_of_range
008acc04   _ZTISt13basic_filebufIcSt11char_traitsIcEE
008acc10   _ZTISt13basic_filebufIwSt11char_traitsIwEE
008ac894   _ZTISt13basic_istreamIwSt11char_traitsIwEE
008ac8ac   _ZTISt13basic_ostreamIwSt11char_traitsIwEE
008acc1c   _ZTISt13runtime_error
008acd04   _ZTISt15basic_streambufIcSt11char_traitsIcEE
008acd0c   _ZTISt15basic_streambufIwSt11char_traitsIwEE
008acd14   _ZTISt5_IosbIiE
008acc28   _ZTISt5ctypeIcE
008acc34   _ZTISt5ctypeIwE
008acc40   _ZTISt7codecvtIcciE
008acc4c   _ZTISt7codecvtIwciE
008acc58   _ZTISt7num_putIcSt19ostreambuf_iteratorIcSt11char_traitsIcEEE
008acc64   _ZTISt8ios_base
008acc70   _ZTISt8numpunctIcE
008acc7c   _ZTISt9basic_iosIcSt11char_traitsIcEE
008acc88   _ZTISt9basic_iosIwSt11char_traitsIwEE
008acd1c   _ZTISt9exception
008acd24   _ZTISt9type_info
008ac6d8   _ZTSN10__cxxabiv117__class_type_infoE
008ac5d0   _ZTSN10__cxxabiv120__si_class_type_infoE
008ac5a8   _ZTSN10__cxxabiv121__vmi_class_type_infoE
008aca00   _ZTSNSt6locale5facetE
008ac9e8   _ZTSNSt6locale7_LocimpE
008ac9b8   _ZTSNSt8ios_base7failureE
008acf50   _ZTSSi
008acf58   _ZTSSo
008acb58   _ZTSSt10ctype_base
008aca98   _ZTSSt11logic_error
008aca30   _ZTSSt12codecvt_base
008aca48   _ZTSSt12length_error
008aca60   _ZTSSt12out_of_range
008ac508   _ZTSSt13basic_filebufIcSt11char_traitsIcEE
008ac530   _ZTSSt13basic_filebufIwSt11char_traitsIwEE
008ac558   _ZTSSt13basic_istreamIwSt11char_traitsIwEE
008ac580   _ZTSSt13basic_ostreamIwSt11char_traitsIwEE
008aca18   _ZTSSt13runtime_error
008ac458   _ZTSSt15basic_streambufIcSt11char_traitsIcEE
008ac488   _ZTSSt15basic_streambufIwSt11char_traitsIwEE
008acc98   _ZTSSt5_IosbIiE
008acca8   _ZTSSt5ctypeIcE
008accb8   _ZTSSt5ctypeIwE
008acaa8   _ZTSSt7codecvtIcciE
008acab8   _ZTSSt7codecvtIwciE
008ac1d8   _ZTSSt7num_putIcSt19ostreambuf_iteratorIcSt11char_traitsIcEEE
008accc8   _ZTSSt8ios_base
008acb68   _ZTSSt8numpunctIcE
008ac700   _ZTSSt9basic_iosIcSt11char_traitsIcEE
008ac728   _ZTSSt9basic_iosIwSt11char_traitsIwEE
008acb78   _ZTSSt9exception
008acb88   _ZTSSt9type_info
008ac2a0   _ZTTSi
008ac2d0   _ZTTSo
008ac300   _ZTTSt13basic_istreamIwSt11char_traitsIwEE
008ac330   _ZTTSt13basic_ostreamIwSt11char_traitsIwEE
008acac8   _ZTVN10__cxxabiv117__class_type_infoE
008acad8   _ZTVN10__cxxabiv120__si_class_type_infoE
008acae8   _ZTVN10__cxxabiv121__vmi_class_type_infoE
008acaf8   _ZTVNSt6locale5facetE
008acb08   _ZTVNSt6locale7_LocimpE
008ac8c8   _ZTVNSt8ios_base7failureE
008ac278   _ZTVSi
008ac2a8   _ZTVSo
008acb18   _ZTVSt10ctype_base
008ac8e0   _ZTVSt11logic_error
008ac830   _ZTVSt12codecvt_base
008ac8f8   _ZTVSt12length_error
008ac910   _ZTVSt12out_of_range
008abff8   _ZTVSt13basic_filebufIcSt11char_traitsIcEE
008ac040   _ZTVSt13basic_filebufIwSt11char_traitsIwEE
008ac2d8   _ZTVSt13basic_istreamIwSt11char_traitsIwEE
008ac308   _ZTVSt13basic_ostreamIwSt11char_traitsIwEE
008ac928   _ZTVSt13runtime_error
008ac088   _ZTVSt15basic_streambufIcSt11char_traitsIcEE
008ac0d0   _ZTVSt15basic_streambufIwSt11char_traitsIwEE
008ac338   _ZTVSt5ctypeIcE
008ac158   _ZTVSt5ctypeIwE
008ac3f8   _ZTVSt7codecvtIcciE
008ac428   _ZTVSt7codecvtIwciE
008ac368   _ZTVSt7num_putIcSt19ostreambuf_iteratorIcSt11char_traitsIcEEE
008acb28   _ZTVSt8ios_base
008ac620   _ZTVSt8numpunctIcE
008acb38   _ZTVSt9basic_iosIcSt11char_traitsIcEE
008acb48   _ZTVSt9basic_iosIwSt11char_traitsIwEE
008ac940   _ZTVSt9exception
008a4cc0   _ZTv0_n12_NSiD0Ev
008a6d80   _ZTv0_n12_NSiD1Ev
008a4d20   _ZTv0_n12_NSoD0Ev
008a6dc0   _ZTv0_n12_NSoD1Ev
008a4d80   _ZTv0_n12_NSt13basic_istreamIwSt11char_traitsIwEED0Ev
008a6e00   _ZTv0_n12_NSt13basic_istreamIwSt11char_traitsIwEED1Ev
008a4de0   _ZTv0_n12_NSt13basic_ostreamIwSt11char_traitsIwEED0Ev
008a6e40   _ZTv0_n12_NSt13basic_ostreamIwSt11char_traitsIwEED1Ev
008acf60   _ZZNKSt7num_putIcSt19ostreambuf_iteratorIcSt11char_traitsIcEEE5_FputES3_RSt8ios_basecPKcjjjjEs
008acf68   _ZZNKSt7num_putIcSt19ostreambuf_iteratorIcSt11char_traitsIcEEE5_FputES3_RSt8ios_basecPKcjjjjEs_0
008acf28   _ZZNKSt7num_putIcSt19ostreambuf_iteratorIcSt11char_traitsIcEEE6do_putES3_RSt8ios_basecPKvEs
008acf30   _ZZNKSt7num_putIcSt19ostreambuf_iteratorIcSt11char_traitsIcEEE6do_putES3_RSt8ios_baseclEs
008acf38   _ZZNKSt7num_putIcSt19ostreambuf_iteratorIcSt11char_traitsIcEEE6do_putES3_RSt8ios_basecmEs
008acf40   _ZZNKSt7num_putIcSt19ostreambuf_iteratorIcSt11char_traitsIcEEE6do_putES3_RSt8ios_basecxEs
008acf48   _ZZNKSt7num_putIcSt19ostreambuf_iteratorIcSt11char_traitsIcEEE6do_putES3_RSt8ios_basecyEs
008acd68   _ZZNKSt8_Locinfo8_GettrueEvEs
008acd60   _ZZNKSt8_Locinfo9_GetfalseEvEs
008a8d60   _ZdaPv
008a8d60   _ZdlPv
0089fd20   _Znaj
0089fd20   _Znwj
008a8d80   _ZnwjPv
00800000   __ASM__
008afe00   __CIOBUF_
008a4e40   __FDtest
00800058   __ISA__
00800070   __PLAT__
00800098   __TARG__
008b0598   __TI_CINIT_Base
008b05d0   __TI_CINIT_Limit
008b0574   __TI_Handler_Table_Base
008b0580   __TI_Handler_Table_Limit
008afb34   __TI_INITARRAY_Base
008afb7c   __TI_INITARRAY_Limit
008aef70   __TI_STACK_END
00002000   __TI_STACK_SIZE
008afb80   __TI_STATIC_BASE
00000001   __TI_args_main
0089af20   __TI_buff_read
008a16e0   __TI_cleanup
008afacc   __TI_cleanup_ptr
0089b060   __TI_closefile
008a8fc0   __TI_decompress_none
008a8fe0   __TI_decompress_rle24
0089fde0   __TI_doflush
008afad0   __TI_dtors_ptr
008afad4   __TI_enable_exit_profile_output
008a4ea0   __TI_frcmpyd_div
008afb04   __TI_ft_end
ffffffff   __TI_pprof_out_hndl
0088ffe0   __TI_printfi
ffffffff   __TI_prof_data_size
ffffffff   __TI_prof_data_start
0089fea0   __TI_rd_ok
008a2e60   __TI_readmsg
00881938   __TI_tmpnams
008a2ee0   __TI_writemsg
0089d5e0   __TI_wrt_ok
0089eb80   __TI_zero_init
008000c0   __TRDR__
ffffffff   __binit__
0088b460   __c6xabi_divd
00892fc0   __c6xabi_divf
0089e8e0   __c6xabi_divi
0089ff60   __c6xabi_divu
00896c60   __c6xabi_divul
008947c0   __c6xabi_divull
008a8da0   __c6xabi_errno_addr
008a2f60   __c6xabi_fixfu
008a6e80   __c6xabi_isinf
008a2fe0   __c6xabi_llshl
008a4f00   __c6xabi_llshru
008a0020   __c6xabi_remi
008a1780   __c6xabi_remu
008a3060   __c6xabi_roundf
008a8dc0   __c6xabi_truncf
ffffffff   __c_args__
008a8de0   __cxa_atexit
0089e800   __cxa_finalize
008a8e00   __cxa_guard_acquire
008a8e20   __cxa_guard_release
008a8e40   __cxa_ia64_exit
008a4f60   __cxa_vec_ctor
008a4fc0   __cxa_vec_new
0089e8e0   __divi
0089ff60   __divu
008afb94   __dso_handle
008afb0c   __errno
008a8e60   __memzero
008a0020   __remi
008a1780   __remu
008a5020   __sti___11_locale0_cpp_36e19383
0088f640   __sti___11_wlocale_cpp_3b9bd5f7
00893240   __sti___12_iostream_cpp_b004430c
00895c00   __sti___12_wiostrea_cpp_9fa80e7a
00895048   __sti___13_lteSystem_cpp_g_nUsers
00884570   __sti___17_blasFunctions_cpp_8614878c
00883050   __sti___17_dynamicMemory_cpp_f848a02c
0088766c   __sti___18_pipdScheduling_cpp_a1e6c5a3
00885338   __sti___19_lapackFunctions_cpp_4deb6974
0088d110   __sti___20_displayFunctions_cpp_dbd75e48
008907b4   __sti___20_greedyScheduling_cpp_b8e1509e
0089968c   __sti___20_memoryManagement_cpp_bbe36996
008936e4   __sti___20_randomScheduling_cpp_1a9b9836
00885d30   __sti___22_frameworkFunctions_cpp_ce0052a8
008a01a0   __sti___22_globalDeclarations_cpp_286f88f8
008885a4   __sti___22_succprojScheduling_cpp_87bf4a20
0088e688   __sti___23_supportingFunctions_cpp_fd751b3a
0089da6c   __sti___24_schedulingAlgorithms_cpp_fc6d3ca0
008a8e80   __xdc__init
008af16c   __xdc__init__addr
008a6f00   _args_main
00000000   _argsize
0089b1a0   _auto_init_elf
008a1820   _c_int00
008abce0   _ctypes_
008af170   _ftable
008afafc   _lock
008afb1c   _new_handler
008a8ea0   _nop
008a8f20   _register_lock
008a8f40   _register_unlock
008acf70   _stack
008a5080   _subcull
008afb00   _unlock
008a8f80   abort
008a8fa0   atexit
0089d8e0   atoi
ffffffff   binit
008afbb8   bufferHeap
008a51a0   calloc
00894eec   channelUpdate
008afba0   clock0
008afba4   clock1
0089ef6c   clockISRA
0089efa0   clockISRB
0089eaa0   close
00895020   displaySchedulerInfo
008817a4   dlConfig
008afb90   dynamicMemory
008afb0c   errno
008a00e0   exit
008a3160   fclose
0089b2e0   fflush
0089b420   fgetc
008a5200   fgetpos
008a9000   fgetwc
00895e20   fputc
00890820   fputs
008a9020   fputwc
008a6fc0   free
008982e0   frexpf
0089c740   fseek
008a9040   fsetpos
0089c860   ftell
0088fb40   fwrite
008afb9c   g_nReceive
008afb9e   g_nSchedBlocks
008afb9a   g_nTransmit
008afb98   g_nUsers
0c07fff8   globalChannelMatrix
00899400   ldexpf
008a9060   localeconv
008a5260   lseek
00894e80   lteSystemInit
0089ec60   ltoa
0089ef00   main
008a3260   malloc
008a7000   mbrtowc
008a7040   mbtowc
008a52c0   memccpy
008a5320   memchr
008a1aa0   memcpy
008a5380   memmove
0089ed40   memset
008a53e0   modff
00889b60   powf
0089ee20   printf
008a32e0   rand
008afbb4   reInitSystem
008a5440   read
008a37e0   remove
00894fc4   schedulingForCurrentSF
008a54a0   setlocale
008950c0   setvbuf
008a5500   sprintf
0089c980   sqrtf
008a5560   strcmp
008a55c0   strcspn
008a7080   strlen
008afba8   swiHandleA
008afbac   swiHandleB
00881928   sysConfig
008afbb0   task0
008aef70   ti_sysbios_BIOS_Module__state__V
008a9080   ti_sysbios_BIOS_RtsGateProxy_enter__E
008a90a0   ti_sysbios_BIOS_RtsGateProxy_leave__E
008a92c0   ti_sysbios_BIOS_RtsGateProxy_query__E
008a5620   ti_sysbios_BIOS_atExitFunc__I
008a5680   ti_sysbios_BIOS_errorRaiseHook__I
008a70c0   ti_sysbios_BIOS_exitFunc__I
008a90c0   ti_sysbios_BIOS_nullFunc__I
008a56e0   ti_sysbios_BIOS_registerRTSLock__I
008a5740   ti_sysbios_BIOS_removeRTSLock__I
008a7100   ti_sysbios_BIOS_rtsLock__I
008a57a0   ti_sysbios_BIOS_rtsUnlock__I
008a90e0   ti_sysbios_BIOS_setThreadType__E
008a7140   ti_sysbios_BIOS_startFunc__I
008a9100   ti_sysbios_BIOS_start__E
008a9120   ti_sysbios_family_c62_TaskSupport_Module__startupDone__S
008a6f80   ti_sysbios_family_c62_TaskSupport_buildTaskStack
008a9140   ti_sysbios_family_c62_TaskSupport_checkStack__E
008a8f60   ti_sysbios_family_c62_TaskSupport_glue
008a3360   ti_sysbios_family_c62_TaskSupport_start__E
008a30e0   ti_sysbios_family_c62_TaskSupport_swap__E
008ac454   ti_sysbios_family_c64p_Exception_E_exceptionMax__C
008aae06   ti_sysbios_family_c64p_Exception_Module__id__C
008aef94   ti_sysbios_family_c64p_Exception_Module__state__V
008a1b40   ti_sysbios_family_c64p_Exception_Module_startup__E
00899700   ti_sysbios_family_c64p_Exception_dispatch__E
008ac484   ti_sysbios_family_c64p_Exception_exceptionHook__C
008ac504   ti_sysbios_family_c64p_Exception_externalHook__C
00888600   ti_sysbios_family_c64p_Exception_handler__I
00895300   ti_sysbios_family_c64p_Exception_internalHandler__I
008ac61c   ti_sysbios_family_c64p_Exception_internalHook__C
008ac6d4   ti_sysbios_family_c64p_Exception_nmiHook__C
008abb72   ti_sysbios_family_c64p_Exception_useInternalBuffer__C
008afc00   ti_sysbios_family_c64p_Hwi0
008ac6fc   ti_sysbios_family_c64p_Hwi_LD_end__C
008ac724   ti_sysbios_family_c64p_Hwi_LM_begin__C
008ac82c   ti_sysbios_family_c64p_Hwi_Module__diagsEnabled__C
008ac8c4   ti_sysbios_family_c64p_Hwi_Module__diagsIncluded__C
008ac9e4   ti_sysbios_family_c64p_Hwi_Module__diagsMask__C
008abde2   ti_sysbios_family_c64p_Hwi_Module__id__C
008ac212   ti_sysbios_family_c64p_Hwi_Module__loggerDefined__C
008ac9fc   ti_sysbios_family_c64p_Hwi_Module__loggerFxn1__C
008aca14   ti_sysbios_family_c64p_Hwi_Module__loggerFxn8__C
008aca2c   ti_sysbios_family_c64p_Hwi_Module__loggerObj__C
008aefc4   ti_sysbios_family_c64p_Hwi_Module__root__V
008a7180   ti_sysbios_family_c64p_Hwi_Module__startupDone__F
008a7180   ti_sysbios_family_c64p_Hwi_Module__startupDone__S
008aefcc   ti_sysbios_family_c64p_Hwi_Module__state__V
0089b6a0   ti_sysbios_family_c64p_Hwi_Module_startup__E
008afa68   ti_sysbios_family_c64p_Hwi_Object__table__V
008a9160   ti_sysbios_family_c64p_Hwi_clearInterrupt__E
008a71c0   ti_sysbios_family_c64p_Hwi_disableInterrupt__E
00896680   ti_sysbios_family_c64p_Hwi_dispatchAlways
008a33e0   ti_sysbios_family_c64p_Hwi_dispatchC__I
00893e60   ti_sysbios_family_c64p_Hwi_dispatchCore__I
008a7200   ti_sysbios_family_c64p_Hwi_enableInterrupt__E
008a3460   ti_sysbios_family_c64p_Hwi_getStackInfo__E
008afc00   ti_sysbios_family_c64p_Hwi_int0
008afc20   ti_sysbios_family_c64p_Hwi_int1
008afd40   ti_sysbios_family_c64p_Hwi_int10
008afd60   ti_sysbios_family_c64p_Hwi_int11
008afd80   ti_sysbios_family_c64p_Hwi_int12
008afda0   ti_sysbios_family_c64p_Hwi_int13
008afdc0   ti_sysbios_family_c64p_Hwi_int14
008afde0   ti_sysbios_family_c64p_Hwi_int15
008afc40   ti_sysbios_family_c64p_Hwi_int2
008afc60   ti_sysbios_family_c64p_Hwi_int3
008afc80   ti_sysbios_family_c64p_Hwi_int4
008afca0   ti_sysbios_family_c64p_Hwi_int5
008afcc0   ti_sysbios_family_c64p_Hwi_int6
008afce0   ti_sysbios_family_c64p_Hwi_int7
008afd00   ti_sysbios_family_c64p_Hwi_int8
008afd20   ti_sysbios_family_c64p_Hwi_int9
008a9180   ti_sysbios_family_c64p_Hwi_startup__E
008a50e0   ti_sysbios_family_c64p_Hwi_switchAndDispatch__I
008a91a0   ti_sysbios_family_c64p_Hwi_switchFromBootStack__E
008a91c0   ti_sysbios_family_c64p_TimestampProvider_Module_startup__E
008a91e0   ti_sysbios_family_c64p_TimestampProvider_get64__E
008a9200   ti_sysbios_family_c64p_tci6488_TimerSupport_enable__E
0089b7e0   ti_sysbios_family_c66_Cache_Module_startup__E
008accd4   ti_sysbios_family_c66_Cache_initSize__C
008ab320   ti_sysbios_family_c66_Cache_marvalues__C
008a5140   ti_sysbios_family_xxx_Hwi_switchAndRunFunc
008a7240   ti_sysbios_gates_GateHwi_Handle__label__S
008a9220   ti_sysbios_gates_GateHwi_Instance_init__E
008ac644   ti_sysbios_gates_GateHwi_Module__FXNS__C
008af034   ti_sysbios_gates_GateHwi_Module__root__V
008ac76c   ti_sysbios_gates_GateHwi_Object__DESC__C
008ac958   ti_sysbios_gates_GateHwi_Object__PARAMS__C
008a5800   ti_sysbios_gates_GateHwi_Object__create__S
008a7280   ti_sysbios_gates_GateHwi_Object__delete__S
008afb28   ti_sysbios_gates_GateHwi_Object__table__V
008a9240   ti_sysbios_gates_GateHwi_enter__E
008a9260   ti_sysbios_gates_GateHwi_leave__E
008a9280   ti_sysbios_gates_GateHwi_query__E
008aca44   ti_sysbios_gates_GateMutex_A_badContext__C
008a72c0   ti_sysbios_gates_GateMutex_Handle__label__S
008aca5c   ti_sysbios_gates_GateMutex_Instance_State_sem__O
008a92a0   ti_sysbios_gates_GateMutex_Instance_finalize__E
008a7300   ti_sysbios_gates_GateMutex_Instance_init__E
008ac668   ti_sysbios_gates_GateMutex_Module__FXNS__C
008aca94   ti_sysbios_gates_GateMutex_Module__diagsEnabled__C
008acc94   ti_sysbios_gates_GateMutex_Module__diagsIncluded__C
008acca4   ti_sysbios_gates_GateMutex_Module__diagsMask__C
008ac482   ti_sysbios_gates_GateMutex_Module__id__C
008af03c   ti_sysbios_gates_GateMutex_Module__root__V
008ac78c   ti_sysbios_gates_GateMutex_Object__DESC__C
008ac970   ti_sysbios_gates_GateMutex_Object__PARAMS__C
008a5860   ti_sysbios_gates_GateMutex_Object__create__S
008a7340   ti_sysbios_gates_GateMutex_Object__delete__S
008af850   ti_sysbios_gates_GateMutex_Object__table__V
00898480   ti_sysbios_gates_GateMutex_enter__E
008a7380   ti_sysbios_gates_GateMutex_leave__E
008a92c0   ti_sysbios_gates_GateMutex_query__E
008accb4   ti_sysbios_hal_Hwi_E_stackOverflow__C
008a92e0   ti_sysbios_hal_Hwi_HwiProxy_Module__startupDone__S
008a9160   ti_sysbios_hal_Hwi_HwiProxy_clearInterrupt__E
008a71c0   ti_sysbios_hal_Hwi_HwiProxy_disableInterrupt__E
008a7200   ti_sysbios_hal_Hwi_HwiProxy_enableInterrupt__E
008a3460   ti_sysbios_hal_Hwi_HwiProxy_getStackInfo__E
008a9180   ti_sysbios_hal_Hwi_HwiProxy_startup__E
008a91a0   ti_sysbios_hal_Hwi_HwiProxy_switchFromBootStack__E
008ac4b2   ti_sysbios_hal_Hwi_Module__id__C
008af044   ti_sysbios_hal_Hwi_Module__root__V
008a9300   ti_sysbios_hal_Hwi_Module_startup__E
00881b48   ti_sysbios_hal_Hwi_Object__table__V
008a34e0   ti_sysbios_hal_Hwi_checkStack
008a3560   ti_sysbios_hal_Hwi_initStack
008accc4   ti_sysbios_heaps_HeapMem_A_align__C
008acd34   ti_sysbios_heaps_HeapMem_A_heapSize__C
008acd70   ti_sysbios_heaps_HeapMem_A_invalidFree__C
008acd74   ti_sysbios_heaps_HeapMem_A_zeroBlock__C
008acd78   ti_sysbios_heaps_HeapMem_E_memory__C
008a73c0   ti_sysbios_heaps_HeapMem_Handle__label__S
0c000000   ti_sysbios_heaps_HeapMem_Instance_State_0_buf__A
00800000   ti_sysbios_heaps_HeapMem_Instance_State_1_buf__A
008911e0   ti_sysbios_heaps_HeapMem_Instance_init__E
008a9320   ti_sysbios_heaps_HeapMem_Module_GateProxy_enter__E
008a9340   ti_sysbios_heaps_HeapMem_Module_GateProxy_leave__E
008a92c0   ti_sysbios_heaps_HeapMem_Module_GateProxy_query__E
008ac4b4   ti_sysbios_heaps_HeapMem_Module__FXNS__C
008acd7c   ti_sysbios_heaps_HeapMem_Module__diagsEnabled__C
008acd80   ti_sysbios_heaps_HeapMem_Module__diagsIncluded__C
008acd84   ti_sysbios_heaps_HeapMem_Module__diagsMask__C
008acd88   ti_sysbios_heaps_HeapMem_Module__gateObj__C
008ac5ce   ti_sysbios_heaps_HeapMem_Module__id__C
008af04c   ti_sysbios_heaps_HeapMem_Module__root__V
008ac7ac   ti_sysbios_heaps_HeapMem_Object__DESC__C
008ac68c   ti_sysbios_heaps_HeapMem_Object__PARAMS__C
008acd8c   ti_sysbios_heaps_HeapMem_Object__count__C
008a58c0   ti_sysbios_heaps_HeapMem_Object__create__S
008a7400   ti_sysbios_heaps_HeapMem_Object__delete__S
008a7440   ti_sysbios_heaps_HeapMem_Object__get__S
008af9c8   ti_sysbios_heaps_HeapMem_Object__table__V
0088a1e0   ti_sysbios_heaps_HeapMem_alloc__E
0088c040   ti_sysbios_heaps_HeapMem_free__E
008a0260   ti_sysbios_heaps_HeapMem_getStats__E
008a1be0   ti_sysbios_heaps_HeapMem_init__I
008a9360   ti_sysbios_heaps_HeapMem_isBlocking__E
008acd90   ti_sysbios_heaps_HeapMem_reqAlign__C
008acd94   ti_sysbios_knl_Clock_LM_begin__C
008acd98   ti_sysbios_knl_Clock_LM_tick__C
008acd9c   ti_sysbios_knl_Clock_LW_delayed__C
008acda0   ti_sysbios_knl_Clock_Module_State_clockQ__O
008acda4   ti_sysbios_knl_Clock_Module__diagsEnabled__C
008acda8   ti_sysbios_knl_Clock_Module__diagsIncluded__C
008acdac   ti_sysbios_knl_Clock_Module__diagsMask__C
008ac5f6   ti_sysbios_knl_Clock_Module__id__C
008ac6fa   ti_sysbios_knl_Clock_Module__loggerDefined__C
008acdb0   ti_sysbios_knl_Clock_Module__loggerFxn1__C
008acdb4   ti_sysbios_knl_Clock_Module__loggerFxn2__C
008acdb8   ti_sysbios_knl_Clock_Module__loggerObj__C
008af054   ti_sysbios_knl_Clock_Module__root__V
008af05c   ti_sysbios_knl_Clock_Module__state__V
008a5920   ti_sysbios_knl_Clock_Module_startup__E
008af890   ti_sysbios_knl_Clock_Object__table__V
008a9380   ti_sysbios_knl_Clock_TimerProxy_Module__startupDone__S
008a93a0   ti_sysbios_knl_Clock_TimerProxy_getMaxTicks__E
0089f0c0   ti_sysbios_knl_Clock_TimerProxy_startup__E
008a5980   ti_sysbios_knl_Clock_doTick__I
008a93c0   ti_sysbios_knl_Clock_getTicks__E
008a0320   ti_sysbios_knl_Clock_logTick__E
00892aa0   ti_sysbios_knl_Clock_workFunc__E
008acd38   ti_sysbios_knl_Idle_funcList__A
008acd40   ti_sysbios_knl_Idle_funcList__C
008a93e0   ti_sysbios_knl_Idle_loop__E
008a35e0   ti_sysbios_knl_Idle_run__E
008a9400   ti_sysbios_knl_Queue_Instance_init__E
008af088   ti_sysbios_knl_Queue_Module__root__V
008ac7cc   ti_sysbios_knl_Queue_Object__DESC__C
008ac988   ti_sysbios_knl_Queue_Object__PARAMS__C
008a7480   ti_sysbios_knl_Queue_Object__destruct__S
008a9420   ti_sysbios_knl_Queue_Object__get__S
008a59e0   ti_sysbios_knl_Queue_construct
008a9440   ti_sysbios_knl_Queue_destruct
008a9460   ti_sysbios_knl_Queue_empty__E
008acdbc   ti_sysbios_knl_Semaphore_A_badContext__C
008acdc0   ti_sysbios_knl_Semaphore_A_noEvents__C
008acdc4   ti_sysbios_knl_Semaphore_A_overflow__C
008acdc8   ti_sysbios_knl_Semaphore_A_pendTaskDisabled__C
008acdcc   ti_sysbios_knl_Semaphore_Instance_State_pendQ__O
008a9480   ti_sysbios_knl_Semaphore_Instance_finalize__E
0089b920   ti_sysbios_knl_Semaphore_Instance_init__E
008acdd0   ti_sysbios_knl_Semaphore_LM_pend__C
008acdd4   ti_sysbios_knl_Semaphore_LM_post__C
008acdd8   ti_sysbios_knl_Semaphore_Module__diagsEnabled__C
008acddc   ti_sysbios_knl_Semaphore_Module__diagsIncluded__C
008acde0   ti_sysbios_knl_Semaphore_Module__diagsMask__C
008ac722   ti_sysbios_knl_Semaphore_Module__id__C
008ac74a   ti_sysbios_knl_Semaphore_Module__loggerDefined__C
008acde4   ti_sysbios_knl_Semaphore_Module__loggerFxn2__C
008acde8   ti_sysbios_knl_Semaphore_Module__loggerFxn4__C
008acdec   ti_sysbios_knl_Semaphore_Module__loggerObj__C
008af090   ti_sysbios_knl_Semaphore_Module__root__V
008ac7ec   ti_sysbios_knl_Semaphore_Object__DESC__C
008ac6b0   ti_sysbios_knl_Semaphore_Object__PARAMS__C
008a74c0   ti_sysbios_knl_Semaphore_Object__destruct__S
008afa80   ti_sysbios_knl_Semaphore_Object__table__V
008a5a40   ti_sysbios_knl_Semaphore_construct
008a94a0   ti_sysbios_knl_Semaphore_destruct
008a5aa0   ti_sysbios_knl_Semaphore_pendTimeout__I
00888d80   ti_sysbios_knl_Semaphore_pend__E
00895540   ti_sysbios_knl_Semaphore_post__E
008acdf0   ti_sysbios_knl_Swi_LD_end__C
008acdf4   ti_sysbios_knl_Swi_LM_begin__C
008acdf8   ti_sysbios_knl_Swi_LM_post__C
008af5d8   ti_sysbios_knl_Swi_Module_State_0_readyQ__A
008acdfc   ti_sysbios_knl_Swi_Module__diagsEnabled__C
008ace00   ti_sysbios_knl_Swi_Module__diagsIncluded__C
008ace04   ti_sysbios_knl_Swi_Module__diagsMask__C
008ac9ce   ti_sysbios_knl_Swi_Module__id__C
008aca12   ti_sysbios_knl_Swi_Module__loggerDefined__C
008ace08   ti_sysbios_knl_Swi_Module__loggerFxn1__C
008ace0c   ti_sysbios_knl_Swi_Module__loggerFxn4__C
008ace10   ti_sysbios_knl_Swi_Module__loggerObj__C
008af098   ti_sysbios_knl_Swi_Module__root__V
008af0a0   ti_sysbios_knl_Swi_Module__state__V
008a5b00   ti_sysbios_knl_Swi_Module_startup__E
008ace14   ti_sysbios_knl_Swi_Object__count__C
008a7500   ti_sysbios_knl_Swi_Object__get__S
008af548   ti_sysbios_knl_Swi_Object__table__V
008a94c0   ti_sysbios_knl_Swi_disable__E
0089ba60   ti_sysbios_knl_Swi_post__E
0089dae0   ti_sysbios_knl_Swi_restoreHwi__E
0089efe0   ti_sysbios_knl_Swi_runLoop__I
00896040   ti_sysbios_knl_Swi_run__I
008a03e0   ti_sysbios_knl_Swi_schedule__I
008a3660   ti_sysbios_knl_Swi_startup__E
008ace18   ti_sysbios_knl_Task_E_spOutOfBounds__C
008ace1c   ti_sysbios_knl_Task_E_stackOverflow__C
008803f8   ti_sysbios_knl_Task_Instance_State_0_stack__A
00880bf8   ti_sysbios_knl_Task_Instance_State_1_stack__A
008ace20   ti_sysbios_knl_Task_LD_block__C
008ace24   ti_sysbios_knl_Task_LD_exit__C
008ace28   ti_sysbios_knl_Task_LD_ready__C
008ace2c   ti_sysbios_knl_Task_LM_switch__C
008afb30   ti_sysbios_knl_Task_Module_State_0_idleTask__A
008af658   ti_sysbios_knl_Task_Module_State_0_readyQ__A
008ace30   ti_sysbios_knl_Task_Module_State_inactiveQ__O
008ace34   ti_sysbios_knl_Task_Module__diagsEnabled__C
008ace38   ti_sysbios_knl_Task_Module__diagsIncluded__C
008ace3c   ti_sysbios_knl_Task_Module__diagsMask__C
008aca2a   ti_sysbios_knl_Task_Module__id__C
008aca42   ti_sysbios_knl_Task_Module__loggerDefined__C
008ace40   ti_sysbios_knl_Task_Module__loggerFxn2__C
008ace44   ti_sysbios_knl_Task_Module__loggerFxn4__C
008ace48   ti_sysbios_knl_Task_Module__loggerObj__C
008af0bc   ti_sysbios_knl_Task_Module__root__V
008af0c4   ti_sysbios_knl_Task_Module__state__V
008914c0   ti_sysbios_knl_Task_Module_startup__E
008ace4c   ti_sysbios_knl_Task_Object__count__C
008a7540   ti_sysbios_knl_Task_Object__get__S
008af4b0   ti_sysbios_knl_Task_Object__table__V
008a94e0   ti_sysbios_knl_Task_SupportProxy_Module__startupDone__S
008a9140   ti_sysbios_knl_Task_SupportProxy_checkStack__E
008a3360   ti_sysbios_knl_Task_SupportProxy_start__E
008a30e0   ti_sysbios_knl_Task_SupportProxy_swap__E
008ace50   ti_sysbios_knl_Task_allBlockedFunc__C
008a04a0   ti_sysbios_knl_Task_allBlockedFunction__I
0089bba0   ti_sysbios_knl_Task_blockI__E
008978e0   ti_sysbios_knl_Task_checkStacks__E
008a9500   ti_sysbios_knl_Task_disable__E
008a5b60   ti_sysbios_knl_Task_enter__I
00899880   ti_sysbios_knl_Task_exit__E
008aca5a   ti_sysbios_knl_Task_initStackFlag__C
008ace54   ti_sysbios_knl_Task_numConstructedTasks__C
008a36e0   ti_sysbios_knl_Task_restore__E
00898620   ti_sysbios_knl_Task_schedule__I
00899a00   ti_sysbios_knl_Task_startCore__E
008a9520   ti_sysbios_knl_Task_startup__E
0089dbe0   ti_sysbios_knl_Task_unblockI__E
008ace58   ti_sysbios_timers_timer64_Timer_A_notAvailable__C
008ace5c   ti_sysbios_timers_timer64_Timer_E_cannotSupport__C
008af350   ti_sysbios_timers_timer64_Timer_Module_State_0_device__A
008af8d0   ti_sysbios_timers_timer64_Timer_Module_State_0_gctrl__A
008af910   ti_sysbios_timers_timer64_Timer_Module_State_0_handles__A
008af950   ti_sysbios_timers_timer64_Timer_Module_State_0_intFreqs__A
008ace60   ti_sysbios_timers_timer64_Timer_Module__diagsEnabled__C
008ace64   ti_sysbios_timers_timer64_Timer_Module__diagsIncluded__C
008ace68   ti_sysbios_timers_timer64_Timer_Module__diagsMask__C
008aca72   ti_sysbios_timers_timer64_Timer_Module__id__C
008af108   ti_sysbios_timers_timer64_Timer_Module__root__V
008a7580   ti_sysbios_timers_timer64_Timer_Module__startupDone__F
008a7580   ti_sysbios_timers_timer64_Timer_Module__startupDone__S
008af110   ti_sysbios_timers_timer64_Timer_Module__state__V
008894c0   ti_sysbios_timers_timer64_Timer_Module_startup__E
008af7b8   ti_sysbios_timers_timer64_Timer_Object__table__V
008a9200   ti_sysbios_timers_timer64_Timer_TimerSupportProxy_enable__E
008ace6c   ti_sysbios_timers_timer64_Timer_anyMaskHigh__C
008ace70   ti_sysbios_timers_timer64_Timer_anyMask__C
008917a0   ti_sysbios_timers_timer64_Timer_deviceConfig__I
008ace74   ti_sysbios_timers_timer64_Timer_freqDivisor__C
00896e40   ti_sysbios_timers_timer64_Timer_getFreq__E
008a9540   ti_sysbios_timers_timer64_Timer_getMaxTicks__E
0089dce0   ti_sysbios_timers_timer64_Timer_initDevice__I
008abde1   ti_sysbios_timers_timer64_Timer_localTimerBaseId__C
008ace78   ti_sysbios_timers_timer64_Timer_numLocalTimers__C
008ace7c   ti_sysbios_timers_timer64_Timer_numTimerDevices__C
00896260   ti_sysbios_timers_timer64_Timer_setPeriodMicroSecs__E
008987c0   ti_sysbios_timers_timer64_Timer_start__E
008aca92   ti_sysbios_timers_timer64_Timer_startupNeeded__C
0089f0c0   ti_sysbios_timers_timer64_Timer_startup__E
008a0560   ti_sysbios_timers_timer64_Timer_stop__E
008acb86   ti_sysbios_timers_timer64_Timer_useTimer64pRegMap__C
008a9560   tolower
008a9580   toupper
0089bce0   ungetc
008a3760   ungetwc
008a37e0   unlink
008a75c0   wcrtomb
008a95a0   wctomb
008a1c80   wmemcpy
008a5bc0   write
008ace80   xdc_runtime_Assert_E_assertFailed__C
008a1d20   xdc_runtime_Assert_raise__I
008ace84   xdc_runtime_Core_A_initializedParams__C
008ace88   xdc_runtime_Core_Module__diagsEnabled__C
008ace8c   xdc_runtime_Core_Module__diagsIncluded__C
008ace90   xdc_runtime_Core_Module__diagsMask__C
008acb96   xdc_runtime_Core_Module__id__C
008a3860   xdc_runtime_Core_assignLabel__I
008a38e0   xdc_runtime_Core_assignParams__I
00899b80   xdc_runtime_Core_constructObject__I
00895780   xdc_runtime_Core_createObject__I
0089dde0   xdc_runtime_Core_deleteObject__I
008ace94   xdc_runtime_Error_E_memory__C
008ace98   xdc_runtime_Error_Module__diagsEnabled__C
008ace9c   xdc_runtime_Error_Module__diagsIncluded__C
008acea0   xdc_runtime_Error_Module__diagsMask__C
008accea   xdc_runtime_Error_Module__loggerDefined__C
008acea4   xdc_runtime_Error_Module__loggerFxn8__C
008acea8   xdc_runtime_Error_Module__loggerObj__C
008af128   xdc_runtime_Error_Module__state__V
008a7600   xdc_runtime_Error_check__E
008a7640   xdc_runtime_Error_init__E
008acd66   xdc_runtime_Error_maxDepth__C
00896880   xdc_runtime_Error_policyDefault__E
008aceac   xdc_runtime_Error_policyFxn__C
008aceb0   xdc_runtime_Error_policy__C
0089f1a0   xdc_runtime_Error_print__E
008aceb4   xdc_runtime_Error_raiseHook__C
008a7680   xdc_runtime_Error_raiseX__E
008a0620   xdc_runtime_Error_setX__E
008a95c0   xdc_runtime_Gate_enterSystem__E
008a76c0   xdc_runtime_Gate_leaveSystem__E
008aceb8   xdc_runtime_IFilterLogger_Interface__BASE__C
008acebc   xdc_runtime_IGateProvider_Interface__BASE__C
008acec0   xdc_runtime_IHeap_Interface__BASE__C
008acec4   xdc_runtime_ILogger_Interface__BASE__C
008acec8   xdc_runtime_IModule_Interface__BASE__C
008acecc   xdc_runtime_Log_L_error__C
008aced0   xdc_runtime_LoggerBuf_E_badLevel__C
008a7700   xdc_runtime_LoggerBuf_Handle__label__S
0087fff8   xdc_runtime_LoggerBuf_Instance_State_0_entryArr__A
008a7740   xdc_runtime_LoggerBuf_Instance_finalize__E
008a06e0   xdc_runtime_LoggerBuf_Instance_init__E
008a9620   xdc_runtime_LoggerBuf_Module_GateProxy_enter__E
008a9640   xdc_runtime_LoggerBuf_Module_GateProxy_leave__E
008a9280   xdc_runtime_LoggerBuf_Module_GateProxy_query__E
008ac198   xdc_runtime_LoggerBuf_Module__FXNS__C
008aced4   xdc_runtime_LoggerBuf_Module__gateObj__C
008acd6e   xdc_runtime_LoggerBuf_Module__id__C
008af12c   xdc_runtime_LoggerBuf_Module__root__V
008af134   xdc_runtime_LoggerBuf_Module__state__V
008a1dc0   xdc_runtime_LoggerBuf_Module_startup__E
008ac80c   xdc_runtime_LoggerBuf_Object__DESC__C
008ac4dc   xdc_runtime_LoggerBuf_Object__PARAMS__C
008aced8   xdc_runtime_LoggerBuf_Object__count__C
008a07a0   xdc_runtime_LoggerBuf_Object__create__S
008a7780   xdc_runtime_LoggerBuf_Object__delete__S
008a77c0   xdc_runtime_LoggerBuf_Object__get__S
008afa20   xdc_runtime_LoggerBuf_Object__table__V
008a91e0   xdc_runtime_LoggerBuf_TimestampProxy_get64__E
008a9660   xdc_runtime_LoggerBuf_disable__E
008a9680   xdc_runtime_LoggerBuf_enable__E
008acf2c   xdc_runtime_LoggerBuf_filterByLevel__C
008a3960   xdc_runtime_LoggerBuf_filterOutEvent__I
0089dee0   xdc_runtime_LoggerBuf_getFilterLevel__E
0089caa0   xdc_runtime_LoggerBuf_setFilterLevel__E
008acedc   xdc_runtime_LoggerBuf_statusLogger__C
008a7800   xdc_runtime_LoggerBuf_write0__E
008a7840   xdc_runtime_LoggerBuf_write1__E
008a7880   xdc_runtime_LoggerBuf_write2__E
00898960   xdc_runtime_LoggerBuf_write4__E
008959c0   xdc_runtime_LoggerBuf_write8__E
008a9280   xdc_runtime_Main_Module_GateProxy_query__E
008a96a0   xdc_runtime_Memory_HeapProxy_alloc__E
008a96c0   xdc_runtime_Memory_HeapProxy_free__E
008acf2e   xdc_runtime_Memory_Module__id__C
008af13c   xdc_runtime_Memory_Module__state__V
0089f280   xdc_runtime_Memory_alloc__E
008a5c20   xdc_runtime_Memory_calloc__E
008acee0   xdc_runtime_Memory_defaultHeapInstance__C
008a78c0   xdc_runtime_Memory_free__E
008af140   xdc_runtime_Registry_Module__state__V
008a7900   xdc_runtime_Registry_findById__E
008af148   xdc_runtime_Startup_Module__state__V
00000001   xdc_runtime_Startup__EXECFXN__C
00000001   xdc_runtime_Startup__RESETFXN__C
008acee4   xdc_runtime_Startup_execImpl__C
0089dfe0   xdc_runtime_Startup_exec__E
008a96e0   xdc_runtime_Startup_exec__I
008acd48   xdc_runtime_Startup_firstFxns__A
008acd50   xdc_runtime_Startup_firstFxns__C
008acd58   xdc_runtime_Startup_lastFxns__C
008acee8   xdc_runtime_Startup_maxPasses__C
008a9700   xdc_runtime_Startup_reset__I
008ac9a0   xdc_runtime_Startup_sfxnRts__A
008aceec   xdc_runtime_Startup_sfxnRts__C
008ac398   xdc_runtime_Startup_sfxnTab__A
008acef0   xdc_runtime_Startup_sfxnTab__C
008940c0   xdc_runtime_Startup_startMods__I
008801f8   xdc_runtime_SysMin_Module_State_0_outbuf__A
008af150   xdc_runtime_SysMin_Module__state__V
008a5c80   xdc_runtime_SysMin_Module_startup__E
008a1e60   xdc_runtime_SysMin_abort__E
008acef4   xdc_runtime_SysMin_bufSize__C
008a5ce0   xdc_runtime_SysMin_exit__E
008acf34   xdc_runtime_SysMin_flushAtExit__C
008a1f00   xdc_runtime_SysMin_flush__E
008acef8   xdc_runtime_SysMin_outputFunc__C
008a5d40   xdc_runtime_SysMin_output__I
008a1fa0   xdc_runtime_SysMin_putch__E
008a9720   xdc_runtime_SysMin_ready__E
008a9740   xdc_runtime_System_Module_GateProxy_enter__E
008a9760   xdc_runtime_System_Module_GateProxy_leave__E
008a9280   xdc_runtime_System_Module_GateProxy_query__E
008afab0   xdc_runtime_System_Module_State_0_atexitHandlers__A
008acefc   xdc_runtime_System_Module__gateObj__C
008af15c   xdc_runtime_System_Module__state__V
008a9780   xdc_runtime_System_Module_startup__E
008a1e60   xdc_runtime_System_SupportProxy_abort__E
008a5ce0   xdc_runtime_System_SupportProxy_exit__E
008a1f00   xdc_runtime_System_SupportProxy_flush__E
008a1fa0   xdc_runtime_System_SupportProxy_putch__E
008a9720   xdc_runtime_System_SupportProxy_ready__E
008acf00   xdc_runtime_System_abortFxn__C
008a8f80   xdc_runtime_System_abortStd__E
008a7940   xdc_runtime_System_abort__E
008a7980   xdc_runtime_System_aprintf__E
008a5da0   xdc_runtime_System_aprintf_va__E
008a5da0   xdc_runtime_System_aprintf_va__F
008a39e0   xdc_runtime_System_atexit__E
008a5da0   xdc_runtime_System_avprintf__E
00886680   xdc_runtime_System_doPrint__I
008acf04   xdc_runtime_System_exitFxn__C
008a00e0   xdc_runtime_System_exitStd__E
008a79c0   xdc_runtime_System_exit__E
008acf08   xdc_runtime_System_extendFxn__C
008a0860   xdc_runtime_System_formatNum__I
008acf0c   xdc_runtime_System_maxAtexitHandlers__C
00894320   xdc_runtime_System_printfExtend__I
008a7a00   xdc_runtime_System_printf__E
008a5e00   xdc_runtime_System_printf_va__E
008a5e00   xdc_runtime_System_printf_va__F
008a3a60   xdc_runtime_System_processAtExit__E
008a3ae0   xdc_runtime_System_putchar__I
008a97a0   xdc_runtime_System_snprintf_va__E
008a97a0   xdc_runtime_System_snprintf_va__F
008a5e00   xdc_runtime_System_vprintf__E
008a97a0   xdc_runtime_System_vsnprintf__E
008af164   xdc_runtime_Text_Module__state__V
008acf36   xdc_runtime_Text_charCnt__C
008a97e0   xdc_runtime_Text_charTab__A
008acf10   xdc_runtime_Text_charTab__C
008a5e60   xdc_runtime_Text_cordText__E
008acf3c   xdc_runtime_Text_isLoaded__C
008acf14   xdc_runtime_Text_nameEmpty__C
008acf18   xdc_runtime_Text_nameStatic__C
008acf1c   xdc_runtime_Text_nameUnknown__C
008abde8   xdc_runtime_Text_nodeTab__A
008acf20   xdc_runtime_Text_nodeTab__C
008a3b60   xdc_runtime_Text_printVisFxn__I
0089be20   xdc_runtime_Text_putLab__E
0089cbc0   xdc_runtime_Text_putMod__E
00897aa0   xdc_runtime_Text_putSite__E
008acf3e   xdc_runtime_Text_registryModsLastId__C
008a7a40   xdc_runtime_Text_ropeText__E
008acf44   xdc_runtime_Text_unnamedModsLastId__C
0089e0e0   xdc_runtime_Text_visitRope2__I
008acf24   xdc_runtime_Text_visitRopeFxn__C
008a97c0   xdc_runtime_Text_visitRope__I
008a2040   xdc_runtime_Text_xprintf__I


GLOBAL SYMBOLS: SORTED BY Symbol Address 

address    name
--------   ----
00000000   _argsize
00000001   __TI_args_main
00000001   xdc_runtime_Startup__EXECFXN__C
00000001   xdc_runtime_Startup__RESETFXN__C
00002000   __TI_STACK_SIZE
00800000   __ASM__
00800000   ti_sysbios_heaps_HeapMem_Instance_State_1_buf__A
00800058   __ISA__
00800070   __PLAT__
00800098   __TARG__
008000c0   __TRDR__
0087fff8   xdc_runtime_LoggerBuf_Instance_State_0_entryArr__A
008801f8   xdc_runtime_SysMin_Module_State_0_outbuf__A
008803f8   ti_sysbios_knl_Task_Instance_State_0_stack__A
00880bf8   ti_sysbios_knl_Task_Instance_State_1_stack__A
008814ec   _ZSt4wcin
00881528   _ZSt5wcout
00881560   _ZSt5wcerr
00881598   _ZSt5wclog
00881670   _ZSt3cin
008816ac   _ZSt4cout
00881734   _ZSt4cerr
0088176c   _ZSt4clog
008817a4   dlConfig
00881928   sysConfig
00881938   __TI_tmpnams
00881a78   _ZNSt7codecvtIwciE2idE
00881a7c   _ZNSt5ctypeIcE2idE
00881a84   _ZNSt10moneypunctIwLb0EE2idE
00881a90   _ZGVNSt10moneypunctIwLb0EE2idE
00881a98   _ZGVNSt10moneypunctIwLb1EE2idE
00881aa0   _ZGVNSt7codecvtIcciE2idE
00881aa8   _ZGVNSt7collateIwE2idE
00881ab0   _ZGVNSt7num_getIwSt19istreambuf_iteratorIwSt11char_traitsIwEEE2idE
00881ab8   _ZGVNSt7num_putIwSt19ostreambuf_iteratorIwSt11char_traitsIwEEE2idE
00881ac0   _ZGVNSt8messagesIwE2idE
00881ac8   _ZGVNSt8numpunctIwE2idE
00881ad0   _ZGVNSt8time_getIwSt19istreambuf_iteratorIwSt11char_traitsIwEEE2idE
00881ad8   _ZGVNSt9money_getIwSt19istreambuf_iteratorIwSt11char_traitsIwEEE2idE
00881ae0   _ZGVNSt9money_putIwSt19ostreambuf_iteratorIwSt11char_traitsIwEEE2idE
00881ae8   _ZNSt10moneypunctIwLb1EE2idE
00881aec   _ZNSt13basic_filebufIcSt11char_traitsIcEE7_StinitE
00881af0   _ZNSt13basic_filebufIwSt11char_traitsIwEE7_StinitE
00881af4   _ZNSt4fposIiE4_StzE
00881af8   _ZNSt7codecvtIcciE2idE
00881afc   _ZNSt7collateIwE2idE
00881b00   _ZNSt7num_getIwSt19istreambuf_iteratorIwSt11char_traitsIwEEE2idE
00881b04   _ZNSt7num_putIcSt19ostreambuf_iteratorIcSt11char_traitsIcEEE2idE
00881b08   _ZNSt7num_putIwSt19ostreambuf_iteratorIwSt11char_traitsIwEEE2idE
00881b0c   _ZNSt8messagesIwE2idE
00881b10   _ZNSt8numpunctIcE2idE
00881b14   _ZNSt8numpunctIwE2idE
00881b18   _ZNSt8time_getIwSt19istreambuf_iteratorIwSt11char_traitsIwEEE2idE
00881b1c   _ZNSt8time_putIwSt19ostreambuf_iteratorIwSt11char_traitsIwEEE2idE
00881b20   _ZNSt9money_getIwSt19istreambuf_iteratorIwSt11char_traitsIwEEE2idE
00881b24   _ZNSt9money_putIwSt19ostreambuf_iteratorIwSt11char_traitsIwEEE2idE
00881b28   _ZNSt5ctypeIwE2idE
00881b48   ti_sysbios_hal_Hwi_Object__table__V
00881b60   _ZN13DynamicMemory12getEmptyListEj
00881de0   _ZN13DynamicMemory10clearListsEv
00881e34   _ZN13DynamicMemoryC1Ev
00881e34   _ZN13DynamicMemoryC2Ev
00881f0c   _ZN13DynamicMemoryD1Ev
00881f0c   _ZN13DynamicMemoryD2Ev
00881f40   _ZN13DynamicMemory16freeMatrixMemoryEP9cmatrix_t
00881fa0   _ZN13DynamicMemory9getMatrixEtt
00882088   _ZN13DynamicMemory10getMatrixZEtt
00882208   _ZN13DynamicMemory10getMatrixREP9cmatrix_ttt
0088242c   _ZN13DynamicMemory12updateMatrixEP9cmatrix_ttt
00882510   _ZN13DynamicMemory13updateMatrixZEP9cmatrix_ttt
0088268c   _ZN13DynamicMemory13reshapeMatrixEP9cmatrix_ttt
008827c0   _ZN13DynamicMemory20reshapeMatrixAndCopyEP9cmatrix_ttt
00882c84   _ZN13DynamicMemory15displayDMStatusEv
00882d40   _ZN13DynamicMemory23displayDMCompleteStatusEv
00882ef8   _ZN13DynamicMemory18obtainMemoryBufferEj
00882f34   _ZN13DynamicMemory16freeMemoryBufferEPvj
00882f54   _ZN13DynamicMemory10resetQInfoEv
00882f88   _ZN13DynamicMemory12displayQInfoEv
00883050   __sti___17_dynamicMemory_cpp_f848a02c
00883120   _Z12cblas_scnrm2jPvj
008831b0   _Z12cblas_isamaxjPvj
0088324c   _Z10matrixCopyP9cmatrix_tS0_15CBLAS_TRANSPOSEb
00883584   _Z10matrixMultP9cmatrix_tS0_S0_15CBLAS_TRANSPOSES1_b
00883aa4   _Z11matrixMultVP9cmatrix_tPSt7complexIfES3_b
00883bec   _Z11dotProductVPSt7complexIfES1_t
00883cac   _Z13outerProductVPSt7complexIfES1_P9cmatrix_tS0_
00883dc4   _Z15matrixMultSafeBP9cmatrix_tS0_
00883fa0   _Z15matrixMultSafeAP9cmatrix_tS0_
00884180   _Z15matrixHermitianP9cmatrix_t
00884378   _Z15matrixTransposeP9cmatrix_t
00884570   __sti___17_blasFunctions_cpp_8614878c
008845e0   _Z9eyeMatrixP9cmatrix_t
008846ec   _Z16getMatrixInverseP9cmatrix_tS0_St7complexIfE
00884b70   _Z13getNullMatrixP9cmatrix_tS0_
00884cd8   _Z18getQRDecompositionP9cmatrix_tS0_S0_
00885188   _Z6getSVDP9cmatrix_tS0_S0_S0_c
00885338   __sti___19_lapackFunctions_cpp_4deb6974
008853a0   _Z22randomizeChannelMatrixP9cmatrix_tb
0088558c   _Z16initializeSystemP16downlinkConfig_tP14systemConfig_tttttt
00885698   _Z22createNewUserStructurettt
008858d8   _Z19updateDLConfig_UserP16downlinkConfig_tP12userConfig_t
00885a58   _Z18clearDLConfig_UserP16downlinkConfig_tt
00885b34   _Z8freeUserP12userConfig_t
00885c50   _Z17updateUserChannelP12userConfig_t
00885cc8   _Z12cleanupUsersP16downlinkConfig_t
00885d30   __sti___22_frameworkFunctions_cpp_ce0052a8
00885da0   _ZNSt6_WinitC1Ev
00885da0   _ZNSt6_WinitC2Ev
00886680   xdc_runtime_System_doPrint__I
00886f20   _Z21performPIPDSchedulingP14systemConfig_tP16downlinkConfig_t
0088766c   __sti___18_pipdScheduling_cpp_a1e6c5a3
008876e0   _ZNSt8ios_base4InitC1Ev
008876e0   _ZNSt8ios_base4InitC2Ev
00887e80   _Z28performSuccessiveProjectionsP14systemConfig_tP16downlinkConfig_t
008885a4   __sti___22_succprojScheduling_cpp_87bf4a20
00888600   ti_sysbios_family_c64p_Exception_handler__I
00888d80   ti_sysbios_knl_Semaphore_pend__E
008894c0   ti_sysbios_timers_timer64_Timer_Module_startup__E
00889b60   powf
0088a1e0   ti_sysbios_heaps_HeapMem_alloc__E
0088a840   _ZNSt13basic_filebufIcSt11char_traitsIcEE8overflowEi
0088ae60   _ZNSt13basic_filebufIwSt11char_traitsIwEE8overflowEj
0088b460   __c6xabi_divd
0088ba60   _ZNSt13basic_filebufIwSt11char_traitsIwEE5uflowEv
0088c040   ti_sysbios_heaps_HeapMem_free__E
0088c620   _ZNSt13basic_filebufIcSt11char_traitsIcEE5uflowEv
0088cbe0   _Z13displayMatrixP9cmatrix_t
0088cd28   _Z13displayMatrixR9cmatrix_t
0088ce70   _Z20displayUserStructureP12userConfig_t
0088cf68   _Z17displaySystemInfov
0088cff0   _Z21displayScheduledUsersP14systemConfig_tP16downlinkConfig_t
0088d110   __sti___20_displayFunctions_cpp_dbd75e48
0088d180   _ZNKSt7num_putIcSt19ostreambuf_iteratorIcSt11char_traitsIcEEE5_FputES3_RSt8ios_basecPKcjjjj
0088e1c0   _Z24decomposeChannelMatricesP14systemConfig_tP16downlinkConfig_t
0088e624   _Z28clearSchedulerConfigurationsP14systemConfig_tP16downlinkConfig_t
0088e688   __sti___23_supportingFunctions_cpp_fd751b3a
0088e700   _ZNSt13basic_filebufIwSt11char_traitsIwEE9_EndwriteEv
0088ec20   _ZNSt8ios_base5clearENSt5_IosbIiE8_IostateEb
0088f140   _ZNSt13basic_filebufIcSt11char_traitsIcEE9_EndwriteEv
0088f640   __sti___11_wlocale_cpp_3b9bd5f7
0088fb40   fwrite
0088ffe0   __TI_printfi
00890440   _Z23performGreedySchedulingP14systemConfig_tP16downlinkConfig_t
008907b4   __sti___20_greedyScheduling_cpp_b8e1509e
00890820   fputs
00890ee0   _ZStlsISt11char_traitsIcEERSt13basic_ostreamIcT_ES5_PKc
008911e0   ti_sysbios_heaps_HeapMem_Instance_init__E
008914c0   ti_sysbios_knl_Task_Module_startup__E
008917a0   ti_sysbios_timers_timer64_Timer_deviceConfig__I
00891a80   _ZNKSt7num_putIcSt19ostreambuf_iteratorIcSt11char_traitsIcEEE5_IputES3_RSt8ios_basecPcj
00891d40   _ZNKSt7num_putIcSt19ostreambuf_iteratorIcSt11char_traitsIcEEE6do_putES3_RSt8ios_basecd
00892000   _ZNKSt7num_putIcSt19ostreambuf_iteratorIcSt11char_traitsIcEEE6do_putES3_RSt8ios_basece
00892aa0   ti_sysbios_knl_Clock_workFunc__E
00892d40   _ZNSt6_WinitD1Ev
00892d40   _ZNSt6_WinitD2Ev
00892fc0   __c6xabi_divf
00893240   __sti___12_iostream_cpp_b004430c
008934c0   _Z23performRandomSchedulingP14systemConfig_tP16downlinkConfig_t
008936e4   __sti___20_randomScheduling_cpp_1a9b9836
00893740   _ZNSt13_Complex_baseIfSt16_C_float_complexE4_DivIfEEvRKSt7complexIT_E
008939a0   _ZSt5_FabsIfET_RKSt7complexIS0_EPi
00893e60   ti_sysbios_family_c64p_Hwi_dispatchCore__I
008940c0   xdc_runtime_Startup_startMods__I
00894320   xdc_runtime_System_printfExtend__I
00894580   _ZNSt13basic_filebufIwSt11char_traitsIwEE5imbueERKSt6locale
008947c0   __c6xabi_divull
00894e80   lteSystemInit
00894eec   channelUpdate
00894fc4   schedulingForCurrentSF
00895000   _Z18lteSystemTerminatejj
00895020   displaySchedulerInfo
00895048   __sti___13_lteSystem_cpp_g_nUsers
008950c0   setvbuf
00895300   ti_sysbios_family_c64p_Exception_internalHandler__I
00895540   ti_sysbios_knl_Semaphore_post__E
00895780   xdc_runtime_Core_createObject__I
008959c0   xdc_runtime_LoggerBuf_write8__E
00895c00   __sti___12_wiostrea_cpp_9fa80e7a
00895e20   fputc
00896040   ti_sysbios_knl_Swi_run__I
00896260   ti_sysbios_timers_timer64_Timer_setPeriodMicroSecs__E
00896680   ti_sysbios_family_c64p_Hwi_dispatchAlways
00896880   xdc_runtime_Error_policyDefault__E
00896a80   _ZNKSt7num_putIcSt19ostreambuf_iteratorIcSt11char_traitsIcEEE6do_putES3_RSt8ios_basecb
00896c60   __c6xabi_divul
00896e40   ti_sysbios_timers_timer64_Timer_getFreq__E
00897020   HOSTrename
008973a0   _ZNSt13basic_filebufIcSt11char_traitsIcEE7seekoffElNSt5_IosbIiE8_SeekdirENS4_9_OpenmodeE
00897560   _ZNSt13basic_filebufIwSt11char_traitsIwEE7seekoffElNSt5_IosbIiE8_SeekdirENS4_9_OpenmodeE
008978e0   ti_sysbios_knl_Task_checkStacks__E
00897aa0   xdc_runtime_Text_putSite__E
00897c60   _ZNKSt12_String_base5_XranEv
00897e00   _ZNSt13basic_filebufIcSt11char_traitsIcEE7seekposESt4fposIiENSt5_IosbIiE9_OpenmodeE
00897fa0   _ZNSt13basic_filebufIwSt11char_traitsIwEE7seekposESt4fposIiENSt5_IosbIiE9_OpenmodeE
00898140   _ZNSt13basic_filebufIwSt11char_traitsIwEE9pbackfailEj
008982e0   frexpf
00898480   ti_sysbios_gates_GateMutex_enter__E
00898620   ti_sysbios_knl_Task_schedule__I
008987c0   ti_sysbios_timers_timer64_Timer_start__E
00898960   xdc_runtime_LoggerBuf_write4__E
00898b00   _Getctyptab
00898c80   _ZNKSt5ctypeIwE10do_toupperEPwPKw
00898e00   _ZNKSt7codecvtIwciE5do_inERiPKcS3_RS3_PwS5_RS5_
00898f80   _ZNKSt7codecvtIwciE6do_outERiPKwS3_RS3_PcS5_RS5_
00899100   _ZNSt13basic_filebufIcSt11char_traitsIcEE9pbackfailEi
00899280   _ZSt9use_facetISt5ctypeIwEERKT_RKSt6locale
00899400   ldexpf
00899580   _Z10freeMatrixP9cmatrix_t
00899594   _Z12createMatrixP9cmatrix_ttt
008995c4   _Z16createZeroMatrixP9cmatrix_ttt
008995f4   _Z13reshapeMatrixP9cmatrix_ttt
00899624   _Z20reshapeAndCopyMatrixP9cmatrix_ttt
00899654   _Z14allocateMemoryj
0089966c   _Z10freeMemoryPvj
0089968c   __sti___20_memoryManagement_cpp_bbe36996
00899700   ti_sysbios_family_c64p_Exception_dispatch__E
00899880   ti_sysbios_knl_Task_exit__E
00899a00   ti_sysbios_knl_Task_startCore__E
00899b80   xdc_runtime_Core_constructObject__I
00899d00   _ZNSt13basic_filebufIcSt11char_traitsIcEED0Ev
00899e60   _ZNSt13basic_filebufIwSt11char_traitsIwEED0Ev
00899fc0   _ZNSt9basic_iosIcSt11char_traitsIcEE4initEPSt15basic_streambufIcS1_Eb
0089a120   _ZNSt9basic_iosIwSt11char_traitsIwEE4initEPSt15basic_streambufIwS1_Eb
0089a3e0   _ZNKSt12_String_base5_XlenEv
0089a520   _ZNSolsEb
0089a660   _ZNSolsEj
0089a7a0   _ZNSt13basic_filebufIcSt11char_traitsIcEE6setbufEPci
0089a8e0   _ZNSt13basic_filebufIcSt11char_traitsIcEED1Ev
0089aa20   _ZNSt13basic_filebufIwSt11char_traitsIwEED1Ev
0089ab60   _ZNSt6locale7_LocimpD1Ev
0089ab60   _ZNSt6locale7_LocimpD2Ev
0089aca0   _ZNSt8numpunctIcE5_InitERKSt8_Locinfo
0089ade0   _ZSt9use_facetISt7codecvtIcciEERKT_RKSt6locale
0089af20   __TI_buff_read
0089b060   __TI_closefile
0089b1a0   _auto_init_elf
0089b2e0   fflush
0089b420   fgetc
0089b6a0   ti_sysbios_family_c64p_Hwi_Module_startup__E
0089b7e0   ti_sysbios_family_c66_Cache_Module_startup__E
0089b920   ti_sysbios_knl_Semaphore_Instance_init__E
0089ba60   ti_sysbios_knl_Swi_post__E
0089bba0   ti_sysbios_knl_Task_blockI__E
0089bce0   ungetc
0089be20   xdc_runtime_Text_putLab__E
0089bf60   _ZNKSt5ctypeIwE5do_isEPKwS2_Ps
0089c080   _ZNKSt5ctypeIwE9do_narrowEPKwS2_cPc
0089c1a0   _ZNKSt7num_putIcSt19ostreambuf_iteratorIcSt11char_traitsIcEEE5_IfmtEPcPKcNSt5_IosbIiE9_FmtflagsE
0089c2c0   _ZNSt13basic_filebufIwSt11char_traitsIwEE6setbufEPwi
0089c3e0   _ZNSt6locale5_InitEv
0089c500   _ZNSt8_LocinfoC1EPKc
0089c500   _ZNSt8_LocinfoC2EPKc
0089c620   _ZNSt8_LocinfoD1Ev
0089c620   _ZNSt8_LocinfoD2Ev
0089c740   fseek
0089c860   ftell
0089c980   sqrtf
0089caa0   xdc_runtime_LoggerBuf_setFilterLevel__E
0089cbc0   xdc_runtime_Text_putMod__E
0089cce0   HOSTlseek
0089cde0   _ZNKSt7codecvtIwciE9do_lengthERKiPKcS4_j
0089cee0   _ZNKSt7num_putIcSt19ostreambuf_iteratorIcSt11char_traitsIcEEE5_FfmtEPccNSt5_IosbIiE9_FmtflagsE
0089cfe0   _ZNSs6appendERKSsjj
0089d0e0   _ZNSs6insertEjjc
0089d1e0   _ZNSt15basic_streambufIcSt11char_traitsIcEE6xsgetnEPci
0089d2e0   _ZNSt15basic_streambufIcSt11char_traitsIcEE6xsputnEPKci
0089d3e0   _ZNSt15basic_streambufIwSt11char_traitsIwEE6xsgetnEPwi
0089d4e0   _ZNSt15basic_streambufIwSt11char_traitsIwEE6xsputnEPKwi
0089d5e0   __TI_wrt_ok
0089d8e0   atoi
0089d9e0   _Z21performUserSchedulingP14systemConfig_tP16downlinkConfig_t
0089da6c   __sti___24_schedulingAlgorithms_cpp_fc6d3ca0
0089dae0   ti_sysbios_knl_Swi_restoreHwi__E
0089dbe0   ti_sysbios_knl_Task_unblockI__E
0089dce0   ti_sysbios_timers_timer64_Timer_initDevice__I
0089dde0   xdc_runtime_Core_deleteObject__I
0089dee0   xdc_runtime_LoggerBuf_getFilterLevel__E
0089dfe0   xdc_runtime_Startup_exec__E
0089e0e0   xdc_runtime_Text_visitRope2__I
0089e1e0   HOSTopen
0089e2c0   HOSTwrite
0089e3a0   _Fac_tidy
0089e480   _ZNSs5_CopyEjj
0089e560   _ZNSs5eraseEjj
0089e640   _ZNSs6assignERKSsjj
0089e720   _ZNSt6locale7_LocimpC1Eb
0089e720   _ZNSt6locale7_LocimpC2Eb
0089e800   __cxa_finalize
0089e8e0   __c6xabi_divi
0089e8e0   __divi
0089eaa0   close
0089eb80   __TI_zero_init
0089ec60   ltoa
0089ed40   memset
0089ee20   printf
0089ef00   main
0089ef6c   clockISRA
0089efa0   clockISRB
0089efe0   ti_sysbios_knl_Swi_runLoop__I
0089f0c0   ti_sysbios_knl_Clock_TimerProxy_startup__E
0089f0c0   ti_sysbios_timers_timer64_Timer_startup__E
0089f1a0   xdc_runtime_Error_print__E
0089f280   xdc_runtime_Memory_alloc__E
0089f360   HOSTread
0089f420   HOSTunlink
0089f5a0   _ZNKSt5ctypeIwE10do_tolowerEPwPKw
0089f660   _ZNKSt7num_putIcSt19ostreambuf_iteratorIcSt11char_traitsIcEEE11_PutgroupedES3_PKcjc
0089f720   _ZNSo3putEc
0089f7e0   _ZNSo6sentryC1ERSo
0089f8a0   _ZNSs5_GrowEjb
0089f960   _ZNSs6appendEPKcj
0089fa20   _ZNSt13basic_filebufIcSt11char_traitsIcEE5_InitEPSt4FILENS2_7_InitflE
0089fae0   _ZSt9use_facetISt5ctypeIcEERKT_RKSt6locale
0089fba0   _ZSt9use_facetISt7num_putIcSt19ostreambuf_iteratorIcSt11char_traitsIcEEEERKT_RKSt6locale
0089fc60   _ZSt9use_facetISt8numpunctIcEERKT_RKSt6locale
0089fd20   _Znaj
0089fd20   _Znwj
0089fde0   __TI_doflush
0089fea0   __TI_rd_ok
0089ff60   __c6xabi_divu
0089ff60   __divu
008a0020   __c6xabi_remi
008a0020   __remi
008a00e0   exit
008a00e0   xdc_runtime_System_exitStd__E
008a01a0   __sti___22_globalDeclarations_cpp_286f88f8
008a0260   ti_sysbios_heaps_HeapMem_getStats__E
008a0320   ti_sysbios_knl_Clock_logTick__E
008a03e0   ti_sysbios_knl_Swi_schedule__I
008a04a0   ti_sysbios_knl_Task_allBlockedFunction__I
008a0560   ti_sysbios_timers_timer64_Timer_stop__E
008a0620   xdc_runtime_Error_setX__E
008a06e0   xdc_runtime_LoggerBuf_Instance_init__E
008a07a0   xdc_runtime_LoggerBuf_Object__create__S
008a0860   xdc_runtime_System_formatNum__I
008a0920   HOSTclose
008a09c0   _ZNKSt5ctypeIwE8do_widenEPKcS2_Pw
008a0a60   _ZNKSt7codecvtIwciE10do_unshiftERiPcS2_RS2_
008a0b00   _ZNKSt7num_putIcSt19ostreambuf_iteratorIcSt11char_traitsIcEEE6do_putES3_RSt8ios_basecPKv
008a0ba0   _ZNSo12_Sentry_baseC1ERSo
008a0c40   _ZNSo12_Sentry_baseD1Ev
008a0ce0   _ZNSs6appendEjc
008a0d80   _ZNSt11logic_errorD1Ev
008a0e20   _ZNSt12length_errorD1Ev
008a0ec0   _ZNSt12out_of_rangeC1ERKSs
008a0f60   _ZNSt12out_of_rangeD1Ev
008a1000   _ZNSt13_Complex_baseIfSt16_C_float_complexE4_MulIfEEvRKSt7complexIT_E
008a10a0   _ZNSt13basic_filebufIcSt11char_traitsIcEE9underflowEv
008a1140   _ZNSt13basic_filebufIwSt11char_traitsIwEE9underflowEv
008a11e0   _ZNSt13runtime_errorD1Ev
008a1280   _ZNSt5ctypeIcEC1EPKsbj
008a1320   _ZNSt8ios_base4InitD1Ev
008a1320   _ZNSt8ios_base4InitD2Ev
008a13c0   _ZNSt8ios_base5_InitEv
008a1460   _ZNSt8ios_base5_TidyEv
008a1500   _ZNSt8ios_base7_AddstdEv
008a15a0   _ZNSt8ios_base7failureD1Ev
008a1640   _ZNSt8ios_baseD1Ev
008a1640   _ZNSt8ios_baseD2Ev
008a16e0   __TI_cleanup
008a1780   __c6xabi_remu
008a1780   __remu
008a1820   _c_int00
008a1aa0   memcpy
008a1b40   ti_sysbios_family_c64p_Exception_Module_startup__E
008a1be0   ti_sysbios_heaps_HeapMem_init__I
008a1c80   wmemcpy
008a1d20   xdc_runtime_Assert_raise__I
008a1dc0   xdc_runtime_LoggerBuf_Module_startup__E
008a1e60   xdc_runtime_SysMin_abort__E
008a1e60   xdc_runtime_System_SupportProxy_abort__E
008a1f00   xdc_runtime_SysMin_flush__E
008a1f00   xdc_runtime_System_SupportProxy_flush__E
008a1fa0   xdc_runtime_SysMin_putch__E
008a1fa0   xdc_runtime_System_SupportProxy_putch__E
008a2040   xdc_runtime_Text_xprintf__I
008a20e0   _Setgloballocale
008a2160   _ZNKSt5ctypeIwE10do_scan_isEsPKwS2_
008a21e0   _ZNKSt5ctypeIwE10do_tolowerEw
008a2260   _ZNKSt5ctypeIwE11do_scan_notEsPKwS2_
008a22e0   _ZNKSt6locale9_GetfacetEj
008a2360   _ZNKSt7num_putIcSt19ostreambuf_iteratorIcSt11char_traitsIcEEE5_PutcES3_PKcj
008a23e0   _ZNKSt7num_putIcSt19ostreambuf_iteratorIcSt11char_traitsIcEEE6do_putES3_RSt8ios_basecl
008a2460   _ZNKSt7num_putIcSt19ostreambuf_iteratorIcSt11char_traitsIcEEE6do_putES3_RSt8ios_basecm
008a24e0   _ZNKSt7num_putIcSt19ostreambuf_iteratorIcSt11char_traitsIcEEE6do_putES3_RSt8ios_basecx
008a2560   _ZNKSt7num_putIcSt19ostreambuf_iteratorIcSt11char_traitsIcEEE6do_putES3_RSt8ios_basecy
008a25e0   _ZNSo5flushEv
008a2660   _ZNSs5_TidyEbj
008a26e0   _ZNSs6assignEPKcj
008a2760   _ZNSt11logic_errorC2ERKSs
008a27e0   _ZNSt11logic_errorD0Ev
008a2860   _ZNSt12length_errorD0Ev
008a28e0   _ZNSt12out_of_rangeD0Ev
008a2960   _ZNSt13basic_filebufIcSt11char_traitsIcEE4syncEv
008a29e0   _ZNSt13basic_filebufIwSt11char_traitsIwEE4syncEv
008a2a60   _ZNSt13runtime_errorD0Ev
008a2ae0   _ZNSt15basic_streambufIcSt11char_traitsIcEE5sputcEc
008a2b60   _ZNSt19ostreambuf_iteratorIcSt11char_traitsIcEEaSEc
008a2be0   _ZNSt6locale5facet9_RegisterEv
008a2c60   _ZNSt8ios_base7failureD0Ev
008a2ce0   _ZNSt8ios_base8_CallfnsENS_5eventE
008a2d60   _ZSt10_MaklocstrIcEPT_PKcS1_RKSt7_Cvtvec
008a2de0   _ZSt14_Debug_messagePKcS0_
008a2e60   __TI_readmsg
008a2ee0   __TI_writemsg
008a2f40   C$$IO$$
008a2f60   __c6xabi_fixfu
008a2fe0   __c6xabi_llshl
008a3060   __c6xabi_roundf
008a30e0   ti_sysbios_family_c62_TaskSupport_swap__E
008a30e0   ti_sysbios_knl_Task_SupportProxy_swap__E
008a3160   fclose
008a3260   malloc
008a32e0   rand
008a3360   ti_sysbios_family_c62_TaskSupport_start__E
008a3360   ti_sysbios_knl_Task_SupportProxy_start__E
008a33e0   ti_sysbios_family_c64p_Hwi_dispatchC__I
008a3460   ti_sysbios_family_c64p_Hwi_getStackInfo__E
008a3460   ti_sysbios_hal_Hwi_HwiProxy_getStackInfo__E
008a34e0   ti_sysbios_hal_Hwi_checkStack
008a3560   ti_sysbios_hal_Hwi_initStack
008a35e0   ti_sysbios_knl_Idle_run__E
008a3660   ti_sysbios_knl_Swi_startup__E
008a36e0   ti_sysbios_knl_Task_restore__E
008a3760   ungetwc
008a37e0   remove
008a37e0   unlink
008a3860   xdc_runtime_Core_assignLabel__I
008a38e0   xdc_runtime_Core_assignParams__I
008a3960   xdc_runtime_LoggerBuf_filterOutEvent__I
008a39e0   xdc_runtime_System_atexit__E
008a3a60   xdc_runtime_System_processAtExit__E
008a3ae0   xdc_runtime_System_putchar__I
008a3b60   xdc_runtime_Text_printVisFxn__I
008a3be0   _Deletegloballocale
008a3c40   _ZNKSt5ctypeIcE10do_tolowerEPcPKc
008a3ca0   _ZNKSt5ctypeIcE10do_toupperEPcPKc
008a3d00   _ZNKSt5ctypeIwE10do_toupperEw
008a3d60   _ZNKSt5ctypeIwE9do_narrowEwc
008a3dc0   _ZNKSt7num_putIcSt19ostreambuf_iteratorIcSt11char_traitsIcEEE4_PutES3_PKcj
008a3e20   _ZNKSt7num_putIcSt19ostreambuf_iteratorIcSt11char_traitsIcEEE4_RepES3_cj
008a3e80   _ZNKSt9basic_iosIcSt11char_traitsIcEE5widenEc
008a3ee0   _ZNKSt9exception6_RaiseEv
008a3f40   _ZNSiD0Ev
008a3fa0   _ZNSoD0Ev
008a4000   _ZNSs7_InsideEPKc
008a4060   _ZNSs9_ChassignEjjc
008a40c0   _ZNSt13_Complex_baseIfSt16_C_float_complexE4_AddIfEEvRKSt7complexIT_E
008a4120   _ZNSt13_Complex_baseIfSt16_C_float_complexE4_SubIfEEvRKSt7complexIT_E
008a4180   _ZNSt13basic_filebufIcSt11char_traitsIcEE5imbueERKSt6locale
008a41e0   _ZNSt13basic_istreamIwSt11char_traitsIwEED0Ev
008a4240   _ZNSt13basic_ostreamIwSt11char_traitsIwEED0Ev
008a42a0   _ZNSt15basic_streambufIcSt11char_traitsIcEE5_InitEv
008a4300   _ZNSt15basic_streambufIcSt11char_traitsIcEE5uflowEv
008a4360   _ZNSt15basic_streambufIcSt11char_traitsIcEE7seekoffElNSt5_IosbIiE8_SeekdirENS4_9_OpenmodeE
008a43c0   _ZNSt15basic_streambufIcSt11char_traitsIcEE7seekposESt4fposIiENSt5_IosbIiE9_OpenmodeE
008a4420   _ZNSt15basic_streambufIcSt11char_traitsIcEED0Ev
008a4480   _ZNSt15basic_streambufIcSt11char_traitsIcEED1Ev
008a44e0   _ZNSt15basic_streambufIwSt11char_traitsIwEE5_InitEv
008a4540   _ZNSt15basic_streambufIwSt11char_traitsIwEE5uflowEv
008a45a0   _ZNSt15basic_streambufIwSt11char_traitsIwEE7seekoffElNSt5_IosbIiE8_SeekdirENS4_9_OpenmodeE
008a4600   _ZNSt15basic_streambufIwSt11char_traitsIwEE7seekposESt4fposIiENSt5_IosbIiE9_OpenmodeE
008a4660   _ZNSt15basic_streambufIwSt11char_traitsIwEED0Ev
008a46c0   _ZNSt15basic_streambufIwSt11char_traitsIwEED1Ev
008a4720   _ZNSt5ctypeIcE7_GetcatEPPKNSt6locale5facetE
008a4780   _ZNSt5ctypeIwED0Ev
008a47e0   _ZNSt5ctypeIwED1Ev
008a4840   _ZNSt6locale2idcvjEv
008a48a0   _ZNSt6locale5facet7_DecrefEv
008a4900   _ZNSt6locale7_LocimpD0Ev
008a4960   _ZNSt6localeC1Ev
008a4960   _ZNSt6localeC2Ev
008a49c0   _ZNSt7complexIfEdVERKf
008a4a20   _ZNSt7num_putIcSt19ostreambuf_iteratorIcSt11char_traitsIcEEEC1Ej
008a4a80   _ZNSt8ios_baseD0Ev
008a4ae0   _ZNSt8numpunctIcEC1Ej
008a4b40   _ZNSt9basic_iosIcSt11char_traitsIcEED0Ev
008a4ba0   _ZNSt9basic_iosIwSt11char_traitsIwEED0Ev
008a4c00   _ZSt4endlIcSt11char_traitsIcEERSt13basic_ostreamIT_T0_ES6_
008a4c60   _ZStdvIfESt7complexIT_ERKS2_RKS1_
008a4cc0   _ZTv0_n12_NSiD0Ev
008a4d20   _ZTv0_n12_NSoD0Ev
008a4d80   _ZTv0_n12_NSt13basic_istreamIwSt11char_traitsIwEED0Ev
008a4de0   _ZTv0_n12_NSt13basic_ostreamIwSt11char_traitsIwEED0Ev
008a4e40   __FDtest
008a4ea0   __TI_frcmpyd_div
008a4f00   __c6xabi_llshru
008a4f60   __cxa_vec_ctor
008a4fc0   __cxa_vec_new
008a5020   __sti___11_locale0_cpp_36e19383
008a5080   _subcull
008a50e0   ti_sysbios_family_c64p_Hwi_switchAndDispatch__I
008a5140   ti_sysbios_family_xxx_Hwi_switchAndRunFunc
008a51a0   calloc
008a5200   fgetpos
008a5260   lseek
008a52c0   memccpy
008a5320   memchr
008a5380   memmove
008a53e0   modff
008a5440   read
008a54a0   setlocale
008a5500   sprintf
008a5560   strcmp
008a55c0   strcspn
008a5620   ti_sysbios_BIOS_atExitFunc__I
008a5680   ti_sysbios_BIOS_errorRaiseHook__I
008a56e0   ti_sysbios_BIOS_registerRTSLock__I
008a5740   ti_sysbios_BIOS_removeRTSLock__I
008a57a0   ti_sysbios_BIOS_rtsUnlock__I
008a5800   ti_sysbios_gates_GateHwi_Object__create__S
008a5860   ti_sysbios_gates_GateMutex_Object__create__S
008a58c0   ti_sysbios_heaps_HeapMem_Object__create__S
008a5920   ti_sysbios_knl_Clock_Module_startup__E
008a5980   ti_sysbios_knl_Clock_doTick__I
008a59e0   ti_sysbios_knl_Queue_construct
008a5a40   ti_sysbios_knl_Semaphore_construct
008a5aa0   ti_sysbios_knl_Semaphore_pendTimeout__I
008a5b00   ti_sysbios_knl_Swi_Module_startup__E
008a5b60   ti_sysbios_knl_Task_enter__I
008a5bc0   write
008a5c20   xdc_runtime_Memory_calloc__E
008a5c80   xdc_runtime_SysMin_Module_startup__E
008a5ce0   xdc_runtime_SysMin_exit__E
008a5ce0   xdc_runtime_System_SupportProxy_exit__E
008a5d40   xdc_runtime_SysMin_output__I
008a5da0   xdc_runtime_System_aprintf_va__E
008a5da0   xdc_runtime_System_aprintf_va__F
008a5da0   xdc_runtime_System_avprintf__E
008a5e00   xdc_runtime_System_printf_va__E
008a5e00   xdc_runtime_System_printf_va__F
008a5e00   xdc_runtime_System_vprintf__E
008a5e60   xdc_runtime_Text_cordText__E
008a5ec0   _ZNKSs6_MyptrEv
008a5f00   _ZNKSs8max_sizeEv
008a5f40   _ZNKSt15basic_streambufIcSt11char_traitsIcEE8_PnavailEv
008a5f80   _ZNKSt5ctypeIcE10do_tolowerEc
008a5fc0   _ZNKSt5ctypeIcE10do_toupperEc
008a6000   _ZNKSt5ctypeIcE5widenEc
008a6040   _ZNKSt5ctypeIcE8do_widenEPKcS2_Pc
008a6080   _ZNKSt5ctypeIcE9do_narrowEPKcS2_cPc
008a60c0   _ZNKSt5ctypeIwE5do_isEsw
008a6100   _ZNKSt5ctypeIwE8do_widenEc
008a6140   _ZNKSt7num_putIcSt19ostreambuf_iteratorIcSt11char_traitsIcEEE3putES3_RSt8ios_basecb
008a6180   _ZNKSt7num_putIcSt19ostreambuf_iteratorIcSt11char_traitsIcEEE3putES3_RSt8ios_basecm
008a61c0   _ZNKSt8_Locinfo7_GetcvtEv
008a6200   _ZNKSt8_Locinfo9_GetctypeEv
008a6240   _ZNKSt8numpunctIcE8groupingEv
008a6280   _ZNKSt8numpunctIcE8truenameEv
008a62c0   _ZNKSt8numpunctIcE9falsenameEv
008a6300   _ZNSiD1Ev
008a6340   _ZNSo5_OsfxEv
008a6380   _ZNSoD1Ev
008a63c0   _ZNSs4_EosEj
008a6400   _ZNSs6_MyptrEv
008a6440   _ZNSs6assignEPKc
008a6480   _ZNSs6assignERKSs
008a64c0   _ZNSsC1EPKc
008a6500   _ZNSsC1Ev
008a6540   _ZNSt10ctype_baseC1Ej
008a6580   _ZNSt11char_traitsIcE6assignEPcjc
008a65c0   _ZNSt13_Complex_baseIfSt16_C_float_complexEC1ERKfS3_
008a6600   _ZNSt13basic_istreamIwSt11char_traitsIwEED1Ev
008a6640   _ZNSt13basic_ostreamIwSt11char_traitsIwEED1Ev
008a6680   _ZNSt15basic_streambufIcSt11char_traitsIcEE5sputnEPKci
008a66c0   _ZNSt19ostreambuf_iteratorIcSt11char_traitsIcEEC1EPSt15basic_streambufIcS1_E
008a6700   _ZNSt5ctypeIcE5_TidyEv
008a6740   _ZNSt5ctypeIcED1Ev
008a6780   _ZNSt6locale5facet7_IncrefEv
008a67c0   _ZNSt6locale5facetC1Ej
008a6800   _ZNSt6localeC1ERKS_
008a6840   _ZNSt6localeD1Ev
008a6880   _ZNSt7complexIfEaSERKf
008a68c0   _ZNSt7num_putIcSt19ostreambuf_iteratorIcSt11char_traitsIcEEE7_GetcatEPPKNSt6locale5facetE
008a6900   _ZNSt8ios_base5widthEi
008a6940   _ZNSt8numpunctIcE5_TidyEv
008a6980   _ZNSt8numpunctIcE7_GetcatEPPKNSt6locale5facetE
008a69c0   _ZNSt8numpunctIcED1Ev
008a6a00   _ZNSt9basic_iosIcSt11char_traitsIcEE5clearENSt5_IosbIiE8_IostateEb
008a6a40   _ZNSt9basic_iosIcSt11char_traitsIcEE8setstateENSt5_IosbIiE8_IostateEb
008a6a80   _ZSt3absIfET_RKSt7complexIS0_E
008a6ac0   _ZSt3absf
008a6b00   _ZSt3powff
008a6b40   _ZSt4conjIfESt7complexIT_ERKS2_
008a6b80   _ZSt6_ThrowRKSt9exception
008a6bc0   _ZStdvIfESt7complexIT_ERKS1_RKS2_
008a6c00   _ZStdvIfESt7complexIT_ERKS2_S4_
008a6c40   _ZStmiIfESt7complexIT_ERKS2_S4_
008a6c80   _ZStmlIfESt7complexIT_ERKS1_RKS2_
008a6cc0   _ZStmlIfESt7complexIT_ERKS2_S4_
008a6d00   _ZStoRRNSt5_IosbIiE8_IostateES1_
008a6d40   _ZStplIfESt7complexIT_ERKS2_S4_
008a6d80   _ZTv0_n12_NSiD1Ev
008a6dc0   _ZTv0_n12_NSoD1Ev
008a6e00   _ZTv0_n12_NSt13basic_istreamIwSt11char_traitsIwEED1Ev
008a6e40   _ZTv0_n12_NSt13basic_ostreamIwSt11char_traitsIwEED1Ev
008a6e80   __c6xabi_isinf
008a6f00   _args_main
008a6f80   ti_sysbios_family_c62_TaskSupport_buildTaskStack
008a6fc0   free
008a7000   mbrtowc
008a7040   mbtowc
008a7080   strlen
008a70c0   ti_sysbios_BIOS_exitFunc__I
008a7100   ti_sysbios_BIOS_rtsLock__I
008a7140   ti_sysbios_BIOS_startFunc__I
008a7180   ti_sysbios_family_c64p_Hwi_Module__startupDone__F
008a7180   ti_sysbios_family_c64p_Hwi_Module__startupDone__S
008a71c0   ti_sysbios_family_c64p_Hwi_disableInterrupt__E
008a71c0   ti_sysbios_hal_Hwi_HwiProxy_disableInterrupt__E
008a7200   ti_sysbios_family_c64p_Hwi_enableInterrupt__E
008a7200   ti_sysbios_hal_Hwi_HwiProxy_enableInterrupt__E
008a7240   ti_sysbios_gates_GateHwi_Handle__label__S
008a7280   ti_sysbios_gates_GateHwi_Object__delete__S
008a72c0   ti_sysbios_gates_GateMutex_Handle__label__S
008a7300   ti_sysbios_gates_GateMutex_Instance_init__E
008a7340   ti_sysbios_gates_GateMutex_Object__delete__S
008a7380   ti_sysbios_gates_GateMutex_leave__E
008a73c0   ti_sysbios_heaps_HeapMem_Handle__label__S
008a7400   ti_sysbios_heaps_HeapMem_Object__delete__S
008a7440   ti_sysbios_heaps_HeapMem_Object__get__S
008a7480   ti_sysbios_knl_Queue_Object__destruct__S
008a74c0   ti_sysbios_knl_Semaphore_Object__destruct__S
008a7500   ti_sysbios_knl_Swi_Object__get__S
008a7540   ti_sysbios_knl_Task_Object__get__S
008a7580   ti_sysbios_timers_timer64_Timer_Module__startupDone__F
008a7580   ti_sysbios_timers_timer64_Timer_Module__startupDone__S
008a75c0   wcrtomb
008a7600   xdc_runtime_Error_check__E
008a7640   xdc_runtime_Error_init__E
008a7680   xdc_runtime_Error_raiseX__E
008a76c0   xdc_runtime_Gate_leaveSystem__E
008a7700   xdc_runtime_LoggerBuf_Handle__label__S
008a7740   xdc_runtime_LoggerBuf_Instance_finalize__E
008a7780   xdc_runtime_LoggerBuf_Object__delete__S
008a77c0   xdc_runtime_LoggerBuf_Object__get__S
008a7800   xdc_runtime_LoggerBuf_write0__E
008a7840   xdc_runtime_LoggerBuf_write1__E
008a7880   xdc_runtime_LoggerBuf_write2__E
008a78c0   xdc_runtime_Memory_free__E
008a7900   xdc_runtime_Registry_findById__E
008a7940   xdc_runtime_System_abort__E
008a7980   xdc_runtime_System_aprintf__E
008a79c0   xdc_runtime_System_exit__E
008a7a00   xdc_runtime_System_printf__E
008a7a40   xdc_runtime_Text_ropeText__E
008a7a80   _Atexit
008a7aa0   _Getgloballocale
008a7ac0   _Z21__default_new_handlerv
008a7ae0   _ZN10__cxxabiv117__class_type_infoD0Ev
008a7b00   _ZN10__cxxabiv117__class_type_infoD1Ev
008a7b00   _ZN10__cxxabiv117__class_type_infoD2Ev
008a7b20   _ZN10__cxxabiv120__si_class_type_infoD0Ev
008a7b40   _ZN10__cxxabiv120__si_class_type_infoD1Ev
008a7b40   _ZN10__cxxabiv120__si_class_type_infoD2Ev
008a7b60   _ZN10__cxxabiv121__vmi_class_type_infoD0Ev
008a7b80   _ZN10__cxxabiv121__vmi_class_type_infoD1Ev
008a7b80   _ZN10__cxxabiv121__vmi_class_type_infoD2Ev
008a7ba0   _ZNKSaIcE8max_sizeEv
008a7bc0   _ZNKSo6sentrycvbEv
008a7be0   _ZNKSs4sizeEv
008a7c00   _ZNKSs5c_strEv
008a7c20   _ZNKSt11logic_error4whatEv
008a7c40   _ZNKSt11logic_error8_DoraiseEv
008a7c60   _ZNKSt12codecvt_base11do_encodingEv
008a7c80   _ZNKSt12codecvt_base13do_max_lengthEv
008a7ca0   _ZNKSt12codecvt_base16do_always_noconvEv
008a7cc0   _ZNKSt12length_error8_DoraiseEv
008a7ce0   _ZNKSt12out_of_range8_DoraiseEv
008a7d00   _ZNKSt13_Complex_baseIfSt16_C_float_complexE4imagEv
008a7d20   _ZNKSt13_Complex_baseIfSt16_C_float_complexE4realEv
008a7d40   _ZNKSt13runtime_error4whatEv
008a7d60   _ZNKSt13runtime_error8_DoraiseEv
008a7d80   _ZNKSt19ostreambuf_iteratorIcSt11char_traitsIcEE6failedEv
008a7da0   _ZNKSt5ctypeIcE8do_widenEc
008a7dc0   _ZNKSt5ctypeIcE9do_narrowEcc
008a7de0   _ZNKSt5ctypeIwE2isEsw
008a7e00   _ZNKSt5ctypeIwE5widenEc
008a7e20   _ZNKSt5ctypeIwE6narrowEwc
008a7e40   _ZNKSt7codecvtIcciE10do_unshiftERiPcS2_RS2_
008a7e60   _ZNKSt7codecvtIcciE5do_inERiPKcS3_RS3_PcS5_RS5_
008a7e80   _ZNKSt7codecvtIcciE6do_outERiPKcS3_RS3_PcS5_RS5_
008a7ea0   _ZNKSt7codecvtIcciE9do_lengthERKiPKcS4_j
008a7ec0   _ZNKSt7codecvtIwciE11do_encodingEv
008a7ee0   _ZNKSt7codecvtIwciE13do_max_lengthEv
008a7f00   _ZNKSt7codecvtIwciE16do_always_noconvEv
008a7f20   _ZNKSt8_Locinfo8_GettrueEv
008a7f40   _ZNKSt8_Locinfo9_GetfalseEv
008a7f60   _ZNKSt8_Locinfo9_GetlconvEv
008a7f80   _ZNKSt8ios_base4failEv
008a7fa0   _ZNKSt8ios_base4goodEv
008a7fc0   _ZNKSt8ios_base5flagsEv
008a7fe0   _ZNKSt8ios_base5widthEv
008a8000   _ZNKSt8ios_base6getlocEv
008a8020   _ZNKSt8ios_base7failure8_DoraiseEv
008a8040   _ZNKSt8ios_base7rdstateEv
008a8060   _ZNKSt8ios_base9precisionEv
008a8080   _ZNKSt8numpunctIcE11do_groupingEv
008a80a0   _ZNKSt8numpunctIcE11do_truenameEv
008a80c0   _ZNKSt8numpunctIcE12do_falsenameEv
008a80e0   _ZNKSt8numpunctIcE13decimal_pointEv
008a8100   _ZNKSt8numpunctIcE13thousands_sepEv
008a8120   _ZNKSt8numpunctIcE16do_decimal_pointEv
008a8140   _ZNKSt8numpunctIcE16do_thousands_sepEv
008a8160   _ZNKSt9basic_iosIcSt11char_traitsIcEE3tieEv
008a8180   _ZNKSt9basic_iosIcSt11char_traitsIcEE4fillEv
008a81a0   _ZNKSt9basic_iosIcSt11char_traitsIcEE5rdbufEv
008a81c0   _ZNKSt9exception4whatEv
008a81e0   _ZNKSt9exception8_DoraiseEv
008a8200   _ZNSaIcE10deallocateEPcj
008a8220   _ZNSaIcE8allocateEj
008a8240   _ZNSaIcEC1ERKS_
008a8260   _ZNSaIcEC1Ev
008a8280   _ZNSo12_Sentry_baseC2ERSo
008a82a0   _ZNSo12_Sentry_baseD2Ev
008a82c0   _ZNSo6sentryD1Ev
008a82e0   _ZNSolsEPFRSoS_E
008a8300   _ZNSsD1Ev
008a8320   _ZNSsixEj
008a8340   _ZNSt10ctype_baseC2Ej
008a8360   _ZNSt10ctype_baseD0Ev
008a8380   _ZNSt10ctype_baseD1Ev
008a83a0   _ZNSt10ctype_baseD2Ev
008a83c0   _ZNSt11_String_valIcSaIcEEC1ES0_
008a83e0   _ZNSt11_String_valIcSaIcEEC2ES0_
008a8400   _ZNSt11char_traitsIcE11eq_int_typeERKiS2_
008a8420   _ZNSt11char_traitsIcE11to_int_typeERKc
008a8440   _ZNSt11char_traitsIcE3eofEv
008a8460   _ZNSt11char_traitsIcE4copyEPcPKcj
008a8480   _ZNSt11char_traitsIcE4moveEPcPKcj
008a84a0   _ZNSt11char_traitsIcE6assignERcRKc
008a84c0   _ZNSt11char_traitsIcE6lengthEPKc
008a84e0   _ZNSt12codecvt_baseD0Ev
008a8500   _ZNSt12codecvt_baseD1Ev
008a8520   _ZNSt13_Complex_baseIfSt16_C_float_complexE4imagERKf
008a8540   _ZNSt13_Complex_baseIfSt16_C_float_complexE4realERKf
008a8560   _ZNSt13_Complex_baseIfSt16_C_float_complexEC2ERKfS3_
008a8580   _ZNSt15basic_streambufIcSt11char_traitsIcEE4syncEv
008a85a0   _ZNSt15basic_streambufIcSt11char_traitsIcEE5_LockEv
008a85c0   _ZNSt15basic_streambufIcSt11char_traitsIcEE5imbueERKSt6locale
008a85e0   _ZNSt15basic_streambufIcSt11char_traitsIcEE6_PnincEv
008a8600   _ZNSt15basic_streambufIcSt11char_traitsIcEE6setbufEPci
008a8620   _ZNSt15basic_streambufIcSt11char_traitsIcEE7_UnlockEv
008a8640   _ZNSt15basic_streambufIcSt11char_traitsIcEE7pubsyncEv
008a8660   _ZNSt15basic_streambufIcSt11char_traitsIcEE8overflowEi
008a8680   _ZNSt15basic_streambufIcSt11char_traitsIcEE9pbackfailEi
008a86a0   _ZNSt15basic_streambufIcSt11char_traitsIcEE9showmanycEv
008a86c0   _ZNSt15basic_streambufIcSt11char_traitsIcEE9underflowEv
008a86e0   _ZNSt15basic_streambufIwSt11char_traitsIwEE4syncEv
008a8700   _ZNSt15basic_streambufIwSt11char_traitsIwEE5_LockEv
008a8720   _ZNSt15basic_streambufIwSt11char_traitsIwEE5imbueERKSt6locale
008a8740   _ZNSt15basic_streambufIwSt11char_traitsIwEE6setbufEPwi
008a8760   _ZNSt15basic_streambufIwSt11char_traitsIwEE7_UnlockEv
008a8780   _ZNSt15basic_streambufIwSt11char_traitsIwEE8overflowEj
008a87a0   _ZNSt15basic_streambufIwSt11char_traitsIwEE9pbackfailEj
008a87c0   _ZNSt15basic_streambufIwSt11char_traitsIwEE9showmanycEv
008a87e0   _ZNSt15basic_streambufIwSt11char_traitsIwEE9underflowEv
008a8800   _ZNSt19ostreambuf_iteratorIcSt11char_traitsIcEEdeEv
008a8820   _ZNSt19ostreambuf_iteratorIcSt11char_traitsIcEEppEv
008a8840   _ZNSt5ctypeIcE5_InitERKSt8_Locinfo
008a8860   _ZNSt5ctypeIcED0Ev
008a8880   _ZNSt6locale2idC1Ej
008a88a0   _ZNSt6locale5facetC2Ej
008a88c0   _ZNSt6locale5facetD0Ev
008a88e0   _ZNSt6locale5facetD1Ev
008a8900   _ZNSt6locale5facetD2Ev
008a8920   _ZNSt7_LockitC1Ei
008a8940   _ZNSt7_LockitD1Ev
008a8960   _ZNSt7codecvtIcciED0Ev
008a8980   _ZNSt7codecvtIcciED1Ev
008a89a0   _ZNSt7codecvtIwciED0Ev
008a89c0   _ZNSt7codecvtIwciED1Ev
008a89e0   _ZNSt7complexIfEC1ERKfS2_
008a8a00   _ZNSt7complexIfEdVIfEERS0_RKS_IT_E
008a8a20   _ZNSt7complexIfEmIIfEERS0_RKS_IT_E
008a8a40   _ZNSt7complexIfEmLIfEERS0_RKS_IT_E
008a8a60   _ZNSt7complexIfEpLIfEERS0_RKS_IT_E
008a8a80   _ZNSt7num_putIcSt19ostreambuf_iteratorIcSt11char_traitsIcEEE5_InitERKSt8_Locinfo
008a8aa0   _ZNSt7num_putIcSt19ostreambuf_iteratorIcSt11char_traitsIcEEED0Ev
008a8ac0   _ZNSt7num_putIcSt19ostreambuf_iteratorIcSt11char_traitsIcEEED1Ev
008a8ae0   _ZNSt8_CtraitsIfE4sqrtEf
008a8b00   _ZNSt8_CtraitsIfE5_InfvEf
008a8b20   _ZNSt8_CtraitsIfE5_NanvEf
008a8b40   _ZNSt8_CtraitsIfE5ldexpEfi
008a8b60   _ZNSt8_CtraitsIfE6_IsinfEf
008a8b80   _ZNSt8_CtraitsIfE6_IsnanEf
008a8ba0   _ZNSt8numpunctIcED0Ev
008a8bc0   _ZNSt9basic_iosIcSt11char_traitsIcEED1Ev
008a8be0   _ZNSt9basic_iosIwSt11char_traitsIwEED1Ev
008a8c00   _ZNSt9exceptionD0Ev
008a8c20   _ZNSt9exceptionD1Ev
008a8c40   _ZSt10_MaklocchrIcET_cPS0_RKSt7_Cvtvec
008a8c80   _ZSt4imagIfET_RKSt7complexIS0_E
008a8ca0   _ZSt4realIfET_RKSt7complexIS0_E
008a8cc0   _ZSt4sqrtf
008a8ce0   _ZSt8_ToloweriPKSt9_Ctypevec
008a8d00   _ZSt8_ToupperiPKSt9_Ctypevec
008a8d20   _ZSt9_AllocateIcEPT_jS1_
008a8d40   _ZStanNSt5_IosbIiE9_FmtflagsES1_
008a8d60   _ZdaPv
008a8d60   _ZdlPv
008a8d80   _ZnwjPv
008a8da0   __c6xabi_errno_addr
008a8dc0   __c6xabi_truncf
008a8de0   __cxa_atexit
008a8e00   __cxa_guard_acquire
008a8e20   __cxa_guard_release
008a8e40   __cxa_ia64_exit
008a8e60   __memzero
008a8e80   __xdc__init
008a8ea0   _nop
008a8f20   _register_lock
008a8f40   _register_unlock
008a8f60   ti_sysbios_family_c62_TaskSupport_glue
008a8f80   C$$EXIT
008a8f80   abort
008a8f80   xdc_runtime_System_abortStd__E
008a8fa0   atexit
008a8fc0   __TI_decompress_none
008a8fe0   __TI_decompress_rle24
008a9000   fgetwc
008a9020   fputwc
008a9040   fsetpos
008a9060   localeconv
008a9080   ti_sysbios_BIOS_RtsGateProxy_enter__E
008a90a0   ti_sysbios_BIOS_RtsGateProxy_leave__E
008a90c0   ti_sysbios_BIOS_nullFunc__I
008a90e0   ti_sysbios_BIOS_setThreadType__E
008a9100   ti_sysbios_BIOS_start__E
008a9120   ti_sysbios_family_c62_TaskSupport_Module__startupDone__S
008a9140   ti_sysbios_family_c62_TaskSupport_checkStack__E
008a9140   ti_sysbios_knl_Task_SupportProxy_checkStack__E
008a9160   ti_sysbios_family_c64p_Hwi_clearInterrupt__E
008a9160   ti_sysbios_hal_Hwi_HwiProxy_clearInterrupt__E
008a9180   ti_sysbios_family_c64p_Hwi_startup__E
008a9180   ti_sysbios_hal_Hwi_HwiProxy_startup__E
008a91a0   ti_sysbios_family_c64p_Hwi_switchFromBootStack__E
008a91a0   ti_sysbios_hal_Hwi_HwiProxy_switchFromBootStack__E
008a91c0   ti_sysbios_family_c64p_TimestampProvider_Module_startup__E
008a91e0   ti_sysbios_family_c64p_TimestampProvider_get64__E
008a91e0   xdc_runtime_LoggerBuf_TimestampProxy_get64__E
008a9200   ti_sysbios_family_c64p_tci6488_TimerSupport_enable__E
008a9200   ti_sysbios_timers_timer64_Timer_TimerSupportProxy_enable__E
008a9220   ti_sysbios_gates_GateHwi_Instance_init__E
008a9240   ti_sysbios_gates_GateHwi_enter__E
008a9260   ti_sysbios_gates_GateHwi_leave__E
008a9280   ti_sysbios_gates_GateHwi_query__E
008a9280   xdc_runtime_LoggerBuf_Module_GateProxy_query__E
008a9280   xdc_runtime_Main_Module_GateProxy_query__E
008a9280   xdc_runtime_System_Module_GateProxy_query__E
008a92a0   ti_sysbios_gates_GateMutex_Instance_finalize__E
008a92c0   ti_sysbios_BIOS_RtsGateProxy_query__E
008a92c0   ti_sysbios_gates_GateMutex_query__E
008a92c0   ti_sysbios_heaps_HeapMem_Module_GateProxy_query__E
008a92e0   ti_sysbios_hal_Hwi_HwiProxy_Module__startupDone__S
008a9300   ti_sysbios_hal_Hwi_Module_startup__E
008a9320   ti_sysbios_heaps_HeapMem_Module_GateProxy_enter__E
008a9340   ti_sysbios_heaps_HeapMem_Module_GateProxy_leave__E
008a9360   ti_sysbios_heaps_HeapMem_isBlocking__E
008a9380   ti_sysbios_knl_Clock_TimerProxy_Module__startupDone__S
008a93a0   ti_sysbios_knl_Clock_TimerProxy_getMaxTicks__E
008a93c0   ti_sysbios_knl_Clock_getTicks__E
008a93e0   ti_sysbios_knl_Idle_loop__E
008a9400   ti_sysbios_knl_Queue_Instance_init__E
008a9420   ti_sysbios_knl_Queue_Object__get__S
008a9440   ti_sysbios_knl_Queue_destruct
008a9460   ti_sysbios_knl_Queue_empty__E
008a9480   ti_sysbios_knl_Semaphore_Instance_finalize__E
008a94a0   ti_sysbios_knl_Semaphore_destruct
008a94c0   ti_sysbios_knl_Swi_disable__E
008a94e0   ti_sysbios_knl_Task_SupportProxy_Module__startupDone__S
008a9500   ti_sysbios_knl_Task_disable__E
008a9520   ti_sysbios_knl_Task_startup__E
008a9540   ti_sysbios_timers_timer64_Timer_getMaxTicks__E
008a9560   tolower
008a9580   toupper
008a95a0   wctomb
008a95c0   xdc_runtime_Gate_enterSystem__E
008a9620   xdc_runtime_LoggerBuf_Module_GateProxy_enter__E
008a9640   xdc_runtime_LoggerBuf_Module_GateProxy_leave__E
008a9660   xdc_runtime_LoggerBuf_disable__E
008a9680   xdc_runtime_LoggerBuf_enable__E
008a96a0   xdc_runtime_Memory_HeapProxy_alloc__E
008a96c0   xdc_runtime_Memory_HeapProxy_free__E
008a96e0   xdc_runtime_Startup_exec__I
008a9700   xdc_runtime_Startup_reset__I
008a9720   xdc_runtime_SysMin_ready__E
008a9720   xdc_runtime_System_SupportProxy_ready__E
008a9740   xdc_runtime_System_Module_GateProxy_enter__E
008a9760   xdc_runtime_System_Module_GateProxy_leave__E
008a9780   xdc_runtime_System_Module_startup__E
008a97a0   xdc_runtime_System_snprintf_va__E
008a97a0   xdc_runtime_System_snprintf_va__F
008a97a0   xdc_runtime_System_vsnprintf__E
008a97c0   xdc_runtime_Text_visitRope__I
008a97e0   xdc_runtime_Text_charTab__A
008aae06   ti_sysbios_family_c64p_Exception_Module__id__C
008ab320   ti_sysbios_family_c66_Cache_marvalues__C
008abb72   ti_sysbios_family_c64p_Exception_useInternalBuffer__C
008abce0   _ctypes_
008abde1   ti_sysbios_timers_timer64_Timer_localTimerBaseId__C
008abde2   ti_sysbios_family_c64p_Hwi_Module__id__C
008abde8   xdc_runtime_Text_nodeTab__A
008abff8   _ZTVSt13basic_filebufIcSt11char_traitsIcEE
008ac040   _ZTVSt13basic_filebufIwSt11char_traitsIwEE
008ac088   _ZTVSt15basic_streambufIcSt11char_traitsIcEE
008ac0d0   _ZTVSt15basic_streambufIwSt11char_traitsIwEE
008ac158   _ZTVSt5ctypeIwE
008ac198   xdc_runtime_LoggerBuf_Module__FXNS__C
008ac1d8   _ZTSSt7num_putIcSt19ostreambuf_iteratorIcSt11char_traitsIcEEE
008ac212   ti_sysbios_family_c64p_Hwi_Module__loggerDefined__C
008ac278   _ZTVSi
008ac2a0   _ZTTSi
008ac2a8   _ZTVSo
008ac2d0   _ZTTSo
008ac2d8   _ZTVSt13basic_istreamIwSt11char_traitsIwEE
008ac300   _ZTTSt13basic_istreamIwSt11char_traitsIwEE
008ac308   _ZTVSt13basic_ostreamIwSt11char_traitsIwEE
008ac330   _ZTTSt13basic_ostreamIwSt11char_traitsIwEE
008ac338   _ZTVSt5ctypeIcE
008ac368   _ZTVSt7num_putIcSt19ostreambuf_iteratorIcSt11char_traitsIcEEE
008ac398   xdc_runtime_Startup_sfxnTab__A
008ac3f4   _ZNSs4nposE
008ac3f8   _ZTVSt7codecvtIcciE
008ac424   _ZSt7_BADOFF
008ac428   _ZTVSt7codecvtIwciE
008ac454   ti_sysbios_family_c64p_Exception_E_exceptionMax__C
008ac458   _ZTSSt15basic_streambufIcSt11char_traitsIcEE
008ac482   ti_sysbios_gates_GateMutex_Module__id__C
008ac484   ti_sysbios_family_c64p_Exception_exceptionHook__C
008ac488   _ZTSSt15basic_streambufIwSt11char_traitsIwEE
008ac4b2   ti_sysbios_hal_Hwi_Module__id__C
008ac4b4   ti_sysbios_heaps_HeapMem_Module__FXNS__C
008ac4dc   xdc_runtime_LoggerBuf_Object__PARAMS__C
008ac504   ti_sysbios_family_c64p_Exception_externalHook__C
008ac508   _ZTSSt13basic_filebufIcSt11char_traitsIcEE
008ac530   _ZTSSt13basic_filebufIwSt11char_traitsIwEE
008ac558   _ZTSSt13basic_istreamIwSt11char_traitsIwEE
008ac580   _ZTSSt13basic_ostreamIwSt11char_traitsIwEE
008ac5a8   _ZTSN10__cxxabiv121__vmi_class_type_infoE
008ac5ce   ti_sysbios_heaps_HeapMem_Module__id__C
008ac5d0   _ZTSN10__cxxabiv120__si_class_type_infoE
008ac5f6   ti_sysbios_knl_Clock_Module__id__C
008ac61c   ti_sysbios_family_c64p_Exception_internalHook__C
008ac620   _ZTVSt8numpunctIcE
008ac644   ti_sysbios_gates_GateHwi_Module__FXNS__C
008ac668   ti_sysbios_gates_GateMutex_Module__FXNS__C
008ac68c   ti_sysbios_heaps_HeapMem_Object__PARAMS__C
008ac6b0   ti_sysbios_knl_Semaphore_Object__PARAMS__C
008ac6d4   ti_sysbios_family_c64p_Exception_nmiHook__C
008ac6d8   _ZTSN10__cxxabiv117__class_type_infoE
008ac6fa   ti_sysbios_knl_Clock_Module__loggerDefined__C
008ac6fc   ti_sysbios_family_c64p_Hwi_LD_end__C
008ac700   _ZTSSt9basic_iosIcSt11char_traitsIcEE
008ac722   ti_sysbios_knl_Semaphore_Module__id__C
008ac724   ti_sysbios_family_c64p_Hwi_LM_begin__C
008ac728   _ZTSSt9basic_iosIwSt11char_traitsIwEE
008ac74a   ti_sysbios_knl_Semaphore_Module__loggerDefined__C
008ac76c   ti_sysbios_gates_GateHwi_Object__DESC__C
008ac78c   ti_sysbios_gates_GateMutex_Object__DESC__C
008ac7ac   ti_sysbios_heaps_HeapMem_Object__DESC__C
008ac7cc   ti_sysbios_knl_Queue_Object__DESC__C
008ac7ec   ti_sysbios_knl_Semaphore_Object__DESC__C
008ac80c   xdc_runtime_LoggerBuf_Object__DESC__C
008ac82c   ti_sysbios_family_c64p_Hwi_Module__diagsEnabled__C
008ac830   _ZTVSt12codecvt_base
008ac864   _ZTISi
008ac87c   _ZTISo
008ac894   _ZTISt13basic_istreamIwSt11char_traitsIwEE
008ac8ac   _ZTISt13basic_ostreamIwSt11char_traitsIwEE
008ac8c4   ti_sysbios_family_c64p_Hwi_Module__diagsIncluded__C
008ac8c8   _ZTVNSt8ios_base7failureE
008ac8e0   _ZTVSt11logic_error
008ac8f8   _ZTVSt12length_error
008ac910   _ZTVSt12out_of_range
008ac928   _ZTVSt13runtime_error
008ac940   _ZTVSt9exception
008ac958   ti_sysbios_gates_GateHwi_Object__PARAMS__C
008ac970   ti_sysbios_gates_GateMutex_Object__PARAMS__C
008ac988   ti_sysbios_knl_Queue_Object__PARAMS__C
008ac9a0   xdc_runtime_Startup_sfxnRts__A
008ac9b8   _ZTSNSt8ios_base7failureE
008ac9ce   ti_sysbios_knl_Swi_Module__id__C
008ac9e4   ti_sysbios_family_c64p_Hwi_Module__diagsMask__C
008ac9e8   _ZTSNSt6locale7_LocimpE
008ac9fc   ti_sysbios_family_c64p_Hwi_Module__loggerFxn1__C
008aca00   _ZTSNSt6locale5facetE
008aca12   ti_sysbios_knl_Swi_Module__loggerDefined__C
008aca14   ti_sysbios_family_c64p_Hwi_Module__loggerFxn8__C
008aca18   _ZTSSt13runtime_error
008aca2a   ti_sysbios_knl_Task_Module__id__C
008aca2c   ti_sysbios_family_c64p_Hwi_Module__loggerObj__C
008aca30   _ZTSSt12codecvt_base
008aca42   ti_sysbios_knl_Task_Module__loggerDefined__C
008aca44   ti_sysbios_gates_GateMutex_A_badContext__C
008aca48   _ZTSSt12length_error
008aca5a   ti_sysbios_knl_Task_initStackFlag__C
008aca5c   ti_sysbios_gates_GateMutex_Instance_State_sem__O
008aca60   _ZTSSt12out_of_range
008aca72   ti_sysbios_timers_timer64_Timer_Module__id__C
008aca74   _ZTIN10__cxxabiv117__class_type_infoE
008aca92   ti_sysbios_timers_timer64_Timer_startupNeeded__C
008aca94   ti_sysbios_gates_GateMutex_Module__diagsEnabled__C
008aca98   _ZTSSt11logic_error
008acaa8   _ZTSSt7codecvtIcciE
008acab8   _ZTSSt7codecvtIwciE
008acac8   _ZTVN10__cxxabiv117__class_type_infoE
008acad8   _ZTVN10__cxxabiv120__si_class_type_infoE
008acae8   _ZTVN10__cxxabiv121__vmi_class_type_infoE
008acaf8   _ZTVNSt6locale5facetE
008acb08   _ZTVNSt6locale7_LocimpE
008acb18   _ZTVSt10ctype_base
008acb28   _ZTVSt8ios_base
008acb38   _ZTVSt9basic_iosIcSt11char_traitsIcEE
008acb48   _ZTVSt9basic_iosIwSt11char_traitsIwEE
008acb58   _ZTSSt10ctype_base
008acb68   _ZTSSt8numpunctIcE
008acb78   _ZTSSt9exception
008acb86   ti_sysbios_timers_timer64_Timer_useTimer64pRegMap__C
008acb88   _ZTSSt9type_info
008acb96   xdc_runtime_Core_Module__id__C
008acb98   _ZTIN10__cxxabiv120__si_class_type_infoE
008acba4   _ZTIN10__cxxabiv121__vmi_class_type_infoE
008acbb0   _ZTINSt6locale7_LocimpE
008acbbc   _ZTINSt8ios_base7failureE
008acbc8   _ZTISt10ctype_base
008acbd4   _ZTISt11logic_error
008acbe0   _ZTISt12codecvt_base
008acbec   _ZTISt12length_error
008acbf8   _ZTISt12out_of_range
008acc04   _ZTISt13basic_filebufIcSt11char_traitsIcEE
008acc10   _ZTISt13basic_filebufIwSt11char_traitsIwEE
008acc1c   _ZTISt13runtime_error
008acc28   _ZTISt5ctypeIcE
008acc34   _ZTISt5ctypeIwE
008acc40   _ZTISt7codecvtIcciE
008acc4c   _ZTISt7codecvtIwciE
008acc58   _ZTISt7num_putIcSt19ostreambuf_iteratorIcSt11char_traitsIcEEE
008acc64   _ZTISt8ios_base
008acc70   _ZTISt8numpunctIcE
008acc7c   _ZTISt9basic_iosIcSt11char_traitsIcEE
008acc88   _ZTISt9basic_iosIwSt11char_traitsIwEE
008acc94   ti_sysbios_gates_GateMutex_Module__diagsIncluded__C
008acc98   _ZTSSt5_IosbIiE
008acca4   ti_sysbios_gates_GateMutex_Module__diagsMask__C
008acca8   _ZTSSt5ctypeIcE
008accb4   ti_sysbios_hal_Hwi_E_stackOverflow__C
008accb8   _ZTSSt5ctypeIwE
008accc4   ti_sysbios_heaps_HeapMem_A_align__C
008accc8   _ZTSSt8ios_base
008accd4   ti_sysbios_family_c66_Cache_initSize__C
008accea   xdc_runtime_Error_Module__loggerDefined__C
008accfc   _ZTINSt6locale5facetE
008acd04   _ZTISt15basic_streambufIcSt11char_traitsIcEE
008acd0c   _ZTISt15basic_streambufIwSt11char_traitsIwEE
008acd14   _ZTISt5_IosbIiE
008acd1c   _ZTISt9exception
008acd24   _ZTISt9type_info
008acd34   ti_sysbios_heaps_HeapMem_A_heapSize__C
008acd38   ti_sysbios_knl_Idle_funcList__A
008acd40   ti_sysbios_knl_Idle_funcList__C
008acd48   xdc_runtime_Startup_firstFxns__A
008acd50   xdc_runtime_Startup_firstFxns__C
008acd58   xdc_runtime_Startup_lastFxns__C
008acd60   _ZZNKSt8_Locinfo9_GetfalseEvEs
008acd66   xdc_runtime_Error_maxDepth__C
008acd68   _ZZNKSt8_Locinfo8_GettrueEvEs
008acd6e   xdc_runtime_LoggerBuf_Module__id__C
008acd70   ti_sysbios_heaps_HeapMem_A_invalidFree__C
008acd74   ti_sysbios_heaps_HeapMem_A_zeroBlock__C
008acd78   ti_sysbios_heaps_HeapMem_E_memory__C
008acd7c   ti_sysbios_heaps_HeapMem_Module__diagsEnabled__C
008acd80   ti_sysbios_heaps_HeapMem_Module__diagsIncluded__C
008acd84   ti_sysbios_heaps_HeapMem_Module__diagsMask__C
008acd88   ti_sysbios_heaps_HeapMem_Module__gateObj__C
008acd8c   ti_sysbios_heaps_HeapMem_Object__count__C
008acd90   ti_sysbios_heaps_HeapMem_reqAlign__C
008acd94   ti_sysbios_knl_Clock_LM_begin__C
008acd98   ti_sysbios_knl_Clock_LM_tick__C
008acd9c   ti_sysbios_knl_Clock_LW_delayed__C
008acda0   ti_sysbios_knl_Clock_Module_State_clockQ__O
008acda4   ti_sysbios_knl_Clock_Module__diagsEnabled__C
008acda8   ti_sysbios_knl_Clock_Module__diagsIncluded__C
008acdac   ti_sysbios_knl_Clock_Module__diagsMask__C
008acdb0   ti_sysbios_knl_Clock_Module__loggerFxn1__C
008acdb4   ti_sysbios_knl_Clock_Module__loggerFxn2__C
008acdb8   ti_sysbios_knl_Clock_Module__loggerObj__C
008acdbc   ti_sysbios_knl_Semaphore_A_badContext__C
008acdc0   ti_sysbios_knl_Semaphore_A_noEvents__C
008acdc4   ti_sysbios_knl_Semaphore_A_overflow__C
008acdc8   ti_sysbios_knl_Semaphore_A_pendTaskDisabled__C
008acdcc   ti_sysbios_knl_Semaphore_Instance_State_pendQ__O
008acdd0   ti_sysbios_knl_Semaphore_LM_pend__C
008acdd4   ti_sysbios_knl_Semaphore_LM_post__C
008acdd8   ti_sysbios_knl_Semaphore_Module__diagsEnabled__C
008acddc   ti_sysbios_knl_Semaphore_Module__diagsIncluded__C
008acde0   ti_sysbios_knl_Semaphore_Module__diagsMask__C
008acde4   ti_sysbios_knl_Semaphore_Module__loggerFxn2__C
008acde8   ti_sysbios_knl_Semaphore_Module__loggerFxn4__C
008acdec   ti_sysbios_knl_Semaphore_Module__loggerObj__C
008acdf0   ti_sysbios_knl_Swi_LD_end__C
008acdf4   ti_sysbios_knl_Swi_LM_begin__C
008acdf8   ti_sysbios_knl_Swi_LM_post__C
008acdfc   ti_sysbios_knl_Swi_Module__diagsEnabled__C
008ace00   ti_sysbios_knl_Swi_Module__diagsIncluded__C
008ace04   ti_sysbios_knl_Swi_Module__diagsMask__C
008ace08   ti_sysbios_knl_Swi_Module__loggerFxn1__C
008ace0c   ti_sysbios_knl_Swi_Module__loggerFxn4__C
008ace10   ti_sysbios_knl_Swi_Module__loggerObj__C
008ace14   ti_sysbios_knl_Swi_Object__count__C
008ace18   ti_sysbios_knl_Task_E_spOutOfBounds__C
008ace1c   ti_sysbios_knl_Task_E_stackOverflow__C
008ace20   ti_sysbios_knl_Task_LD_block__C
008ace24   ti_sysbios_knl_Task_LD_exit__C
008ace28   ti_sysbios_knl_Task_LD_ready__C
008ace2c   ti_sysbios_knl_Task_LM_switch__C
008ace30   ti_sysbios_knl_Task_Module_State_inactiveQ__O
008ace34   ti_sysbios_knl_Task_Module__diagsEnabled__C
008ace38   ti_sysbios_knl_Task_Module__diagsIncluded__C
008ace3c   ti_sysbios_knl_Task_Module__diagsMask__C
008ace40   ti_sysbios_knl_Task_Module__loggerFxn2__C
008ace44   ti_sysbios_knl_Task_Module__loggerFxn4__C
008ace48   ti_sysbios_knl_Task_Module__loggerObj__C
008ace4c   ti_sysbios_knl_Task_Object__count__C
008ace50   ti_sysbios_knl_Task_allBlockedFunc__C
008ace54   ti_sysbios_knl_Task_numConstructedTasks__C
008ace58   ti_sysbios_timers_timer64_Timer_A_notAvailable__C
008ace5c   ti_sysbios_timers_timer64_Timer_E_cannotSupport__C
008ace60   ti_sysbios_timers_timer64_Timer_Module__diagsEnabled__C
008ace64   ti_sysbios_timers_timer64_Timer_Module__diagsIncluded__C
008ace68   ti_sysbios_timers_timer64_Timer_Module__diagsMask__C
008ace6c   ti_sysbios_timers_timer64_Timer_anyMaskHigh__C
008ace70   ti_sysbios_timers_timer64_Timer_anyMask__C
008ace74   ti_sysbios_timers_timer64_Timer_freqDivisor__C
008ace78   ti_sysbios_timers_timer64_Timer_numLocalTimers__C
008ace7c   ti_sysbios_timers_timer64_Timer_numTimerDevices__C
008ace80   xdc_runtime_Assert_E_assertFailed__C
008ace84   xdc_runtime_Core_A_initializedParams__C
008ace88   xdc_runtime_Core_Module__diagsEnabled__C
008ace8c   xdc_runtime_Core_Module__diagsIncluded__C
008ace90   xdc_runtime_Core_Module__diagsMask__C
008ace94   xdc_runtime_Error_E_memory__C
008ace98   xdc_runtime_Error_Module__diagsEnabled__C
008ace9c   xdc_runtime_Error_Module__diagsIncluded__C
008acea0   xdc_runtime_Error_Module__diagsMask__C
008acea4   xdc_runtime_Error_Module__loggerFxn8__C
008acea8   xdc_runtime_Error_Module__loggerObj__C
008aceac   xdc_runtime_Error_policyFxn__C
008aceb0   xdc_runtime_Error_policy__C
008aceb4   xdc_runtime_Error_raiseHook__C
008aceb8   xdc_runtime_IFilterLogger_Interface__BASE__C
008acebc   xdc_runtime_IGateProvider_Interface__BASE__C
008acec0   xdc_runtime_IHeap_Interface__BASE__C
008acec4   xdc_runtime_ILogger_Interface__BASE__C
008acec8   xdc_runtime_IModule_Interface__BASE__C
008acecc   xdc_runtime_Log_L_error__C
008aced0   xdc_runtime_LoggerBuf_E_badLevel__C
008aced4   xdc_runtime_LoggerBuf_Module__gateObj__C
008aced8   xdc_runtime_LoggerBuf_Object__count__C
008acedc   xdc_runtime_LoggerBuf_statusLogger__C
008acee0   xdc_runtime_Memory_defaultHeapInstance__C
008acee4   xdc_runtime_Startup_execImpl__C
008acee8   xdc_runtime_Startup_maxPasses__C
008aceec   xdc_runtime_Startup_sfxnRts__C
008acef0   xdc_runtime_Startup_sfxnTab__C
008acef4   xdc_runtime_SysMin_bufSize__C
008acef8   xdc_runtime_SysMin_outputFunc__C
008acefc   xdc_runtime_System_Module__gateObj__C
008acf00   xdc_runtime_System_abortFxn__C
008acf04   xdc_runtime_System_exitFxn__C
008acf08   xdc_runtime_System_extendFxn__C
008acf0c   xdc_runtime_System_maxAtexitHandlers__C
008acf10   xdc_runtime_Text_charTab__C
008acf14   xdc_runtime_Text_nameEmpty__C
008acf18   xdc_runtime_Text_nameStatic__C
008acf1c   xdc_runtime_Text_nameUnknown__C
008acf20   xdc_runtime_Text_nodeTab__C
008acf24   xdc_runtime_Text_visitRopeFxn__C
008acf28   _ZZNKSt7num_putIcSt19ostreambuf_iteratorIcSt11char_traitsIcEEE6do_putES3_RSt8ios_basecPKvEs
008acf2c   xdc_runtime_LoggerBuf_filterByLevel__C
008acf2e   xdc_runtime_Memory_Module__id__C
008acf30   _ZZNKSt7num_putIcSt19ostreambuf_iteratorIcSt11char_traitsIcEEE6do_putES3_RSt8ios_baseclEs
008acf34   xdc_runtime_SysMin_flushAtExit__C
008acf36   xdc_runtime_Text_charCnt__C
008acf38   _ZZNKSt7num_putIcSt19ostreambuf_iteratorIcSt11char_traitsIcEEE6do_putES3_RSt8ios_basecmEs
008acf3c   xdc_runtime_Text_isLoaded__C
008acf3e   xdc_runtime_Text_registryModsLastId__C
008acf40   _ZZNKSt7num_putIcSt19ostreambuf_iteratorIcSt11char_traitsIcEEE6do_putES3_RSt8ios_basecxEs
008acf44   xdc_runtime_Text_unnamedModsLastId__C
008acf48   _ZZNKSt7num_putIcSt19ostreambuf_iteratorIcSt11char_traitsIcEEE6do_putES3_RSt8ios_basecyEs
008acf50   _ZTSSi
008acf58   _ZTSSo
008acf60   _ZZNKSt7num_putIcSt19ostreambuf_iteratorIcSt11char_traitsIcEEE5_FputES3_RSt8ios_basecPKcjjjjEs
008acf68   _ZZNKSt7num_putIcSt19ostreambuf_iteratorIcSt11char_traitsIcEEE5_FputES3_RSt8ios_basecPKcjjjjEs_0
008acf70   _stack
008aef70   __TI_STACK_END
008aef70   ti_sysbios_BIOS_Module__state__V
008aef94   ti_sysbios_family_c64p_Exception_Module__state__V
008aefc4   ti_sysbios_family_c64p_Hwi_Module__root__V
008aefcc   ti_sysbios_family_c64p_Hwi_Module__state__V
008af034   ti_sysbios_gates_GateHwi_Module__root__V
008af03c   ti_sysbios_gates_GateMutex_Module__root__V
008af044   ti_sysbios_hal_Hwi_Module__root__V
008af04c   ti_sysbios_heaps_HeapMem_Module__root__V
008af054   ti_sysbios_knl_Clock_Module__root__V
008af05c   ti_sysbios_knl_Clock_Module__state__V
008af088   ti_sysbios_knl_Queue_Module__root__V
008af090   ti_sysbios_knl_Semaphore_Module__root__V
008af098   ti_sysbios_knl_Swi_Module__root__V
008af0a0   ti_sysbios_knl_Swi_Module__state__V
008af0bc   ti_sysbios_knl_Task_Module__root__V
008af0c4   ti_sysbios_knl_Task_Module__state__V
008af108   ti_sysbios_timers_timer64_Timer_Module__root__V
008af110   ti_sysbios_timers_timer64_Timer_Module__state__V
008af128   xdc_runtime_Error_Module__state__V
008af12c   xdc_runtime_LoggerBuf_Module__root__V
008af134   xdc_runtime_LoggerBuf_Module__state__V
008af13c   xdc_runtime_Memory_Module__state__V
008af140   xdc_runtime_Registry_Module__state__V
008af148   xdc_runtime_Startup_Module__state__V
008af150   xdc_runtime_SysMin_Module__state__V
008af15c   xdc_runtime_System_Module__state__V
008af164   xdc_runtime_Text_Module__state__V
008af16c   __xdc__init__addr
008af170   _ftable
008af350   ti_sysbios_timers_timer64_Timer_Module_State_0_device__A
008af4b0   ti_sysbios_knl_Task_Object__table__V
008af4fc   TSK_idle
008af548   ti_sysbios_knl_Swi_Object__table__V
008af5d8   ti_sysbios_knl_Swi_Module_State_0_readyQ__A
008af658   ti_sysbios_knl_Task_Module_State_0_readyQ__A
008af750   _FDenorm
008af760   _FEps
008af770   _FInf
008af780   _FNan
008af790   _FSnan
008af7a0   _FRteps
008af7b0   _FXbig
008af7b4   _FZero
008af7b8   ti_sysbios_timers_timer64_Timer_Object__table__V
008af84c   _ZNSt9_FacetptrISt5ctypeIcEE6_PsaveE
008af850   ti_sysbios_gates_GateMutex_Object__table__V
008af890   ti_sysbios_knl_Clock_Object__table__V
008af8d0   ti_sysbios_timers_timer64_Timer_Module_State_0_gctrl__A
008af910   ti_sysbios_timers_timer64_Timer_Module_State_0_handles__A
008af950   ti_sysbios_timers_timer64_Timer_Module_State_0_intFreqs__A
008af990   C_locale
008af9c4   _ZNSt9_FacetptrISt5ctypeIwEE6_PsaveE
008af9c8   ti_sysbios_heaps_HeapMem_Object__table__V
008afa20   xdc_runtime_LoggerBuf_Object__table__V
008afa44   _ZNSt9_FacetptrISt7codecvtIcciEE6_PsaveE
008afa68   ti_sysbios_family_c64p_Hwi_Object__table__V
008afa80   ti_sysbios_knl_Semaphore_Object__table__V
008afa98   _ZNSt6locale2id7_Id_cntE
008afa9c   _ZNSt6locale7_Locimp8_ClocptrE
008afaac   _ZNSt9_FacetptrISt7codecvtIwciEE6_PsaveE
008afab0   xdc_runtime_System_Module_State_0_atexitHandlers__A
008afacc   __TI_cleanup_ptr
008afad0   __TI_dtors_ptr
008afad4   __TI_enable_exit_profile_output
008afad8   _ZNSt8ios_base6_IndexE
008afadc   _ZNSt8ios_base5_SyncE
008afae0   _ZSt4_Fpz
008afae4   _ZNSt9_FacetptrISt7num_putIcSt19ostreambuf_iteratorIcSt11char_traitsIcEEEE6_PsaveE
008afaf4   _ZNSt9_FacetptrISt8numpunctIcEE6_PsaveE
008afafc   _lock
008afb00   _unlock
008afb04   __TI_ft_end
008afb0c   __errno
008afb0c   errno
008afb10   _ZNSt8ios_base4Init9_Init_cntE
008afb14   _ZSt14_Raise_handler
008afb1c   _new_handler
008afb20   _ZNSt6_Winit9_Init_cntE
008afb28   ti_sysbios_gates_GateHwi_Object__table__V
008afb30   ti_sysbios_knl_Task_Module_State_0_idleTask__A
008afb34   __TI_INITARRAY_Base
008afb7c   __TI_INITARRAY_Limit
008afb80   _ZGVNSt7num_putIcSt19ostreambuf_iteratorIcSt11char_traitsIcEEE2idE
008afb80   __TI_STATIC_BASE
008afb88   _ZGVNSt8numpunctIcE2idE
008afb90   dynamicMemory
008afb94   __dso_handle
008afb98   g_nUsers
008afb9a   g_nTransmit
008afb9c   g_nReceive
008afb9e   g_nSchedBlocks
008afba0   clock0
008afba4   clock1
008afba8   swiHandleA
008afbac   swiHandleB
008afbb0   task0
008afbb4   reInitSystem
008afbb8   bufferHeap
008afc00   ti_sysbios_family_c64p_Hwi0
008afc00   ti_sysbios_family_c64p_Hwi_int0
008afc20   ti_sysbios_family_c64p_Hwi_int1
008afc40   ti_sysbios_family_c64p_Hwi_int2
008afc60   ti_sysbios_family_c64p_Hwi_int3
008afc80   ti_sysbios_family_c64p_Hwi_int4
008afca0   ti_sysbios_family_c64p_Hwi_int5
008afcc0   ti_sysbios_family_c64p_Hwi_int6
008afce0   ti_sysbios_family_c64p_Hwi_int7
008afd00   ti_sysbios_family_c64p_Hwi_int8
008afd20   ti_sysbios_family_c64p_Hwi_int9
008afd40   ti_sysbios_family_c64p_Hwi_int10
008afd60   ti_sysbios_family_c64p_Hwi_int11
008afd80   ti_sysbios_family_c64p_Hwi_int12
008afda0   ti_sysbios_family_c64p_Hwi_int13
008afdc0   ti_sysbios_family_c64p_Hwi_int14
008afde0   ti_sysbios_family_c64p_Hwi_int15
008afe00   __CIOBUF_
008b0574   __TI_Handler_Table_Base
008b0580   __TI_Handler_Table_Limit
008b0598   __TI_CINIT_Base
008b05d0   __TI_CINIT_Limit
0c000000   ti_sysbios_heaps_HeapMem_Instance_State_0_buf__A
0c07fff8   globalChannelMatrix
ffffffff   __TI_pprof_out_hndl
ffffffff   __TI_prof_data_size
ffffffff   __TI_prof_data_start
ffffffff   __binit__
ffffffff   __c_args__
ffffffff   binit

[1324 symbols]
