******************************************************************************
               TMS320C6x Linker Unix v7.6.0                    
******************************************************************************
>> Linked Tue Jun 24 11:40:44 2014

OUTPUT FILE NAME:   <schedulerTIKernel.out>
ENTRY POINT SYMBOL: "_c_int00"  address: 0081fbc0


MEMORY CONFIGURATION

         name            origin    length      used     unused   attr    fill
----------------------  --------  ---------  --------  --------  ----  --------
  L2SRAM                00800000   00100000  00030d42  000cf2be  RW X
  MSMCSRAM              0c000000   00200000  0010c7f0  000f3810  RW X
  DDR3                  80000000   20000000  00000000  20000000  RWIX


SEGMENT ALLOCATION MAP

run origin  load origin   length   init length attrs members
----------  ----------- ---------- ----------- ----- -------
00800000    00800000    0002b31a   0002b31a    r-x
  00800000    00800000    00027be0   00027be0    r-x .text
  00827be0    00827be0    0000373a   0000373a    r-- .const
0082b320    0082b320    000050a0   00000000    rw-
  0082b320    0082b320    0000234c   00000000    rw- .far
  0082d670    0082d670    00002000   00000000    rw- .stack
  0082f670    0082f670    00000c2c   00000000    rw- .fardata
  008302a0    008302a0    00000120   00000000    rw- .cio
008303c0    008303c0    00000010   00000010    r--
  008303c0    008303c0    00000010   00000010    r-- .switch
00830400    00830400    00000248   00000248    r-x
  00830400    00830400    00000200   00000200    r-x .vecs
  00830600    00830600    00000048   00000048    r-- .init_array
00830648    00830648    00000024   00000000    rw-
  00830648    00830648    00000018   00000000    rw- .bss
  00830660    00830660    0000000c   00000000    rw- .neardata
0083066c    0083066c    00000024   00000000    r--
  0083066c    0083066c    00000024   00000000    r-- .rodata
00830690    00830690    000006f0   000006f0    r--
  00830690    00830690    000006f0   000006f0    r-- .cinit
0c000000    0c000000    0010c7f0   00000000    rw-
  0c000000    0c000000    000ffff0   00000000    rw- .heapMem
  0c0ffff0    0c0ffff0    0000c800   00000000    rw- .bigMem


SECTION ALLOCATION MAP

 output                                  attributes/
section   page    origin      length       input sections
--------  ----  ----------  ----------   ----------------
.far       0    0082b320    0000234c     UNINITIALIZED
                  0082b320    00001800     scheduler_pe66.oe66 (.far:taskStackSection)
                  0082cb20    00000400     scheduler_pe66.oe66 (.far)
                  0082cf20    000001d8     rts6600_elf.lib : wiostrea.obj (.far)
                  0082d0f8    000001d4                     : iostream.obj (.far)
                  0082d2cc    00000192     globalDeclarations.obj (.far)
                  0082d45e    00000002     blasFunctions.obj (.far)
                  0082d460    00000140     (.common:__TI_tmpnams)
                  0082d5a0    0000000c     rts6600_elf.lib : locale0.obj (.far)
                  0082d5ac    00000004                     : wlocale.obj (.far:_ZNSt10moneypunctIwLb0EE2idE)
                  0082d5b0    00000008     (.common:parmbuf)
                  0082d5b8    00000008                     : wlocale.obj (.far:_ZGVNSt10moneypunctIwLb0EE2idE)
                  0082d5c0    00000008                     : wlocale.obj (.far:_ZGVNSt10moneypunctIwLb1EE2idE)
                  0082d5c8    00000008                     : iostream.obj (.far:_ZGVNSt7codecvtIcciE2idE)
                  0082d5d0    00000008                     : wlocale.obj (.far:_ZGVNSt7collateIwE2idE)
                  0082d5d8    00000008                     : wlocale.obj (.far:_ZGVNSt7num_getIwSt19istreambuf_iteratorIwSt11char_traitsIwEEE2idE)
                  0082d5e0    00000008                     : wlocale.obj (.far:_ZGVNSt7num_putIwSt19ostreambuf_iteratorIwSt11char_traitsIwEEE2idE)
                  0082d5e8    00000008                     : wlocale.obj (.far:_ZGVNSt8messagesIwE2idE)
                  0082d5f0    00000008                     : wlocale.obj (.far:_ZGVNSt8numpunctIwE2idE)
                  0082d5f8    00000008                     : wlocale.obj (.far:_ZGVNSt8time_getIwSt19istreambuf_iteratorIwSt11char_traitsIwEEE2idE)
                  0082d600    00000008                     : wlocale.obj (.far:_ZGVNSt9money_getIwSt19istreambuf_iteratorIwSt11char_traitsIwEEE2idE)
                  0082d608    00000008                     : wlocale.obj (.far:_ZGVNSt9money_putIwSt19ostreambuf_iteratorIwSt11char_traitsIwEEE2idE)
                  0082d610    00000004                     : wlocale.obj (.far:_ZNSt10moneypunctIwLb1EE2idE)
                  0082d614    00000004                     : iostream.obj (.far:_ZNSt13basic_filebufIcSt11char_traitsIcEE7_StinitE)
                  0082d618    00000004                     : wiostrea.obj (.far:_ZNSt13basic_filebufIwSt11char_traitsIwEE7_StinitE)
                  0082d61c    00000004                     : iostream.obj (.far:_ZNSt4fposIiE4_StzE)
                  0082d620    00000004                     : iostream.obj (.far:_ZNSt7codecvtIcciE2idE)
                  0082d624    00000004                     : wlocale.obj (.far:_ZNSt7collateIwE2idE)
                  0082d628    00000004                     : wlocale.obj (.far:_ZNSt7num_getIwSt19istreambuf_iteratorIwSt11char_traitsIwEEE2idE)
                  0082d62c    00000004     dynamicMemory.obj (.far:_ZNSt7num_putIcSt19ostreambuf_iteratorIcSt11char_traitsIcEEE2idE)
                  0082d630    00000004     rts6600_elf.lib : wlocale.obj (.far:_ZNSt7num_putIwSt19ostreambuf_iteratorIwSt11char_traitsIwEEE2idE)
                  0082d634    00000004                     : wlocale.obj (.far:_ZNSt8messagesIwE2idE)
                  0082d638    00000004     dynamicMemory.obj (.far:_ZNSt8numpunctIcE2idE)
                  0082d63c    00000004     rts6600_elf.lib : wlocale.obj (.far:_ZNSt8numpunctIwE2idE)
                  0082d640    00000004                     : wlocale.obj (.far:_ZNSt8time_getIwSt19istreambuf_iteratorIwSt11char_traitsIwEEE2idE)
                  0082d644    00000004                     : wlocale.obj (.far:_ZNSt8time_putIwSt19ostreambuf_iteratorIwSt11char_traitsIwEEE2idE)
                  0082d648    00000004                     : wlocale.obj (.far:_ZNSt9money_getIwSt19istreambuf_iteratorIwSt11char_traitsIwEEE2idE)
                  0082d64c    00000004                     : wlocale.obj (.far:_ZNSt9money_putIwSt19ostreambuf_iteratorIwSt11char_traitsIwEEE2idE)
                  0082d650    00000004                     : wlocale.obj (.far)
                  0082d654    00000002     displayFunctions.obj (.far)
                  0082d656    00000002     dynamicMemory.obj (.far)
                  0082d658    00000002     frameworkFunctions.obj (.far)
                  0082d65a    00000002     greedyScheduling.obj (.far)
                  0082d65c    00000002     lapackFunctions.obj (.far)
                  0082d65e    00000002     lteSystem.obj (.far)
                  0082d660    00000002     memoryManagement.obj (.far)
                  0082d662    00000002     pipdScheduling.obj (.far)
                  0082d664    00000002     randomScheduling.obj (.far)
                  0082d666    00000002     schedulingAlgorithms.obj (.far)
                  0082d668    00000002     succprojScheduling.obj (.far)
                  0082d66a    00000002     supportingFunctions.obj (.far)

.stack     0    0082d670    00002000     UNINITIALIZED
                  0082d670    00000008     boot.ae66 : boot.oe66 (.stack)
                  0082d678    00001ff8     --HOLE--

.cio       0    008302a0    00000120     UNINITIALIZED
                  008302a0    00000120     rts6600_elf.lib : trgmsg.obj (.cio)

.vecs      0    00830400    00000200     
                  00830400    00000200     scheduler_pe66.oe66 (.vecs)

.bss       0    00830648    00000018     UNINITIALIZED
                  00830648    00000008     dynamicMemory.obj (.bss:_ZGVNSt7num_putIcSt19ostreambuf_iteratorIcSt11char_traitsIcEEE2idE)
                  00830650    00000008     dynamicMemory.obj (.bss:_ZGVNSt8numpunctIcE2idE)
                  00830658    00000004     globalDeclarations.obj (.bss)
                  0083065c    00000004     (.common:__dso_handle)

.neardata 
*          0    00830660    0000000c     UNINITIALIZED
                  00830660    00000008     lteSystem.obj (.neardata)
                  00830668    00000004     sysMainLTE.obj (.neardata)

.rodata    0    0083066c    00000024     UNINITIALIZED
                  0083066c    00000024     scheduler_pe66.oe66 (.rodata)

.cinit     0    00830690    000006f0     
                  00830690    00000650     (.cinit..fardata.load) [load image, compression = rle]
                  00830ce0    0000002a     (.cinit..rodata.load) [load image, compression = rle]
                  00830d0a    00000002     --HOLE-- [fill = 0]
                  00830d0c    00000010     (.cinit..neardata.load) [load image, compression = rle]
                  00830d1c    0000000c     (__TI_handler_table)
                  00830d28    00000008     (.cinit..bigMem.load) [load image, compression = zero_init]
                  00830d30    00000008     (.cinit..bss.load) [load image, compression = zero_init]
                  00830d38    00000008     (.cinit..far.load) [load image, compression = zero_init]
                  00830d40    00000008     (.cinit..heapMem.load) [load image, compression = zero_init]
                  00830d48    00000038     (__TI_cinit_table)

.init_array 
*          0    00830600    00000048     
                  00830600    00000004     blasFunctions.obj (.init_array)
                  00830604    00000004     displayFunctions.obj (.init_array)
                  00830608    00000004     dynamicMemory.obj (.init_array)
                  0083060c    00000004     frameworkFunctions.obj (.init_array)
                  00830610    00000004     globalDeclarations.obj (.init_array)
                  00830614    00000004     greedyScheduling.obj (.init_array)
                  00830618    00000004     lapackFunctions.obj (.init_array)
                  0083061c    00000004     lteSystem.obj (.init_array)
                  00830620    00000004     memoryManagement.obj (.init_array)
                  00830624    00000004     pipdScheduling.obj (.init_array)
                  00830628    00000004     randomScheduling.obj (.init_array)
                  0083062c    00000004     rts6600_elf.lib : iostream.obj (.init_array)
                  00830630    00000004                     : locale0.obj (.init_array)
                  00830634    00000004                     : wiostrea.obj (.init_array)
                  00830638    00000004                     : wlocale.obj (.init_array)
                  0083063c    00000004     schedulingAlgorithms.obj (.init_array)
                  00830640    00000004     succprojScheduling.obj (.init_array)
                  00830644    00000004     supportingFunctions.obj (.init_array)

.heapMem   0    0c000000    000ffff0     UNINITIALIZED
                  0c000000    000ffff0     scheduler_pe66.oe66 (.heapMem)

.bigMem    0    0c0ffff0    0000c800     UNINITIALIZED
                  0c0ffff0    0000c800     globalDeclarations.obj (.bigMem)

xdc.meta   0    00800000    000000f0     COPY SECTION
                  00800000    000000f0     scheduler_pe66.oe66 (xdc.meta)

.text      0    00800000    00027be0     
                  00800000    000015c0     dynamicMemory.obj (.text)
                  008015c0    000014c0     blasFunctions.obj (.text)
                  00802a80    00000dc0     lapackFunctions.obj (.text)
                  00803840    00000a00     frameworkFunctions.obj (.text)
                  00804240    000008e0     rts6600_elf.lib : wiostrea.obj (.text:_ZNSt6_WinitC1Ev)
                  00804b20    000008a0     ti.targets.rts6000.ae66 : System.oe66 (.text:xdc_runtime_System_doPrint__I)
                  008053c0    000007c0     pipdScheduling.obj (.text)
                  00805b80    000007a0     rts6600_elf.lib : iostream.obj (.text:_ZNSt8ios_base4InitC1Ev)
                  00806320    00000780     succprojScheduling.obj (.text)
                  00806aa0    00000780     sysbios.ae66 : BIOS.obj (.text:ti_sysbios_family_c64p_Exception_handler__I)
                  00807220    00000740                  : BIOS.obj (.text:ti_sysbios_knl_Semaphore_pend__E)
                  00807960    000006a0                  : BIOS.obj (.text:ti_sysbios_timers_timer64_Timer_Module_startup__E)
                  00808000    00000680     rts6600_elf.lib : powf.obj (.text:powf)
                  00808680    00000660     sysbios.ae66 : BIOS.obj (.text:ti_sysbios_heaps_HeapMem_alloc__E)
                  00808ce0    00000620     rts6600_elf.lib : iostream.obj (.text:_ZNSt13basic_filebufIcSt11char_traitsIcEE8overflowEi)
                  00809300    00000600                     : wiostrea.obj (.text:_ZNSt13basic_filebufIwSt11char_traitsIwEE8overflowEj)
                  00809900    00000600                     : divd.obj (.text:__c6xabi_divd)
                  00809f00    000005e0                     : wiostrea.obj (.text:_ZNSt13basic_filebufIwSt11char_traitsIwEE5uflowEv)
                  0080a4e0    000005e0     sysbios.ae66 : BIOS.obj (.text:ti_sysbios_heaps_HeapMem_free__E)
                  0080aac0    000005c0     rts6600_elf.lib : iostream.obj (.text:_ZNSt13basic_filebufIcSt11char_traitsIcEE5uflowEv)
                  0080b080    000005a0     displayFunctions.obj (.text)
                  0080b620    00000580     dynamicMemory.obj (.text:_ZNKSt7num_putIcSt19ostreambuf_iteratorIcSt11char_traitsIcEEE5_FputES3_RSt8ios_basecPKcjjjj)
                  0080bba0    00000580     rts6600_elf.lib : _printfi.obj (.text:_getarg_diouxp)
                  0080c120    00000540                     : _printfi.obj (.text:_setfield)
                  0080c660    00000540     supportingFunctions.obj (.text)
                  0080cba0    00000520     rts6600_elf.lib : wiostrea.obj (.text:_ZNSt13basic_filebufIwSt11char_traitsIwEE9_EndwriteEv)
                  0080d0c0    00000520                     : ios.obj (.text:_ZNSt8ios_base5clearENSt5_IosbIiE8_IostateEb)
                  0080d5e0    00000500                     : iostream.obj (.text:_ZNSt13basic_filebufIcSt11char_traitsIcEE9_EndwriteEv)
                  0080dae0    00000500                     : wlocale.obj (.text:__sti___11_wlocale_cpp_3b9bd5f7)
                  0080dfe0    000004a0                     : fwrite.obj (.text:fwrite)
                  0080e480    00000460                     : _printfi.obj (.text:__TI_printfi)
                  0080e8e0    000003e0     greedyScheduling.obj (.text)
                  0080ecc0    000003a0     rts6600_elf.lib : fputs.obj (.text:fputs)
                  0080f060    00000320                     : _printfi.obj (.text:_pproc_fge)
                  0080f380    00000300     frameworkFunctions.obj (.text:_ZStlsISt11char_traitsIcEERSt13basic_ostreamIcT_ES5_PKc)
                  0080f680    000002e0     sysbios.ae66 : BIOS.obj (.text:ti_sysbios_heaps_HeapMem_Instance_init__E)
                  0080f960    000002e0                  : BIOS.obj (.text:ti_sysbios_knl_Task_Module_startup__E)
                  0080fc40    000002e0                  : BIOS.obj (.text:ti_sysbios_timers_timer64_Timer_deviceConfig__I)
                  0080ff20    000002c0     dynamicMemory.obj (.text:_ZNKSt7num_putIcSt19ostreambuf_iteratorIcSt11char_traitsIcEEE5_IputES3_RSt8ios_basecPcj)
                  008101e0    000002c0     dynamicMemory.obj (.text:_ZNKSt7num_putIcSt19ostreambuf_iteratorIcSt11char_traitsIcEEE6do_putES3_RSt8ios_basecd)
                  008104a0    000002c0     dynamicMemory.obj (.text:_ZNKSt7num_putIcSt19ostreambuf_iteratorIcSt11char_traitsIcEEE6do_putES3_RSt8ios_basece)
                  00810760    000002a0     rts6600_elf.lib : _printfi.obj (.text:_pproc_fwp)
                  00810a00    000002a0                     : _printfi.obj (.text:ecvt)
                  00810ca0    000002a0                     : _printfi.obj (.text:fcvt)
                  00810f40    000002a0     sysbios.ae66 : BIOS.obj (.text:ti_sysbios_knl_Clock_workFunc__E)
                  008111e0    00000280     rts6600_elf.lib : wiostrea.obj (.text:_ZNSt6_WinitD1Ev)
                  00811460    00000280                     : divf.obj (.text:__c6xabi_divf)
                  008116e0    00000280                     : iostream.obj (.text:__sti___12_iostream_cpp_b004430c)
                  00811960    00000280     randomScheduling.obj (.text)
                  00811be0    00000260     lapackFunctions.obj (.text:_ZNSt13_Complex_baseIfSt16_C_float_complexE4_DivIfEEvRKSt7complexIT_E)
                  00811e40    00000260     pipdScheduling.obj (.text:_ZSt5_FabsIfET_RKSt7complexIS0_EPi)
                  008120a0    00000260     rts6600_elf.lib : _printfi.obj (.text:_pconv_e)
                  00812300    00000260     sysbios.ae66 : BIOS.obj (.text:ti_sysbios_family_c64p_Hwi_dispatchCore__I)
                  00812560    00000260     ti.targets.rts6000.ae66 : Startup.oe66 (.text:xdc_runtime_Startup_startMods__I)
                  008127c0    00000260     scheduler_pe66.oe66 (.text:xdc_runtime_System_printfExtend__I)
                  00812a20    00000240     rts6600_elf.lib : wiostrea.obj (.text:_ZNSt13basic_filebufIwSt11char_traitsIwEE5imbueERKSt6locale)
                  00812c60    00000240                     : imath64.obj (.text:__c6xabi_divull)
                  00812ea0    00000240                     : _printfi.obj (.text:_pproc_diouxp)
                  008130e0    00000240                     : _printfi.obj (.text:_pproc_str)
                  00813320    00000240                     : setvbuf.obj (.text:setvbuf)
                  00813560    00000240     sysbios.ae66 : BIOS.obj (.text:ti_sysbios_family_c64p_Exception_internalHandler__I)
                  008137a0    00000240                  : BIOS.obj (.text:ti_sysbios_knl_Semaphore_post__E)
                  008139e0    00000240     ti.targets.rts6000.ae66 : Core-mem.oe66 (.text:xdc_runtime_Core_createObject__I)
                  00813c20    00000240                             : LoggerBuf.oe66 (.text:xdc_runtime_LoggerBuf_write8__E)
                  00813e60    00000220     rts6600_elf.lib : wiostrea.obj (.text:__sti___12_wiostrea_cpp_9fa80e7a)
                  00814080    00000220                     : fputc.obj (.text:fputc)
                  008142a0    00000220     lteSystem.obj (.text)
                  008144c0    00000220     sysbios.ae66 : BIOS.obj (.text:ti_sysbios_knl_Swi_run__I)
                  008146e0    00000220                  : BIOS.obj (.text:ti_sysbios_timers_timer64_Timer_setPeriodMicroSecs__E)
                  00814900    00000200     rts6600_elf.lib : _printfi.obj (.text:_pconv_g)
                  00814b00    00000200     sysbios.ae66 : c64p_Hwi_disp_always.obj (.text:_ti_sysbios_family_c64p_Hwi_dispatchAlways)
                  00814d00    00000200     ti.targets.rts6000.ae66 : Error.oe66 (.text:xdc_runtime_Error_policyDefault__E)
                  00814f00    000001e0     dynamicMemory.obj (.text:_ZNKSt7num_putIcSt19ostreambuf_iteratorIcSt11char_traitsIcEEE6do_putES3_RSt8ios_basecb)
                  008150e0    000001e0     rts6600_elf.lib : imath40.obj (.text:__c6xabi_divul)
                  008152c0    000001e0     sysbios.ae66 : BIOS.obj (.text:ti_sysbios_timers_timer64_Timer_getFreq__E)
                  008154a0    000001c0     rts6600_elf.lib : trgdrv.obj (.text:HOSTrename)
                  00815660    000001c0                     : vec_newdel.obj (.text:_Z17array_new_generalPvijjS_PFYS_S_ES1_PFYS_jEPFYvS_Eii)
                  00815820    000001c0                     : iostream.obj (.text:_ZNSt13basic_filebufIcSt11char_traitsIcEE7seekoffElNSt5_IosbIiE8_SeekdirENS4_9_OpenmodeE)
                  008159e0    000001c0                     : wiostrea.obj (.text:_ZNSt13basic_filebufIwSt11char_traitsIwEE7seekoffElNSt5_IosbIiE8_SeekdirENS4_9_OpenmodeE)
                  00815ba0    000001c0                     : _printfi.obj (.text:_mcpy)
                  00815d60    000001c0     sysbios.ae66 : BIOS.obj (.text:ti_sysbios_knl_Task_checkStacks__E)
                  00815f20    000001c0     ti.targets.rts6000.ae66 : Text.oe66 (.text:xdc_runtime_Text_putSite__E)
                  008160e0    000001a0     rts6600_elf.lib : string.obj (.text:_ZNKSt12_String_base5_XranEv)
                  00816280    000001a0                     : iostream.obj (.text:_ZNSt13basic_filebufIcSt11char_traitsIcEE7seekposESt4fposIiENSt5_IosbIiE9_OpenmodeE)
                  00816420    000001a0                     : wiostrea.obj (.text:_ZNSt13basic_filebufIwSt11char_traitsIwEE7seekposESt4fposIiENSt5_IosbIiE9_OpenmodeE)
                  008165c0    000001a0                     : wiostrea.obj (.text:_ZNSt13basic_filebufIwSt11char_traitsIwEE9pbackfailEj)
                  00816760    000001a0                     : frexpf.obj (.text:frexpf)
                  00816900    000001a0     sysbios.ae66 : BIOS.obj (.text:ti_sysbios_gates_GateMutex_enter__E)
                  00816aa0    000001a0                  : BIOS.obj (.text:ti_sysbios_knl_Task_schedule__I)
                  00816c40    000001a0                  : BIOS.obj (.text:ti_sysbios_timers_timer64_Timer_start__E)
                  00816de0    000001a0     ti.targets.rts6000.ae66 : LoggerBuf.oe66 (.text:xdc_runtime_LoggerBuf_write4__E)
                  00816f80    00000180     rts6600_elf.lib : xlocinfo.obj (.text:_Getctyptab)
                  00817100    00000180                     : wiostrea.obj (.text:_ZNKSt5ctypeIwE10do_toupperEPwPKw)
                  00817280    00000180                     : wiostrea.obj (.text:_ZNKSt7codecvtIwciE5do_inERiPKcS3_RS3_PwS5_RS5_)
                  00817400    00000180                     : wiostrea.obj (.text:_ZNKSt7codecvtIwciE6do_outERiPKwS3_RS3_PcS5_RS5_)
                  00817580    00000180                     : iostream.obj (.text:_ZNSt13basic_filebufIcSt11char_traitsIcEE9pbackfailEi)
                  00817700    00000180                     : wiostrea.obj (.text:_ZSt9use_facetISt5ctypeIwEERKT_RKSt6locale)
                  00817880    00000180                     : ldexpf.obj (.text:ldexpf)
                  00817a00    00000180     memoryManagement.obj (.text)
                  00817b80    00000180     sysbios.ae66 : c64p_Exception_asm.obj (.text)
                  00817d00    00000180                  : BIOS.obj (.text:ti_sysbios_knl_Task_exit__E)
                  00817e80    00000180                  : BIOS.obj (.text:ti_sysbios_knl_Task_startCore__E)
                  00818000    00000180     ti.targets.rts6000.ae66 : Core-smem.oe66 (.text:xdc_runtime_Core_constructObject__I)
                  00818180    00000160     rts6600_elf.lib : iostream.obj (.text:_ZNSt13basic_filebufIcSt11char_traitsIcEED0Ev)
                  008182e0    00000160                     : wiostrea.obj (.text:_ZNSt13basic_filebufIwSt11char_traitsIwEED0Ev)
                  00818440    00000160                     : iostream.obj (.text:_ZNSt9basic_iosIcSt11char_traitsIcEE4initEPSt15basic_streambufIcS1_Eb)
                  008185a0    00000160                     : wiostrea.obj (.text:_ZNSt9basic_iosIwSt11char_traitsIwEE4initEPSt15basic_streambufIwS1_Eb)
                  00818700    00000160                     : copy_decompress_rle.obj (.text:__TI_decompress_rle_core)
                  00818860    00000140                     : string.obj (.text:_ZNKSt12_String_base5_XlenEv)
                  008189a0    00000140     dynamicMemory.obj (.text:_ZNSolsEb)
                  00818ae0    00000140     dynamicMemory.obj (.text:_ZNSolsEj)
                  00818c20    00000140     rts6600_elf.lib : iostream.obj (.text:_ZNSt13basic_filebufIcSt11char_traitsIcEE6setbufEPci)
                  00818d60    00000140                     : iostream.obj (.text:_ZNSt13basic_filebufIcSt11char_traitsIcEED1Ev)
                  00818ea0    00000140                     : wiostrea.obj (.text:_ZNSt13basic_filebufIwSt11char_traitsIwEED1Ev)
                  00818fe0    00000140                     : locale0.obj (.text:_ZNSt6locale7_LocimpD1Ev)
                  00819120    00000140     dynamicMemory.obj (.text:_ZNSt8numpunctIcE5_InitERKSt8_Locinfo)
                  00819260    00000140     rts6600_elf.lib : iostream.obj (.text:_ZSt9use_facetISt7codecvtIcciEERKT_RKSt6locale)
                  008193a0    00000140                     : _bufread.obj (.text:__TI_buff_read)
                  008194e0    00000140                     : fclose.obj (.text:__TI_closefile)
                  00819620    00000140     boot.ae66 : autoinit.oe66 (.text:_auto_init_elf)
                  00819760    00000140     rts6600_elf.lib : fflush.obj (.text:fflush)
                  008198a0    00000140                     : fgetc.obj (.text:fgetc)
                  008199e0    00000140                     : lowlev.obj (.text:getdevice)
                  00819b20    00000140     sysbios.ae66 : BIOS.obj (.text:ti_sysbios_family_c64p_Hwi_Module_startup__E)
                  00819c60    00000140                  : BIOS.obj (.text:ti_sysbios_family_c66_Cache_Module_startup__E)
                  00819da0    00000140                  : BIOS.obj (.text:ti_sysbios_knl_Semaphore_Instance_init__E)
                  00819ee0    00000140                  : BIOS.obj (.text:ti_sysbios_knl_Swi_post__E)
                  0081a020    00000140                  : BIOS.obj (.text:ti_sysbios_knl_Task_blockI__E)
                  0081a160    00000140     rts6600_elf.lib : ungetc.obj (.text:ungetc)
                  0081a2a0    00000140     ti.targets.rts6000.ae66 : Text.oe66 (.text:xdc_runtime_Text_putLab__E)
                  0081a3e0    00000120     rts6600_elf.lib : wiostrea.obj (.text:_ZNKSt5ctypeIwE5do_isEPKwS2_Ps)
                  0081a500    00000120                     : wiostrea.obj (.text:_ZNKSt5ctypeIwE9do_narrowEPKwS2_cPc)
                  0081a620    00000120     dynamicMemory.obj (.text:_ZNKSt7num_putIcSt19ostreambuf_iteratorIcSt11char_traitsIcEEE5_IfmtEPcPKcNSt5_IosbIiE9_FmtflagsE)
                  0081a740    00000120     rts6600_elf.lib : wiostrea.obj (.text:_ZNSt13basic_filebufIwSt11char_traitsIwEE6setbufEPwi)
                  0081a860    00000120                     : locale0.obj (.text:_ZNSt6locale5_InitEv)
                  0081a980    00000120                     : locale0.obj (.text:_ZNSt8_LocinfoC1EPKc)
                  0081aaa0    00000120                     : locale0.obj (.text:_ZNSt8_LocinfoD1Ev)
                  0081abc0    00000120                     : fseek.obj (.text:fseek)
                  0081ace0    00000120                     : ftell.obj (.text:ftell)
                  0081ae00    00000120                     : sqrtf.obj (.text:sqrtf)
                  0081af20    00000120     ti.targets.rts6000.ae66 : LoggerBuf.oe66 (.text:xdc_runtime_LoggerBuf_setFilterLevel__E)
                  0081b040    00000120                             : Text.oe66 (.text:xdc_runtime_Text_putMod__E)
                  0081b160    00000100     rts6600_elf.lib : trgdrv.obj (.text:HOSTlseek)
                  0081b260    00000100                     : wiostrea.obj (.text:_ZNKSt7codecvtIwciE9do_lengthERKiPKcS4_j)
                  0081b360    00000100     dynamicMemory.obj (.text:_ZNKSt7num_putIcSt19ostreambuf_iteratorIcSt11char_traitsIcEEE5_FfmtEPccNSt5_IosbIiE9_FmtflagsE)
                  0081b460    00000100     dynamicMemory.obj (.text:_ZNSs6appendERKSsjj)
                  0081b560    00000100     dynamicMemory.obj (.text:_ZNSs6insertEjjc)
                  0081b660    00000100     rts6600_elf.lib : iostream.obj (.text:_ZNSt15basic_streambufIcSt11char_traitsIcEE6xsgetnEPci)
                  0081b760    00000100                     : iostream.obj (.text:_ZNSt15basic_streambufIcSt11char_traitsIcEE6xsputnEPKci)
                  0081b860    00000100                     : wiostrea.obj (.text:_ZNSt15basic_streambufIwSt11char_traitsIwEE6xsgetnEPwi)
                  0081b960    00000100                     : wiostrea.obj (.text:_ZNSt15basic_streambufIwSt11char_traitsIwEE6xsputnEPKwi)
                  0081ba60    00000100                     : _io_perm.obj (.text:__TI_wrt_ok)
                  0081bb60    00000100                     : _printfi.obj (.text:_ltostr)
                  0081bc60    00000100                     : _printfi.obj (.text:_pproc_fflags)
                  0081bd60    00000100                     : atoi.obj (.text:atoi)
                  0081be60    00000100     schedulingAlgorithms.obj (.text)
                  0081bf60    00000100     sysbios.ae66 : BIOS.obj (.text:ti_sysbios_knl_Swi_restoreHwi__E)
                  0081c060    00000100                  : BIOS.obj (.text:ti_sysbios_knl_Task_unblockI__E)
                  0081c160    00000100                  : BIOS.obj (.text:ti_sysbios_timers_timer64_Timer_initDevice__I)
                  0081c260    00000100     ti.targets.rts6000.ae66 : Core-mem.oe66 (.text:xdc_runtime_Core_deleteObject__I)
                  0081c360    00000100                             : LoggerBuf.oe66 (.text:xdc_runtime_LoggerBuf_getFilterLevel__E)
                  0081c460    00000100                             : Startup.oe66 (.text:xdc_runtime_Startup_exec__E)
                  0081c560    00000100                             : Text.oe66 (.text:xdc_runtime_Text_visitRope2__I)
                  0081c660    000000e0     rts6600_elf.lib : trgdrv.obj (.text:HOSTopen)
                  0081c740    000000e0                     : trgdrv.obj (.text:HOSTwrite)
                  0081c820    000000e0                     : locale0.obj (.text:_Fac_tidy)
                  0081c900    000000e0     dynamicMemory.obj (.text:_ZNSs5_CopyEjj)
                  0081c9e0    000000e0     dynamicMemory.obj (.text:_ZNSs5eraseEjj)
                  0081cac0    000000e0     dynamicMemory.obj (.text:_ZNSs6assignERKSsjj)
                  0081cba0    000000e0     rts6600_elf.lib : locale0.obj (.text:_ZNSt6locale7_LocimpC1Eb)
                  0081cc80    000000e0                     : dtor_list.obj (.text:__cxa_finalize)
                  0081cd60    000000e0                     : divi.obj (.text:__divi)
                  0081ce40    000000e0                     : _printfi.obj (.text:_div)
                  0081cf20    000000e0                     : lowlev.obj (.text:close)
                  0081d000    000000e0                     : copy_zero_init.obj (.text:decompress:ZI:__TI_zero_init)
                  0081d0e0    000000e0                     : ltoa.obj (.text:ltoa)
                  0081d1c0    000000e0                     : memset.obj (.text:memset)
                  0081d2a0    000000e0                     : printf.obj (.text:printf)
                  0081d380    000000e0     sysbios.ae66 : BIOS.obj (.text:ti_sysbios_knl_Swi_runLoop__I)
                  0081d460    000000e0                  : BIOS.obj (.text:ti_sysbios_timers_timer64_Timer_startup__E)
                  0081d540    000000e0     ti.targets.rts6000.ae66 : Error.oe66 (.text:xdc_runtime_Error_print__E)
                  0081d620    000000e0                             : Memory.oe66 (.text:xdc_runtime_Memory_alloc__E)
                  0081d700    000000c0     rts6600_elf.lib : trgdrv.obj (.text:HOSTread)
                  0081d7c0    000000c0                     : trgdrv.obj (.text:HOSTunlink)
                  0081d880    000000c0                     : dtor_list.obj (.text:_Z11__TI_atexitPFYvPvES_S_)
                  0081d940    000000c0                     : wiostrea.obj (.text:_ZNKSt5ctypeIwE10do_tolowerEPwPKw)
                  0081da00    000000c0     dynamicMemory.obj (.text:_ZNKSt7num_putIcSt19ostreambuf_iteratorIcSt11char_traitsIcEEE11_PutgroupedES3_PKcjc)
                  0081dac0    000000c0     frameworkFunctions.obj (.text:_ZNSo3putEc)
                  0081db80    000000c0     frameworkFunctions.obj (.text:_ZNSo6sentryC1ERSo)
                  0081dc40    000000c0     dynamicMemory.obj (.text:_ZNSs5_GrowEjb)
                  0081dd00    000000c0     dynamicMemory.obj (.text:_ZNSs6appendEPKcj)
                  0081ddc0    000000c0     rts6600_elf.lib : iostream.obj (.text:_ZNSt13basic_filebufIcSt11char_traitsIcEE5_InitEPSt4FILENS2_7_InitflE)
                  0081de80    000000c0     frameworkFunctions.obj (.text:_ZSt9use_facetISt5ctypeIcEERKT_RKSt6locale)
                  0081df40    000000c0     dynamicMemory.obj (.text:_ZSt9use_facetISt7num_putIcSt19ostreambuf_iteratorIcSt11char_traitsIcEEEERKT_RKSt6locale)
                  0081e000    000000c0     dynamicMemory.obj (.text:_ZSt9use_facetISt8numpunctIcEERKT_RKSt6locale)
                  0081e0c0    000000c0     rts6600_elf.lib : new_.obj (.text:_Znwj)
                  0081e180    000000c0                     : fflush.obj (.text:__TI_doflush)
                  0081e240    000000c0                     : _io_perm.obj (.text:__TI_rd_ok)
                  0081e300    000000c0                     : divu.obj (.text:__divu)
                  0081e3c0    000000c0                     : remi.obj (.text:__remi)
                  0081e480    000000c0                     : exit.obj (.text:exit)
                  0081e540    000000c0     globalDeclarations.obj (.text)
                  0081e600    000000c0     sysbios.ae66 : BIOS.obj (.text:ti_sysbios_heaps_HeapMem_getStats__E)
                  0081e6c0    000000c0                  : BIOS.obj (.text:ti_sysbios_knl_Clock_logTick__E)
                  0081e780    000000c0                  : BIOS.obj (.text:ti_sysbios_knl_Swi_schedule__I)
                  0081e840    000000c0                  : BIOS.obj (.text:ti_sysbios_knl_Task_allBlockedFunction__I)
                  0081e900    000000c0                  : BIOS.obj (.text:ti_sysbios_timers_timer64_Timer_stop__E)
                  0081e9c0    000000c0     ti.targets.rts6000.ae66 : Error.oe66 (.text:xdc_runtime_Error_setX__E)
                  0081ea80    000000c0                             : LoggerBuf.oe66 (.text:xdc_runtime_LoggerBuf_Instance_init__E)
                  0081eb40    000000c0     scheduler_pe66.oe66 (.text:xdc_runtime_LoggerBuf_Object__create__S)
                  0081ec00    000000c0     ti.targets.rts6000.ae66 : System.oe66 (.text:xdc_runtime_System_formatNum__I)
                  0081ecc0    000000a0     rts6600_elf.lib : trgdrv.obj (.text:HOSTclose)
                  0081ed60    000000a0                     : wiostrea.obj (.text:_ZNKSt5ctypeIwE8do_widenEPKcS2_Pw)
                  0081ee00    000000a0                     : wiostrea.obj (.text:_ZNKSt7codecvtIwciE10do_unshiftERiPcS2_RS2_)
                  0081eea0    000000a0     dynamicMemory.obj (.text:_ZNKSt7num_putIcSt19ostreambuf_iteratorIcSt11char_traitsIcEEE6do_putES3_RSt8ios_basecPKv)
                  0081ef40    000000a0     frameworkFunctions.obj (.text:_ZNSo12_Sentry_baseC1ERSo)
                  0081efe0    000000a0     frameworkFunctions.obj (.text:_ZNSo12_Sentry_baseD1Ev)
                  0081f080    000000a0     dynamicMemory.obj (.text:_ZNSs6appendEjc)
                  0081f120    000000a0     rts6600_elf.lib : string.obj (.text:_ZNSt11logic_errorD1Ev)
                  0081f1c0    000000a0                     : string.obj (.text:_ZNSt12length_errorD1Ev)
                  0081f260    000000a0                     : string.obj (.text:_ZNSt12out_of_rangeC1ERKSs)
                  0081f300    000000a0                     : string.obj (.text:_ZNSt12out_of_rangeD1Ev)
                  0081f3a0    000000a0     frameworkFunctions.obj (.text:_ZNSt13_Complex_baseIfSt16_C_float_complexE4_MulIfEEvRKSt7complexIT_E)
                  0081f440    000000a0     rts6600_elf.lib : iostream.obj (.text:_ZNSt13basic_filebufIcSt11char_traitsIcEE9underflowEv)
                  0081f4e0    000000a0                     : wiostrea.obj (.text:_ZNSt13basic_filebufIwSt11char_traitsIwEE9underflowEv)
                  0081f580    000000a0                     : ios.obj (.text:_ZNSt13runtime_errorD1Ev)
                  0081f620    000000a0     frameworkFunctions.obj (.text:_ZNSt5ctypeIcEC1EPKsbj)
                  0081f6c0    000000a0     rts6600_elf.lib : iostream.obj (.text:_ZNSt8ios_base4InitD1Ev)
                  0081f760    000000a0                     : ios.obj (.text:_ZNSt8ios_base5_InitEv)
                  0081f800    000000a0                     : ios.obj (.text:_ZNSt8ios_base5_TidyEv)
                  0081f8a0    000000a0                     : ios.obj (.text:_ZNSt8ios_base7_AddstdEv)
                  0081f940    000000a0                     : ios.obj (.text:_ZNSt8ios_base7failureD1Ev)
                  0081f9e0    000000a0                     : ios.obj (.text:_ZNSt8ios_baseD1Ev)
                  0081fa80    000000a0                     : fopen.obj (.text:__TI_cleanup)
                  0081fb20    000000a0                     : remu.obj (.text:__remu)
                  0081fbc0    000000a0     boot.ae66 : boot.oe66 (.text:_c_int00)
                  0081fc60    000000a0     rts6600_elf.lib : _printfi.obj (.text:_ecpy)
                  0081fd00    000000a0                     : _printfi.obj (.text:_fcpy)
                  0081fda0    000000a0                     : _printfi.obj (.text:_pconv_f)
                  0081fe40    000000a0                     : memcpy64.obj (.text:memcpy)
                  0081fee0    000000a0     sysbios.ae66 : BIOS.obj (.text:ti_sysbios_family_c64p_Exception_Module_startup__E)
                  0081ff80    000000a0                  : BIOS.obj (.text:ti_sysbios_heaps_HeapMem_init__I)
                  00820020    000000a0     rts6600_elf.lib : wchar.obj (.text:wmemcpy)
                  008200c0    000000a0     ti.targets.rts6000.ae66 : Assert.oe66 (.text:xdc_runtime_Assert_raise__I)
                  00820160    000000a0                             : LoggerBuf.oe66 (.text:xdc_runtime_LoggerBuf_Module_startup__E)
                  00820200    000000a0                             : SysMin.oe66 (.text:xdc_runtime_SysMin_abort__E)
                  008202a0    000000a0                             : SysMin.oe66 (.text:xdc_runtime_SysMin_flush__E)
                  00820340    000000a0                             : SysMin.oe66 (.text:xdc_runtime_SysMin_putch__E)
                  008203e0    000000a0                             : Text.oe66 (.text:xdc_runtime_Text_xprintf__I)
                  00820480    00000080     rts6600_elf.lib : locale0.obj (.text:_Setgloballocale)
                  00820500    00000080                     : wiostrea.obj (.text:_ZNKSt5ctypeIwE10do_scan_isEsPKwS2_)
                  00820580    00000080                     : wiostrea.obj (.text:_ZNKSt5ctypeIwE10do_tolowerEw)
                  00820600    00000080                     : wiostrea.obj (.text:_ZNKSt5ctypeIwE11do_scan_notEsPKwS2_)
                  00820680    00000080                     : locale0.obj (.text:_ZNKSt6locale9_GetfacetEj)
                  00820700    00000080     dynamicMemory.obj (.text:_ZNKSt7num_putIcSt19ostreambuf_iteratorIcSt11char_traitsIcEEE5_PutcES3_PKcj)
                  00820780    00000080     dynamicMemory.obj (.text:_ZNKSt7num_putIcSt19ostreambuf_iteratorIcSt11char_traitsIcEEE6do_putES3_RSt8ios_basecl)
                  00820800    00000080     dynamicMemory.obj (.text:_ZNKSt7num_putIcSt19ostreambuf_iteratorIcSt11char_traitsIcEEE6do_putES3_RSt8ios_basecm)
                  00820880    00000080     dynamicMemory.obj (.text:_ZNKSt7num_putIcSt19ostreambuf_iteratorIcSt11char_traitsIcEEE6do_putES3_RSt8ios_basecx)
                  00820900    00000080     dynamicMemory.obj (.text:_ZNKSt7num_putIcSt19ostreambuf_iteratorIcSt11char_traitsIcEEE6do_putES3_RSt8ios_basecy)
                  00820980    00000080     frameworkFunctions.obj (.text:_ZNSo5flushEv)
                  00820a00    00000080     dynamicMemory.obj (.text:_ZNSs5_TidyEbj)
                  00820a80    00000080     dynamicMemory.obj (.text:_ZNSs6assignEPKcj)
                  00820b00    00000080     rts6600_elf.lib : string.obj (.text:_ZNSt11logic_errorC2ERKSs)
                  00820b80    00000080                     : string.obj (.text:_ZNSt11logic_errorD0Ev)
                  00820c00    00000080                     : string.obj (.text:_ZNSt12length_errorD0Ev)
                  00820c80    00000080                     : string.obj (.text:_ZNSt12out_of_rangeD0Ev)
                  00820d00    00000080                     : iostream.obj (.text:_ZNSt13basic_filebufIcSt11char_traitsIcEE4syncEv)
                  00820d80    00000080                     : wiostrea.obj (.text:_ZNSt13basic_filebufIwSt11char_traitsIwEE4syncEv)
                  00820e00    00000080                     : ios.obj (.text:_ZNSt13runtime_errorD0Ev)
                  00820e80    00000080     frameworkFunctions.obj (.text:_ZNSt15basic_streambufIcSt11char_traitsIcEE5sputcEc)
                  00820f00    00000080     dynamicMemory.obj (.text:_ZNSt19ostreambuf_iteratorIcSt11char_traitsIcEEaSEc)
                  00820f80    00000080     rts6600_elf.lib : locale0.obj (.text:_ZNSt6locale5facet9_RegisterEv)
                  00821000    00000080                     : ios.obj (.text:_ZNSt8ios_base7failureD0Ev)
                  00821080    00000080                     : ios.obj (.text:_ZNSt8ios_base8_CallfnsENS_5eventE)
                  00821100    00000080     dynamicMemory.obj (.text:_ZSt10_MaklocstrIcEPT_PKcS1_RKSt7_Cvtvec)
                  00821180    00000080     rts6600_elf.lib : throw.obj (.text:_ZSt14_Debug_messagePKcS0_)
                  00821200    00000080                     : trgmsg.obj (.text:__TI_readmsg)
                  00821280    00000080                     : trgmsg.obj (.text:__TI_writemsg)
                  00821300    00000080                     : fixfu.obj (.text:__c6xabi_fixfu)
                  00821380    00000080                     : llshift.obj (.text:__c6xabi_llshl)
                  00821400    00000080                     : roundf.obj (.text:__c6xabi_roundf)
                  00821480    00000080     sysbios.ae66 : c62_TaskSupport_asm.obj (.text:_ti_sysbios_family_c62_TaskSupport_swap__E)
                  00821500    00000080     rts6600_elf.lib : fclose.obj (.text:fclose)
                  00821580    00000080                     : lowlev.obj (.text:finddevice)
                  00821600    00000080     scheduler_pe66.oe66 (.text:malloc)
                  00821680    00000080     rts6600_elf.lib : rand.obj (.text:rand)
                  00821700    00000080     sysMainLTE.obj (.text)
                  00821780    00000080     sysbios.ae66 : BIOS.obj (.text:ti_sysbios_family_c62_TaskSupport_start__E)
                  00821800    00000080                  : BIOS.obj (.text:ti_sysbios_family_c64p_Hwi_dispatchC__I)
                  00821880    00000080                  : BIOS.obj (.text:ti_sysbios_family_c64p_Hwi_getStackInfo__E)
                  00821900    00000080                  : BIOS.obj (.text:ti_sysbios_hal_Hwi_checkStack)
                  00821980    00000080                  : BIOS.obj (.text:ti_sysbios_hal_Hwi_initStack)
                  00821a00    00000080                  : BIOS.obj (.text:ti_sysbios_knl_Idle_run__E)
                  00821a80    00000080                  : BIOS.obj (.text:ti_sysbios_knl_Swi_startup__E)
                  00821b00    00000080                  : BIOS.obj (.text:ti_sysbios_knl_Task_restore__E)
                  00821b80    00000080     rts6600_elf.lib : wchar.obj (.text:ungetwc)
                  00821c00    00000080                     : lowlev.obj (.text:unlink)
                  00821c80    00000080     ti.targets.rts6000.ae66 : Core-label.oe66 (.text:xdc_runtime_Core_assignLabel__I)
                  00821d00    00000080                             : Core-params.oe66 (.text:xdc_runtime_Core_assignParams__I)
                  00821d80    00000080                             : LoggerBuf.oe66 (.text:xdc_runtime_LoggerBuf_filterOutEvent__I)
                  00821e00    00000080                             : System.oe66 (.text:xdc_runtime_System_atexit__E)
                  00821e80    00000080                             : System.oe66 (.text:xdc_runtime_System_processAtExit__E)
                  00821f00    00000080                             : System.oe66 (.text:xdc_runtime_System_putchar__I)
                  00821f80    00000080                             : Text.oe66 (.text:xdc_runtime_Text_printVisFxn__I)
                  00822000    00000060     rts6600_elf.lib : locale0.obj (.text:_Deletegloballocale)
                  00822060    00000060     frameworkFunctions.obj (.text:_ZNKSt5ctypeIcE10do_tolowerEPcPKc)
                  008220c0    00000060     frameworkFunctions.obj (.text:_ZNKSt5ctypeIcE10do_toupperEPcPKc)
                  00822120    00000060     rts6600_elf.lib : wiostrea.obj (.text:_ZNKSt5ctypeIwE10do_toupperEw)
                  00822180    00000060                     : wiostrea.obj (.text:_ZNKSt5ctypeIwE9do_narrowEwc)
                  008221e0    00000060     dynamicMemory.obj (.text:_ZNKSt7num_putIcSt19ostreambuf_iteratorIcSt11char_traitsIcEEE4_PutES3_PKcj)
                  00822240    00000060     dynamicMemory.obj (.text:_ZNKSt7num_putIcSt19ostreambuf_iteratorIcSt11char_traitsIcEEE4_RepES3_cj)
                  008222a0    00000060     frameworkFunctions.obj (.text:_ZNKSt9basic_iosIcSt11char_traitsIcEE5widenEc)
                  00822300    00000060     rts6600_elf.lib : ios.obj (.text:_ZNKSt9exception6_RaiseEv)
                  00822360    00000060                     : iostream.obj (.text:_ZNSiD0Ev)
                  008223c0    00000060                     : iostream.obj (.text:_ZNSoD0Ev)
                  00822420    00000060     dynamicMemory.obj (.text:_ZNSs7_InsideEPKc)
                  00822480    00000060     dynamicMemory.obj (.text:_ZNSs9_ChassignEjjc)
                  008224e0    00000060     lapackFunctions.obj (.text:_ZNSt13_Complex_baseIfSt16_C_float_complexE4_AddIfEEvRKSt7complexIT_E)
                  00822540    00000060     lapackFunctions.obj (.text:_ZNSt13_Complex_baseIfSt16_C_float_complexE4_SubIfEEvRKSt7complexIT_E)
                  008225a0    00000060     rts6600_elf.lib : iostream.obj (.text:_ZNSt13basic_filebufIcSt11char_traitsIcEE5imbueERKSt6locale)
                  00822600    00000060                     : wiostrea.obj (.text:_ZNSt13basic_istreamIwSt11char_traitsIwEED0Ev)
                  00822660    00000060                     : wiostrea.obj (.text:_ZNSt13basic_ostreamIwSt11char_traitsIwEED0Ev)
                  008226c0    00000060                     : iostream.obj (.text:_ZNSt15basic_streambufIcSt11char_traitsIcEE5_InitEv)
                  00822720    00000060                     : iostream.obj (.text:_ZNSt15basic_streambufIcSt11char_traitsIcEE5uflowEv)
                  00822780    00000060                     : iostream.obj (.text:_ZNSt15basic_streambufIcSt11char_traitsIcEE7seekoffElNSt5_IosbIiE8_SeekdirENS4_9_OpenmodeE)
                  008227e0    00000060                     : iostream.obj (.text:_ZNSt15basic_streambufIcSt11char_traitsIcEE7seekposESt4fposIiENSt5_IosbIiE9_OpenmodeE)
                  00822840    00000060                     : iostream.obj (.text:_ZNSt15basic_streambufIcSt11char_traitsIcEED0Ev)
                  008228a0    00000060                     : iostream.obj (.text:_ZNSt15basic_streambufIcSt11char_traitsIcEED1Ev)
                  00822900    00000060                     : wiostrea.obj (.text:_ZNSt15basic_streambufIwSt11char_traitsIwEE5_InitEv)
                  00822960    00000060                     : wiostrea.obj (.text:_ZNSt15basic_streambufIwSt11char_traitsIwEE5uflowEv)
                  008229c0    00000060                     : wiostrea.obj (.text:_ZNSt15basic_streambufIwSt11char_traitsIwEE7seekoffElNSt5_IosbIiE8_SeekdirENS4_9_OpenmodeE)
                  00822a20    00000060                     : wiostrea.obj (.text:_ZNSt15basic_streambufIwSt11char_traitsIwEE7seekposESt4fposIiENSt5_IosbIiE9_OpenmodeE)
                  00822a80    00000060                     : wiostrea.obj (.text:_ZNSt15basic_streambufIwSt11char_traitsIwEED0Ev)
                  00822ae0    00000060                     : wiostrea.obj (.text:_ZNSt15basic_streambufIwSt11char_traitsIwEED1Ev)
                  00822b40    00000060     frameworkFunctions.obj (.text:_ZNSt5ctypeIcE7_GetcatEPPKNSt6locale5facetE)
                  00822ba0    00000060     rts6600_elf.lib : wiostrea.obj (.text:_ZNSt5ctypeIwED0Ev)
                  00822c00    00000060                     : wiostrea.obj (.text:_ZNSt5ctypeIwED1Ev)
                  00822c60    00000060     frameworkFunctions.obj (.text:_ZNSt6locale2idcvjEv)
                  00822cc0    00000060     frameworkFunctions.obj (.text:_ZNSt6locale5facet7_DecrefEv)
                  00822d20    00000060     rts6600_elf.lib : locale0.obj (.text:_ZNSt6locale7_LocimpD0Ev)
                  00822d80    00000060                     : locale0.obj (.text:_ZNSt6localeC1Ev)
                  00822de0    00000060     frameworkFunctions.obj (.text:_ZNSt7complexIfEdVERKf)
                  00822e40    00000060     dynamicMemory.obj (.text:_ZNSt7num_putIcSt19ostreambuf_iteratorIcSt11char_traitsIcEEEC1Ej)
                  00822ea0    00000060     rts6600_elf.lib : ios.obj (.text:_ZNSt8ios_baseD0Ev)
                  00822f00    00000060     dynamicMemory.obj (.text:_ZNSt8numpunctIcEC1Ej)
                  00822f60    00000060     rts6600_elf.lib : iostream.obj (.text:_ZNSt9basic_iosIcSt11char_traitsIcEED0Ev)
                  00822fc0    00000060                     : wiostrea.obj (.text:_ZNSt9basic_iosIwSt11char_traitsIwEED0Ev)
                  00823020    00000060     frameworkFunctions.obj (.text:_ZSt4endlIcSt11char_traitsIcEERSt13basic_ostreamIT_T0_ES6_)
                  00823080    00000060     pipdScheduling.obj (.text:_ZStdvIfESt7complexIT_ERKS2_RKS1_)
                  008230e0    00000060     rts6600_elf.lib : iostream.obj (.text:_ZTv0_n12_NSiD0Ev)
                  00823140    00000060                     : iostream.obj (.text:_ZTv0_n12_NSoD0Ev)
                  008231a0    00000060                     : wiostrea.obj (.text:_ZTv0_n12_NSt13basic_istreamIwSt11char_traitsIwEED0Ev)
                  00823200    00000060                     : wiostrea.obj (.text:_ZTv0_n12_NSt13basic_ostreamIwSt11char_traitsIwEED0Ev)
                  00823260    00000060     pipdScheduling.obj (.text:__FDtest)
                  008232c0    00000060     rts6600_elf.lib : frcmpyd_div.obj (.text:__TI_frcmpyd_div)
                  00823320    00000060                     : llshift.obj (.text:__c6xabi_llshru)
                  00823380    00000060                     : vec_newdel.obj (.text:__cxa_vec_ctor)
                  008233e0    00000060                     : vec_newdel.obj (.text:__cxa_vec_new)
                  00823440    00000060                     : locale0.obj (.text:__sti___11_locale0_cpp_36e19383)
                  008234a0    00000060                     : imath64.obj (.text:_subcull)
                  00823500    00000060     sysbios.ae66 : c64p_Hwi_asm_switch.obj (.text:_ti_sysbios_family_c64p_Hwi_switchAndDispatch__I)
                  00823560    00000060                  : c64p_Hwi_asm_switch.obj (.text:_ti_sysbios_family_xxx_Hwi_switchAndRunFunc)
                  008235c0    00000060     scheduler_pe66.oe66 (.text:calloc)
                  00823620    00000060     rts6600_elf.lib : fgetpos.obj (.text:fgetpos)
                  00823680    00000060                     : lowlev.obj (.text:lseek)
                  008236e0    00000060                     : memccpy.obj (.text:memccpy)
                  00823740    00000060                     : memchr.obj (.text:memchr)
                  008237a0    00000060                     : memmov.obj (.text:memmove)
                  00823800    00000060                     : modff.obj (.text:modff)
                  00823860    00000060                     : lowlev.obj (.text:read)
                  008238c0    00000060                     : setlocale.obj (.text:setlocale)
                  00823920    00000060                     : sprintf.obj (.text:sprintf)
                  00823980    00000060                     : strcmp.obj (.text:strcmp)
                  008239e0    00000060                     : strcspn.obj (.text:strcspn)
                  00823a40    00000060     scheduler_pe66.oe66 (.text:ti_sysbios_BIOS_atExitFunc__I)
                  00823aa0    00000060     scheduler_pe66.oe66 (.text:ti_sysbios_BIOS_errorRaiseHook__I)
                  00823b00    00000060     scheduler_pe66.oe66 (.text:ti_sysbios_BIOS_registerRTSLock__I)
                  00823b60    00000060     scheduler_pe66.oe66 (.text:ti_sysbios_BIOS_removeRTSLock__I)
                  00823bc0    00000060     scheduler_pe66.oe66 (.text:ti_sysbios_BIOS_rtsUnlock__I)
                  00823c20    00000060     scheduler_pe66.oe66 (.text:ti_sysbios_gates_GateHwi_Object__create__S)
                  00823c80    00000060     scheduler_pe66.oe66 (.text:ti_sysbios_gates_GateMutex_Object__create__S)
                  00823ce0    00000060     scheduler_pe66.oe66 (.text:ti_sysbios_heaps_HeapMem_Object__create__S)
                  00823d40    00000060     sysbios.ae66 : BIOS.obj (.text:ti_sysbios_knl_Clock_Module_startup__E)
                  00823da0    00000060     scheduler_pe66.oe66 (.text:ti_sysbios_knl_Clock_doTick__I)
                  00823e00    00000060     scheduler_pe66.oe66 (.text:ti_sysbios_knl_Queue_construct)
                  00823e60    00000060     scheduler_pe66.oe66 (.text:ti_sysbios_knl_Semaphore_construct)
                  00823ec0    00000060     sysbios.ae66 : BIOS.obj (.text:ti_sysbios_knl_Semaphore_pendTimeout__I)
                  00823f20    00000060                  : BIOS.obj (.text:ti_sysbios_knl_Swi_Module_startup__E)
                  00823f80    00000060                  : BIOS.obj (.text:ti_sysbios_knl_Task_enter__I)
                  00823fe0    00000060     rts6600_elf.lib : lowlev.obj (.text:write)
                  00824040    00000060     ti.targets.rts6000.ae66 : Memory.oe66 (.text:xdc_runtime_Memory_calloc__E)
                  008240a0    00000060                             : SysMin.oe66 (.text:xdc_runtime_SysMin_Module_startup__E)
                  00824100    00000060                             : SysMin.oe66 (.text:xdc_runtime_SysMin_exit__E)
                  00824160    00000060     scheduler_pe66.oe66 (.text:xdc_runtime_SysMin_output__I)
                  008241c0    00000060     ti.targets.rts6000.ae66 : System.oe66 (.text:xdc_runtime_System_avprintf__E)
                  00824220    00000060                             : System.oe66 (.text:xdc_runtime_System_vprintf__E)
                  00824280    00000060                             : Text.oe66 (.text:xdc_runtime_Text_cordText__E)
                  008242e0    00000040     dynamicMemory.obj (.text:_ZNKSs6_MyptrEv)
                  00824320    00000040     dynamicMemory.obj (.text:_ZNKSs8max_sizeEv)
                  00824360    00000040     frameworkFunctions.obj (.text:_ZNKSt15basic_streambufIcSt11char_traitsIcEE8_PnavailEv)
                  008243a0    00000040     frameworkFunctions.obj (.text:_ZNKSt5ctypeIcE10do_tolowerEc)
                  008243e0    00000040     frameworkFunctions.obj (.text:_ZNKSt5ctypeIcE10do_toupperEc)
                  00824420    00000040     frameworkFunctions.obj (.text:_ZNKSt5ctypeIcE5widenEc)
                  00824460    00000040     frameworkFunctions.obj (.text:_ZNKSt5ctypeIcE8do_widenEPKcS2_Pc)
                  008244a0    00000040     frameworkFunctions.obj (.text:_ZNKSt5ctypeIcE9do_narrowEPKcS2_cPc)
                  008244e0    00000040     rts6600_elf.lib : wiostrea.obj (.text:_ZNKSt5ctypeIwE5do_isEsw)
                  00824520    00000040                     : wiostrea.obj (.text:_ZNKSt5ctypeIwE8do_widenEc)
                  00824560    00000040     dynamicMemory.obj (.text:_ZNKSt7num_putIcSt19ostreambuf_iteratorIcSt11char_traitsIcEEE3putES3_RSt8ios_basecb)
                  008245a0    00000040     dynamicMemory.obj (.text:_ZNKSt7num_putIcSt19ostreambuf_iteratorIcSt11char_traitsIcEEE3putES3_RSt8ios_basecm)
                  008245e0    00000040     dynamicMemory.obj (.text:_ZNKSt8_Locinfo7_GetcvtEv)
                  00824620    00000040     frameworkFunctions.obj (.text:_ZNKSt8_Locinfo9_GetctypeEv)
                  00824660    00000040     dynamicMemory.obj (.text:_ZNKSt8numpunctIcE8groupingEv)
                  008246a0    00000040     dynamicMemory.obj (.text:_ZNKSt8numpunctIcE8truenameEv)
                  008246e0    00000040     dynamicMemory.obj (.text:_ZNKSt8numpunctIcE9falsenameEv)
                  00824720    00000040     rts6600_elf.lib : iostream.obj (.text:_ZNSiD1Ev)
                  00824760    00000040     frameworkFunctions.obj (.text:_ZNSo5_OsfxEv)
                  008247a0    00000040     rts6600_elf.lib : iostream.obj (.text:_ZNSoD1Ev)
                  008247e0    00000040     dynamicMemory.obj (.text:_ZNSs4_EosEj)
                  00824820    00000040     dynamicMemory.obj (.text:_ZNSs6_MyptrEv)
                  00824860    00000040     dynamicMemory.obj (.text:_ZNSs6assignEPKc)
                  008248a0    00000040     dynamicMemory.obj (.text:_ZNSs6assignERKSs)
                  008248e0    00000040     dynamicMemory.obj (.text:_ZNSsC1EPKc)
                  00824920    00000040     dynamicMemory.obj (.text:_ZNSsC1Ev)
                  00824960    00000040     frameworkFunctions.obj (.text:_ZNSt10ctype_baseC1Ej)
                  008249a0    00000040     dynamicMemory.obj (.text:_ZNSt11char_traitsIcE6assignEPcjc)
                  008249e0    00000040     frameworkFunctions.obj (.text:_ZNSt13_Complex_baseIfSt16_C_float_complexEC1ERKfS3_)
                  00824a20    00000040     rts6600_elf.lib : wiostrea.obj (.text:_ZNSt13basic_istreamIwSt11char_traitsIwEED1Ev)
                  00824a60    00000040                     : wiostrea.obj (.text:_ZNSt13basic_ostreamIwSt11char_traitsIwEED1Ev)
                  00824aa0    00000040     frameworkFunctions.obj (.text:_ZNSt15basic_streambufIcSt11char_traitsIcEE5sputnEPKci)
                  00824ae0    00000040     dynamicMemory.obj (.text:_ZNSt19ostreambuf_iteratorIcSt11char_traitsIcEEC1EPSt15basic_streambufIcS1_E)
                  00824b20    00000040     frameworkFunctions.obj (.text:_ZNSt5ctypeIcE5_TidyEv)
                  00824b60    00000040     frameworkFunctions.obj (.text:_ZNSt5ctypeIcED1Ev)
                  00824ba0    00000040     frameworkFunctions.obj (.text:_ZNSt6locale5facet7_IncrefEv)
                  00824be0    00000040     frameworkFunctions.obj (.text:_ZNSt6locale5facetC1Ej)
                  00824c20    00000040     frameworkFunctions.obj (.text:_ZNSt6localeC1ERKS_)
                  00824c60    00000040     frameworkFunctions.obj (.text:_ZNSt6localeD1Ev)
                  00824ca0    00000040     lapackFunctions.obj (.text:_ZNSt7complexIfEaSERKf)
                  00824ce0    00000040     dynamicMemory.obj (.text:_ZNSt7num_putIcSt19ostreambuf_iteratorIcSt11char_traitsIcEEE7_GetcatEPPKNSt6locale5facetE)
                  00824d20    00000040     frameworkFunctions.obj (.text:_ZNSt8ios_base5widthEi)
                  00824d60    00000040     dynamicMemory.obj (.text:_ZNSt8numpunctIcE5_TidyEv)
                  00824da0    00000040     dynamicMemory.obj (.text:_ZNSt8numpunctIcE7_GetcatEPPKNSt6locale5facetE)
                  00824de0    00000040     dynamicMemory.obj (.text:_ZNSt8numpunctIcED1Ev)
                  00824e20    00000040     frameworkFunctions.obj (.text:_ZNSt9basic_iosIcSt11char_traitsIcEE5clearENSt5_IosbIiE8_IostateEb)
                  00824e60    00000040     frameworkFunctions.obj (.text:_ZNSt9basic_iosIcSt11char_traitsIcEE8setstateENSt5_IosbIiE8_IostateEb)
                  00824ea0    00000040     pipdScheduling.obj (.text:_ZSt3absIfET_RKSt7complexIS0_E)
                  00824ee0    00000040     pipdScheduling.obj (.text:_ZSt3absf)
                  00824f20    00000040     blasFunctions.obj (.text:_ZSt3powff)
                  00824f60    00000040     pipdScheduling.obj (.text:_ZSt4conjIfESt7complexIT_ERKS2_)
                  00824fa0    00000040     rts6600_elf.lib : throw.obj (.text:_ZSt6_ThrowRKSt9exception)
                  00824fe0    00000040     lapackFunctions.obj (.text:_ZStdvIfESt7complexIT_ERKS1_RKS2_)
                  00825020    00000040     lapackFunctions.obj (.text:_ZStdvIfESt7complexIT_ERKS2_S4_)
                  00825060    00000040     lapackFunctions.obj (.text:_ZStmiIfESt7complexIT_ERKS2_S4_)
                  008250a0    00000040     frameworkFunctions.obj (.text:_ZStmlIfESt7complexIT_ERKS1_RKS2_)
                  008250e0    00000040     lapackFunctions.obj (.text:_ZStmlIfESt7complexIT_ERKS2_S4_)
                  00825120    00000040     frameworkFunctions.obj (.text:_ZStoRRNSt5_IosbIiE8_IostateES1_)
                  00825160    00000040     lapackFunctions.obj (.text:_ZStplIfESt7complexIT_ERKS2_S4_)
                  008251a0    00000040     rts6600_elf.lib : iostream.obj (.text:_ZTv0_n12_NSiD1Ev)
                  008251e0    00000040                     : iostream.obj (.text:_ZTv0_n12_NSoD1Ev)
                  00825220    00000040                     : wiostrea.obj (.text:_ZTv0_n12_NSt13basic_istreamIwSt11char_traitsIwEED1Ev)
                  00825260    00000040                     : wiostrea.obj (.text:_ZTv0_n12_NSt13basic_ostreamIwSt11char_traitsIwEED1Ev)
                  008252a0    00000040                     : isinf.obj (.text:__c6xabi_isinf)
                  008252e0    00000040                     : _printfi.obj (.text:__c6xabi_isnan)
                  00825320    00000040                     : args_main.obj (.text:_args_main)
                  00825360    00000040                     : sprintf.obj (.text:_outs)
                  008253a0    00000040     sysbios.ae66 : c62_TaskSupport_asm.obj (.text:_ti_sysbios_family_c62_TaskSupport_buildTaskStack)
                  008253e0    00000040     scheduler_pe66.oe66 (.text:free)
                  00825420    00000040     rts6600_elf.lib : wchar.obj (.text:mbrtowc)
                  00825460    00000040                     : multibyte.obj (.text:mbtowc)
                  008254a0    00000040                     : strlen.obj (.text:strlen)
                  008254e0    00000040     scheduler_pe66.oe66 (.text:ti_sysbios_BIOS_exitFunc__I)
                  00825520    00000040     scheduler_pe66.oe66 (.text:ti_sysbios_BIOS_rtsLock__I)
                  00825560    00000040     scheduler_pe66.oe66 (.text:ti_sysbios_BIOS_startFunc__I)
                  008255a0    00000040     scheduler_pe66.oe66 (.text:ti_sysbios_family_c64p_Hwi_Module__startupDone__F)
                  008255e0    00000040     sysbios.ae66 : BIOS.obj (.text:ti_sysbios_family_c64p_Hwi_disableInterrupt__E)
                  00825620    00000040                  : BIOS.obj (.text:ti_sysbios_family_c64p_Hwi_enableInterrupt__E)
                  00825660    00000040     scheduler_pe66.oe66 (.text:ti_sysbios_gates_GateHwi_Handle__label__S)
                  008256a0    00000040     scheduler_pe66.oe66 (.text:ti_sysbios_gates_GateHwi_Object__delete__S)
                  008256e0    00000040     scheduler_pe66.oe66 (.text:ti_sysbios_gates_GateMutex_Handle__label__S)
                  00825720    00000040     sysbios.ae66 : BIOS.obj (.text:ti_sysbios_gates_GateMutex_Instance_init__E)
                  00825760    00000040     scheduler_pe66.oe66 (.text:ti_sysbios_gates_GateMutex_Object__delete__S)
                  008257a0    00000040     sysbios.ae66 : BIOS.obj (.text:ti_sysbios_gates_GateMutex_leave__E)
                  008257e0    00000040     scheduler_pe66.oe66 (.text:ti_sysbios_heaps_HeapMem_Handle__label__S)
                  00825820    00000040     scheduler_pe66.oe66 (.text:ti_sysbios_heaps_HeapMem_Object__delete__S)
                  00825860    00000040     scheduler_pe66.oe66 (.text:ti_sysbios_heaps_HeapMem_Object__get__S)
                  008258a0    00000040     scheduler_pe66.oe66 (.text:ti_sysbios_knl_Queue_Object__destruct__S)
                  008258e0    00000040     scheduler_pe66.oe66 (.text:ti_sysbios_knl_Semaphore_Object__destruct__S)
                  00825920    00000040     scheduler_pe66.oe66 (.text:ti_sysbios_knl_Swi_Object__get__S)
                  00825960    00000040     scheduler_pe66.oe66 (.text:ti_sysbios_knl_Task_Object__get__S)
                  008259a0    00000040     scheduler_pe66.oe66 (.text:ti_sysbios_timers_timer64_Timer_Module__startupDone__F)
                  008259e0    00000040     rts6600_elf.lib : wchar.obj (.text:wcrtomb)
                  00825a20    00000040     ti.targets.rts6000.ae66 : Error.oe66 (.text:xdc_runtime_Error_check__E)
                  00825a60    00000040                             : Error.oe66 (.text:xdc_runtime_Error_init__E)
                  00825aa0    00000040                             : Error.oe66 (.text:xdc_runtime_Error_raiseX__E)
                  00825ae0    00000040                             : Gate.oe66 (.text:xdc_runtime_Gate_leaveSystem__E)
                  00825b20    00000040     scheduler_pe66.oe66 (.text:xdc_runtime_LoggerBuf_Handle__label__S)
                  00825b60    00000040     ti.targets.rts6000.ae66 : LoggerBuf.oe66 (.text:xdc_runtime_LoggerBuf_Instance_finalize__E)
                  00825ba0    00000040     scheduler_pe66.oe66 (.text:xdc_runtime_LoggerBuf_Object__delete__S)
                  00825be0    00000040     scheduler_pe66.oe66 (.text:xdc_runtime_LoggerBuf_Object__get__S)
                  00825c20    00000040     ti.targets.rts6000.ae66 : LoggerBuf.oe66 (.text:xdc_runtime_LoggerBuf_write0__E)
                  00825c60    00000040                             : LoggerBuf.oe66 (.text:xdc_runtime_LoggerBuf_write1__E)
                  00825ca0    00000040                             : LoggerBuf.oe66 (.text:xdc_runtime_LoggerBuf_write2__E)
                  00825ce0    00000040                             : Memory.oe66 (.text:xdc_runtime_Memory_free__E)
                  00825d20    00000040                             : Registry.oe66 (.text:xdc_runtime_Registry_findById__E)
                  00825d60    00000040                             : System.oe66 (.text:xdc_runtime_System_abort__E)
                  00825da0    00000040     scheduler_pe66.oe66 (.text:xdc_runtime_System_aprintf__E)
                  00825de0    00000040     ti.targets.rts6000.ae66 : System.oe66 (.text:xdc_runtime_System_exit__E)
                  00825e20    00000040     scheduler_pe66.oe66 (.text:xdc_runtime_System_printf__E)
                  00825e60    00000040     ti.targets.rts6000.ae66 : Text.oe66 (.text:xdc_runtime_Text_ropeText__E)
                  00825ea0    00000020     rts6600_elf.lib : xatexit.obj (.text:_Atexit)
                  00825ec0    00000020                     : locale0.obj (.text:_Getgloballocale)
                  00825ee0    00000020                     : newhandler.obj (.text:_Z21__default_new_handlerv)
                  00825f00    00000020                     : typeinfo_.obj (.text:_ZN10__cxxabiv117__class_type_infoD0Ev)
                  00825f20    00000020                     : typeinfo_.obj (.text:_ZN10__cxxabiv117__class_type_infoD1Ev)
                  00825f40    00000020                     : typeinfo_.obj (.text:_ZN10__cxxabiv120__si_class_type_infoD0Ev)
                  00825f60    00000020                     : typeinfo_.obj (.text:_ZN10__cxxabiv120__si_class_type_infoD1Ev)
                  00825f80    00000020                     : typeinfo_.obj (.text:_ZN10__cxxabiv121__vmi_class_type_infoD0Ev)
                  00825fa0    00000020                     : typeinfo_.obj (.text:_ZN10__cxxabiv121__vmi_class_type_infoD1Ev)
                  00825fc0    00000020     dynamicMemory.obj (.text:_ZNKSaIcE8max_sizeEv)
                  00825fe0    00000020     frameworkFunctions.obj (.text:_ZNKSo6sentrycvbEv)
                  00826000    00000020     dynamicMemory.obj (.text:_ZNKSs4sizeEv)
                  00826020    00000020     dynamicMemory.obj (.text:_ZNKSs5c_strEv)
                  00826040    00000020     rts6600_elf.lib : string.obj (.text:_ZNKSt11logic_error4whatEv)
                  00826060    00000020                     : string.obj (.text:_ZNKSt11logic_error8_DoraiseEv)
                  00826080    00000020                     : iostream.obj (.text:_ZNKSt12codecvt_base11do_encodingEv)
                  008260a0    00000020                     : iostream.obj (.text:_ZNKSt12codecvt_base13do_max_lengthEv)
                  008260c0    00000020                     : iostream.obj (.text:_ZNKSt12codecvt_base16do_always_noconvEv)
                  008260e0    00000020                     : string.obj (.text:_ZNKSt12length_error8_DoraiseEv)
                  00826100    00000020                     : string.obj (.text:_ZNKSt12out_of_range8_DoraiseEv)
                  00826120    00000020     frameworkFunctions.obj (.text:_ZNKSt13_Complex_baseIfSt16_C_float_complexE4imagEv)
                  00826140    00000020     frameworkFunctions.obj (.text:_ZNKSt13_Complex_baseIfSt16_C_float_complexE4realEv)
                  00826160    00000020     rts6600_elf.lib : ios.obj (.text:_ZNKSt13runtime_error4whatEv)
                  00826180    00000020                     : ios.obj (.text:_ZNKSt13runtime_error8_DoraiseEv)
                  008261a0    00000020     dynamicMemory.obj (.text:_ZNKSt19ostreambuf_iteratorIcSt11char_traitsIcEE6failedEv)
                  008261c0    00000020     frameworkFunctions.obj (.text:_ZNKSt5ctypeIcE8do_widenEc)
                  008261e0    00000020     frameworkFunctions.obj (.text:_ZNKSt5ctypeIcE9do_narrowEcc)
                  00826200    00000020     rts6600_elf.lib : wiostrea.obj (.text:_ZNKSt5ctypeIwE2isEsw)
                  00826220    00000020                     : wiostrea.obj (.text:_ZNKSt5ctypeIwE5widenEc)
                  00826240    00000020                     : wiostrea.obj (.text:_ZNKSt5ctypeIwE6narrowEwc)
                  00826260    00000020                     : iostream.obj (.text:_ZNKSt7codecvtIcciE10do_unshiftERiPcS2_RS2_)
                  00826280    00000020                     : iostream.obj (.text:_ZNKSt7codecvtIcciE5do_inERiPKcS3_RS3_PcS5_RS5_)
                  008262a0    00000020                     : iostream.obj (.text:_ZNKSt7codecvtIcciE6do_outERiPKcS3_RS3_PcS5_RS5_)
                  008262c0    00000020                     : iostream.obj (.text:_ZNKSt7codecvtIcciE9do_lengthERKiPKcS4_j)
                  008262e0    00000020                     : wiostrea.obj (.text:_ZNKSt7codecvtIwciE11do_encodingEv)
                  00826300    00000020                     : wiostrea.obj (.text:_ZNKSt7codecvtIwciE13do_max_lengthEv)
                  00826320    00000020                     : wiostrea.obj (.text:_ZNKSt7codecvtIwciE16do_always_noconvEv)
                  00826340    00000020     dynamicMemory.obj (.text:_ZNKSt8_Locinfo8_GettrueEv)
                  00826360    00000020     dynamicMemory.obj (.text:_ZNKSt8_Locinfo9_GetfalseEv)
                  00826380    00000020     dynamicMemory.obj (.text:_ZNKSt8_Locinfo9_GetlconvEv)
                  008263a0    00000020     frameworkFunctions.obj (.text:_ZNKSt8ios_base4failEv)
                  008263c0    00000020     frameworkFunctions.obj (.text:_ZNKSt8ios_base4goodEv)
                  008263e0    00000020     frameworkFunctions.obj (.text:_ZNKSt8ios_base5flagsEv)
                  00826400    00000020     frameworkFunctions.obj (.text:_ZNKSt8ios_base5widthEv)
                  00826420    00000020     frameworkFunctions.obj (.text:_ZNKSt8ios_base6getlocEv)
                  00826440    00000020     rts6600_elf.lib : ios.obj (.text:_ZNKSt8ios_base7failure8_DoraiseEv)
                  00826460    00000020     frameworkFunctions.obj (.text:_ZNKSt8ios_base7rdstateEv)
                  00826480    00000020     dynamicMemory.obj (.text:_ZNKSt8ios_base9precisionEv)
                  008264a0    00000020     dynamicMemory.obj (.text:_ZNKSt8numpunctIcE11do_groupingEv)
                  008264c0    00000020     dynamicMemory.obj (.text:_ZNKSt8numpunctIcE11do_truenameEv)
                  008264e0    00000020     dynamicMemory.obj (.text:_ZNKSt8numpunctIcE12do_falsenameEv)
                  00826500    00000020     dynamicMemory.obj (.text:_ZNKSt8numpunctIcE13decimal_pointEv)
                  00826520    00000020     dynamicMemory.obj (.text:_ZNKSt8numpunctIcE13thousands_sepEv)
                  00826540    00000020     dynamicMemory.obj (.text:_ZNKSt8numpunctIcE16do_decimal_pointEv)
                  00826560    00000020     dynamicMemory.obj (.text:_ZNKSt8numpunctIcE16do_thousands_sepEv)
                  00826580    00000020     frameworkFunctions.obj (.text:_ZNKSt9basic_iosIcSt11char_traitsIcEE3tieEv)
                  008265a0    00000020     frameworkFunctions.obj (.text:_ZNKSt9basic_iosIcSt11char_traitsIcEE4fillEv)
                  008265c0    00000020     frameworkFunctions.obj (.text:_ZNKSt9basic_iosIcSt11char_traitsIcEE5rdbufEv)
                  008265e0    00000020     rts6600_elf.lib : ios.obj (.text:_ZNKSt9exception4whatEv)
                  00826600    00000020                     : ios.obj (.text:_ZNKSt9exception8_DoraiseEv)
                  00826620    00000020     dynamicMemory.obj (.text:_ZNSaIcE10deallocateEPcj)
                  00826640    00000020     dynamicMemory.obj (.text:_ZNSaIcE8allocateEj)
                  00826660    00000020     dynamicMemory.obj (.text:_ZNSaIcEC1ERKS_)
                  00826680    00000020     dynamicMemory.obj (.text:_ZNSaIcEC1Ev)
                  008266a0    00000020     frameworkFunctions.obj (.text:_ZNSo12_Sentry_baseC2ERSo)
                  008266c0    00000020     frameworkFunctions.obj (.text:_ZNSo12_Sentry_baseD2Ev)
                  008266e0    00000020     frameworkFunctions.obj (.text:_ZNSo6sentryD1Ev)
                  00826700    00000020     frameworkFunctions.obj (.text:_ZNSolsEPFRSoS_E)
                  00826720    00000020     dynamicMemory.obj (.text:_ZNSsD1Ev)
                  00826740    00000020     dynamicMemory.obj (.text:_ZNSsixEj)
                  00826760    00000020     frameworkFunctions.obj (.text:_ZNSt10ctype_baseC2Ej)
                  00826780    00000020     frameworkFunctions.obj (.text:_ZNSt10ctype_baseD0Ev)
                  008267a0    00000020     frameworkFunctions.obj (.text:_ZNSt10ctype_baseD1Ev)
                  008267c0    00000020     frameworkFunctions.obj (.text:_ZNSt10ctype_baseD2Ev)
                  008267e0    00000020     dynamicMemory.obj (.text:_ZNSt11_String_valIcSaIcEEC1ES0_)
                  00826800    00000020     dynamicMemory.obj (.text:_ZNSt11_String_valIcSaIcEEC2ES0_)
                  00826820    00000020     frameworkFunctions.obj (.text:_ZNSt11char_traitsIcE11eq_int_typeERKiS2_)
                  00826840    00000020     frameworkFunctions.obj (.text:_ZNSt11char_traitsIcE11to_int_typeERKc)
                  00826860    00000020     frameworkFunctions.obj (.text:_ZNSt11char_traitsIcE3eofEv)
                  00826880    00000020     dynamicMemory.obj (.text:_ZNSt11char_traitsIcE4copyEPcPKcj)
                  008268a0    00000020     dynamicMemory.obj (.text:_ZNSt11char_traitsIcE4moveEPcPKcj)
                  008268c0    00000020     dynamicMemory.obj (.text:_ZNSt11char_traitsIcE6assignERcRKc)
                  008268e0    00000020     frameworkFunctions.obj (.text:_ZNSt11char_traitsIcE6lengthEPKc)
                  00826900    00000020     rts6600_elf.lib : iostream.obj (.text:_ZNSt12codecvt_baseD0Ev)
                  00826920    00000020                     : iostream.obj (.text:_ZNSt12codecvt_baseD1Ev)
                  00826940    00000020     pipdScheduling.obj (.text:_ZNSt13_Complex_baseIfSt16_C_float_complexE4imagERKf)
                  00826960    00000020     pipdScheduling.obj (.text:_ZNSt13_Complex_baseIfSt16_C_float_complexE4realERKf)
                  00826980    00000020     frameworkFunctions.obj (.text:_ZNSt13_Complex_baseIfSt16_C_float_complexEC2ERKfS3_)
                  008269a0    00000020     rts6600_elf.lib : iostream.obj (.text:_ZNSt15basic_streambufIcSt11char_traitsIcEE4syncEv)
                  008269c0    00000020                     : iostream.obj (.text:_ZNSt15basic_streambufIcSt11char_traitsIcEE5_LockEv)
                  008269e0    00000020                     : iostream.obj (.text:_ZNSt15basic_streambufIcSt11char_traitsIcEE5imbueERKSt6locale)
                  00826a00    00000020     frameworkFunctions.obj (.text:_ZNSt15basic_streambufIcSt11char_traitsIcEE6_PnincEv)
                  00826a20    00000020     rts6600_elf.lib : iostream.obj (.text:_ZNSt15basic_streambufIcSt11char_traitsIcEE6setbufEPci)
                  00826a40    00000020                     : iostream.obj (.text:_ZNSt15basic_streambufIcSt11char_traitsIcEE7_UnlockEv)
                  00826a60    00000020     frameworkFunctions.obj (.text:_ZNSt15basic_streambufIcSt11char_traitsIcEE7pubsyncEv)
                  00826a80    00000020     rts6600_elf.lib : iostream.obj (.text:_ZNSt15basic_streambufIcSt11char_traitsIcEE8overflowEi)
                  00826aa0    00000020                     : iostream.obj (.text:_ZNSt15basic_streambufIcSt11char_traitsIcEE9pbackfailEi)
                  00826ac0    00000020                     : iostream.obj (.text:_ZNSt15basic_streambufIcSt11char_traitsIcEE9showmanycEv)
                  00826ae0    00000020                     : iostream.obj (.text:_ZNSt15basic_streambufIcSt11char_traitsIcEE9underflowEv)
                  00826b00    00000020                     : wiostrea.obj (.text:_ZNSt15basic_streambufIwSt11char_traitsIwEE4syncEv)
                  00826b20    00000020                     : wiostrea.obj (.text:_ZNSt15basic_streambufIwSt11char_traitsIwEE5_LockEv)
                  00826b40    00000020                     : wiostrea.obj (.text:_ZNSt15basic_streambufIwSt11char_traitsIwEE5imbueERKSt6locale)
                  00826b60    00000020                     : wiostrea.obj (.text:_ZNSt15basic_streambufIwSt11char_traitsIwEE6setbufEPwi)
                  00826b80    00000020                     : wiostrea.obj (.text:_ZNSt15basic_streambufIwSt11char_traitsIwEE7_UnlockEv)
                  00826ba0    00000020                     : wiostrea.obj (.text:_ZNSt15basic_streambufIwSt11char_traitsIwEE8overflowEj)
                  00826bc0    00000020                     : wiostrea.obj (.text:_ZNSt15basic_streambufIwSt11char_traitsIwEE9pbackfailEj)
                  00826be0    00000020                     : wiostrea.obj (.text:_ZNSt15basic_streambufIwSt11char_traitsIwEE9showmanycEv)
                  00826c00    00000020                     : wiostrea.obj (.text:_ZNSt15basic_streambufIwSt11char_traitsIwEE9underflowEv)
                  00826c20    00000020     dynamicMemory.obj (.text:_ZNSt19ostreambuf_iteratorIcSt11char_traitsIcEEdeEv)
                  00826c40    00000020     dynamicMemory.obj (.text:_ZNSt19ostreambuf_iteratorIcSt11char_traitsIcEEppEv)
                  00826c60    00000020     frameworkFunctions.obj (.text:_ZNSt5ctypeIcE5_InitERKSt8_Locinfo)
                  00826c80    00000020     frameworkFunctions.obj (.text:_ZNSt5ctypeIcED0Ev)
                  00826ca0    00000020     dynamicMemory.obj (.text:_ZNSt6locale2idC1Ej)
                  00826cc0    00000020     frameworkFunctions.obj (.text:_ZNSt6locale5facetC2Ej)
                  00826ce0    00000020     frameworkFunctions.obj (.text:_ZNSt6locale5facetD0Ev)
                  00826d00    00000020     frameworkFunctions.obj (.text:_ZNSt6locale5facetD1Ev)
                  00826d20    00000020     frameworkFunctions.obj (.text:_ZNSt6locale5facetD2Ev)
                  00826d40    00000020     frameworkFunctions.obj (.text:_ZNSt7_LockitC1Ei)
                  00826d60    00000020     frameworkFunctions.obj (.text:_ZNSt7_LockitD1Ev)
                  00826d80    00000020     rts6600_elf.lib : iostream.obj (.text:_ZNSt7codecvtIcciED0Ev)
                  00826da0    00000020                     : iostream.obj (.text:_ZNSt7codecvtIcciED1Ev)
                  00826dc0    00000020                     : wiostrea.obj (.text:_ZNSt7codecvtIwciED0Ev)
                  00826de0    00000020                     : wiostrea.obj (.text:_ZNSt7codecvtIwciED1Ev)
                  00826e00    00000020     frameworkFunctions.obj (.text:_ZNSt7complexIfEC1ERKfS2_)
                  00826e20    00000020     lapackFunctions.obj (.text:_ZNSt7complexIfEdVIfEERS0_RKS_IT_E)
                  00826e40    00000020     lapackFunctions.obj (.text:_ZNSt7complexIfEmIIfEERS0_RKS_IT_E)
                  00826e60    00000020     frameworkFunctions.obj (.text:_ZNSt7complexIfEmLIfEERS0_RKS_IT_E)
                  00826e80    00000020     lapackFunctions.obj (.text:_ZNSt7complexIfEpLIfEERS0_RKS_IT_E)
                  00826ea0    00000020     dynamicMemory.obj (.text:_ZNSt7num_putIcSt19ostreambuf_iteratorIcSt11char_traitsIcEEE5_InitERKSt8_Locinfo)
                  00826ec0    00000020     dynamicMemory.obj (.text:_ZNSt7num_putIcSt19ostreambuf_iteratorIcSt11char_traitsIcEEED0Ev)
                  00826ee0    00000020     dynamicMemory.obj (.text:_ZNSt7num_putIcSt19ostreambuf_iteratorIcSt11char_traitsIcEEED1Ev)
                  00826f00    00000020     pipdScheduling.obj (.text:_ZNSt8_CtraitsIfE4sqrtEf)
                  00826f20    00000020     pipdScheduling.obj (.text:_ZNSt8_CtraitsIfE5_InfvEf)
                  00826f40    00000020     lapackFunctions.obj (.text:_ZNSt8_CtraitsIfE5_NanvEf)
                  00826f60    00000020     pipdScheduling.obj (.text:_ZNSt8_CtraitsIfE5ldexpEfi)
                  00826f80    00000020     pipdScheduling.obj (.text:_ZNSt8_CtraitsIfE6_IsinfEf)
                  00826fa0    00000020     pipdScheduling.obj (.text:_ZNSt8_CtraitsIfE6_IsnanEf)
                  00826fc0    00000020     dynamicMemory.obj (.text:_ZNSt8numpunctIcED0Ev)
                  00826fe0    00000020     rts6600_elf.lib : iostream.obj (.text:_ZNSt9basic_iosIcSt11char_traitsIcEED1Ev)
                  00827000    00000020                     : wiostrea.obj (.text:_ZNSt9basic_iosIwSt11char_traitsIwEED1Ev)
                  00827020    00000020                     : ios.obj (.text:_ZNSt9exceptionD0Ev)
                  00827040    00000020                     : ios.obj (.text:_ZNSt9exceptionD1Ev)
                  00827060    00000020     dynamicMemory.obj (.text:_ZSt10_MaklocchrIcET_cPS0_RKSt7_Cvtvec)
                  00827080    00000020     rts6600_elf.lib : locale0.obj (.text:_ZSt11tidy_globalv)
                  008270a0    00000020     displayFunctions.obj (.text:_ZSt4imagIfET_RKSt7complexIS0_E)
                  008270c0    00000020     displayFunctions.obj (.text:_ZSt4realIfET_RKSt7complexIS0_E)
                  008270e0    00000020     lapackFunctions.obj (.text:_ZSt4sqrtf)
                  00827100    00000020     frameworkFunctions.obj (.text:_ZSt8_ToloweriPKSt9_Ctypevec)
                  00827120    00000020     frameworkFunctions.obj (.text:_ZSt8_ToupperiPKSt9_Ctypevec)
                  00827140    00000020     dynamicMemory.obj (.text:_ZSt9_AllocateIcEPT_jS1_)
                  00827160    00000020     frameworkFunctions.obj (.text:_ZStanNSt5_IosbIiE9_FmtflagsES1_)
                  00827180    00000020     rts6600_elf.lib : delete.obj (.text:_ZdlPv)
                  008271a0    00000020                     : placenew.obj (.text:_ZnwjPv)
                  008271c0    00000020                     : errno.obj (.text:__c6xabi_errno_addr)
                  008271e0    00000020                     : truncf.obj (.text:__c6xabi_truncf)
                  00827200    00000020                     : dtor_list.obj (.text:__cxa_atexit)
                  00827220    00000020                     : guard.obj (.text:__cxa_guard_acquire)
                  00827240    00000020                     : guard.obj (.text:__cxa_guard_release)
                  00827260    00000020                     : dtor_list.obj (.text:__cxa_ia64_exit)
                  00827280    00000020                     : memzero.obj (.text:__memzero)
                  008272a0    00000020     ti.targets.rts6000.ae66 : xdc_noinit.oe66 (.text:__xdc__init)
                  008272c0    00000020     rts6600_elf.lib : _lock.obj (.text:_nop)
                  008272e0    00000020                     : printf.obj (.text:_outc)
                  00827300    00000020                     : sprintf.obj (.text:_outc)
                  00827320    00000020                     : printf.obj (.text:_outs)
                  00827340    00000020                     : _lock.obj (.text:_register_lock)
                  00827360    00000020                     : _lock.obj (.text:_register_unlock)
                  00827380    00000020     sysbios.ae66 : c62_TaskSupport_asm.obj (.text:_ti_sysbios_family_c62_TaskSupport_glue)
                  008273a0    00000020     rts6600_elf.lib : exit.obj (.text:abort)
                  008273c0    00000020                     : dtor_list.obj (.text:atexit)
                  008273e0    00000020                     : copy_decompress_none.obj (.text:decompress:none:__TI_decompress_none)
                  00827400    00000020                     : copy_decompress_rle.obj (.text:decompress:rle24:__TI_decompress_rle24)
                  00827420    00000020                     : wchar.obj (.text:fgetwc)
                  00827440    00000020                     : wchar.obj (.text:fputwc)
                  00827460    00000020                     : fsetpos.obj (.text:fsetpos)
                  00827480    00000020                     : setlocale.obj (.text:localeconv)
                  008274a0    00000020     scheduler_pe66.oe66 (.text:ti_sysbios_BIOS_RtsGateProxy_enter__E)
                  008274c0    00000020     scheduler_pe66.oe66 (.text:ti_sysbios_BIOS_RtsGateProxy_leave__E)
                  008274e0    00000020     scheduler_pe66.oe66 (.text:ti_sysbios_BIOS_nullFunc__I)
                  00827500    00000020     sysbios.ae66 : BIOS.obj (.text:ti_sysbios_BIOS_setThreadType__E)
                  00827520    00000020                  : BIOS.obj (.text:ti_sysbios_BIOS_start__E)
                  00827540    00000020     scheduler_pe66.oe66 (.text:ti_sysbios_family_c62_TaskSupport_Module__startupDone__S)
                  00827560    00000020     sysbios.ae66 : BIOS.obj (.text:ti_sysbios_family_c62_TaskSupport_checkStack__E)
                  00827580    00000020                  : BIOS.obj (.text:ti_sysbios_family_c64p_Hwi_clearInterrupt__E)
                  008275a0    00000020                  : BIOS.obj (.text:ti_sysbios_family_c64p_Hwi_startup__E)
                  008275c0    00000020                  : BIOS.obj (.text:ti_sysbios_family_c64p_Hwi_switchFromBootStack__E)
                  008275e0    00000020                  : BIOS.obj (.text:ti_sysbios_family_c64p_TimestampProvider_Module_startup__E)
                  00827600    00000020                  : BIOS.obj (.text:ti_sysbios_family_c64p_TimestampProvider_get64__E)
                  00827620    00000020                  : BIOS.obj (.text:ti_sysbios_family_c64p_tci6488_TimerSupport_enable__E)
                  00827640    00000020                  : BIOS.obj (.text:ti_sysbios_gates_GateHwi_Instance_init__E)
                  00827660    00000020                  : BIOS.obj (.text:ti_sysbios_gates_GateHwi_enter__E)
                  00827680    00000020                  : BIOS.obj (.text:ti_sysbios_gates_GateHwi_leave__E)
                  008276a0    00000020                  : BIOS.obj (.text:ti_sysbios_gates_GateHwi_query__E)
                  008276c0    00000020                  : BIOS.obj (.text:ti_sysbios_gates_GateMutex_Instance_finalize__E)
                  008276e0    00000020                  : BIOS.obj (.text:ti_sysbios_gates_GateMutex_query__E)
                  00827700    00000020     scheduler_pe66.oe66 (.text:ti_sysbios_hal_Hwi_HwiProxy_Module__startupDone__S)
                  00827720    00000020     sysbios.ae66 : BIOS.obj (.text:ti_sysbios_hal_Hwi_Module_startup__E)
                  00827740    00000020     scheduler_pe66.oe66 (.text:ti_sysbios_heaps_HeapMem_Module_GateProxy_enter__E)
                  00827760    00000020     scheduler_pe66.oe66 (.text:ti_sysbios_heaps_HeapMem_Module_GateProxy_leave__E)
                  00827780    00000020     sysbios.ae66 : BIOS.obj (.text:ti_sysbios_heaps_HeapMem_isBlocking__E)
                  008277a0    00000020     scheduler_pe66.oe66 (.text:ti_sysbios_knl_Clock_TimerProxy_Module__startupDone__S)
                  008277c0    00000020     scheduler_pe66.oe66 (.text:ti_sysbios_knl_Clock_TimerProxy_getMaxTicks__E)
                  008277e0    00000020     sysbios.ae66 : BIOS.obj (.text:ti_sysbios_knl_Idle_loop__E)
                  00827800    00000020                  : BIOS.obj (.text:ti_sysbios_knl_Queue_Instance_init__E)
                  00827820    00000020     scheduler_pe66.oe66 (.text:ti_sysbios_knl_Queue_Object__get__S)
                  00827840    00000020     scheduler_pe66.oe66 (.text:ti_sysbios_knl_Queue_destruct)
                  00827860    00000020     sysbios.ae66 : BIOS.obj (.text:ti_sysbios_knl_Queue_empty__E)
                  00827880    00000020                  : BIOS.obj (.text:ti_sysbios_knl_Semaphore_Instance_finalize__E)
                  008278a0    00000020     scheduler_pe66.oe66 (.text:ti_sysbios_knl_Semaphore_destruct)
                  008278c0    00000020     sysbios.ae66 : BIOS.obj (.text:ti_sysbios_knl_Swi_disable__E)
                  008278e0    00000020     scheduler_pe66.oe66 (.text:ti_sysbios_knl_Task_SupportProxy_Module__startupDone__S)
                  00827900    00000020     sysbios.ae66 : BIOS.obj (.text:ti_sysbios_knl_Task_disable__E)
                  00827920    00000020                  : BIOS.obj (.text:ti_sysbios_knl_Task_startup__E)
                  00827940    00000020                  : BIOS.obj (.text:ti_sysbios_timers_timer64_Timer_getMaxTicks__E)
                  00827960    00000020     rts6600_elf.lib : tolower.obj (.text:tolower)
                  00827980    00000020                     : toupper.obj (.text:toupper)
                  008279a0    00000020                     : multibyte.obj (.text:wctomb)
                  008279c0    00000020     ti.targets.rts6000.ae66 : Gate.oe66 (.text:xdc_runtime_Gate_enterSystem__E)
                  008279e0    00000020     scheduler_pe66.oe66 (.text:xdc_runtime_IHeap_alloc)
                  00827a00    00000020     scheduler_pe66.oe66 (.text:xdc_runtime_IHeap_free)
                  00827a20    00000020     scheduler_pe66.oe66 (.text:xdc_runtime_LoggerBuf_Module_GateProxy_enter__E)
                  00827a40    00000020     scheduler_pe66.oe66 (.text:xdc_runtime_LoggerBuf_Module_GateProxy_leave__E)
                  00827a60    00000020     ti.targets.rts6000.ae66 : LoggerBuf.oe66 (.text:xdc_runtime_LoggerBuf_disable__E)
                  00827a80    00000020                             : LoggerBuf.oe66 (.text:xdc_runtime_LoggerBuf_enable__E)
                  00827aa0    00000020     scheduler_pe66.oe66 (.text:xdc_runtime_Memory_HeapProxy_alloc__E)
                  00827ac0    00000020     scheduler_pe66.oe66 (.text:xdc_runtime_Memory_HeapProxy_free__E)
                  00827ae0    00000020     scheduler_pe66.oe66 (.text:xdc_runtime_Startup_exec__I)
                  00827b00    00000020     scheduler_pe66.oe66 (.text:xdc_runtime_Startup_reset__I)
                  00827b20    00000020     ti.targets.rts6000.ae66 : SysMin.oe66 (.text:xdc_runtime_SysMin_ready__E)
                  00827b40    00000020     scheduler_pe66.oe66 (.text:xdc_runtime_System_Module_GateProxy_enter__E)
                  00827b60    00000020     scheduler_pe66.oe66 (.text:xdc_runtime_System_Module_GateProxy_leave__E)
                  00827b80    00000020     ti.targets.rts6000.ae66 : System.oe66 (.text:xdc_runtime_System_Module_startup__E)
                  00827ba0    00000020                             : System.oe66 (.text:xdc_runtime_System_vsnprintf__E)
                  00827bc0    00000020     scheduler_pe66.oe66 (.text:xdc_runtime_Text_visitRope__I)

.const     0    00827be0    0000373a     
                  00827be0    00001639     scheduler_pe66.oe66 (.const:xdc_runtime_Text_charTab__A)
                  00829219    00000001     scheduler_pe66.oe66 (.const:ti_sysbios_timers_timer64_Timer_localTimerBaseId__C)
                  0082921a    00000002     scheduler_pe66.oe66 (.const:ti_sysbios_family_c64p_Exception_Module__id__C)
                  0082921c    00000518     sysbios.ae66 : BIOS.obj (.const:.string)
                  00829734    00000004     rts6600_elf.lib : iostream.obj (.const:.string)
                  00829738    00000400     scheduler_pe66.oe66 (.const:ti_sysbios_family_c66_Cache_marvalues__C)
                  00829b38    0000024c     dynamicMemory.obj (.const:.string)
                  00829d84    00000004     rts6600_elf.lib : locale0.obj (.const:.string)
                  00829d88    00000202                     : xlocinfo.obj (.const:_ZSt8_Ctyptab)
                  00829f8a    00000002     scheduler_pe66.oe66 (.const:ti_sysbios_family_c64p_Exception_useInternalBuffer__C)
                  00829f8c    0000016c     displayFunctions.obj (.const:.string)
                  0082a0f8    00000101     rts6600_elf.lib : ctype.obj (.const:.string:_ctypes_)
                  0082a1f9    00000001     --HOLE-- [fill = 0]
                  0082a1fa    00000002     scheduler_pe66.oe66 (.const:ti_sysbios_family_c64p_Hwi_Module__id__C)
                  0082a1fc    00000004     rts6600_elf.lib : wiostrea.obj (.const:.string)
                  0082a200    000000c4     scheduler_pe66.oe66 (.const:xdc_runtime_Text_nodeTab__A)
                  0082a2c4    00000058     ti.targets.rts6000.ae66 : Error.oe66 (.const:.string)
                  0082a31c    00000054     scheduler_pe66.oe66 (.const:.string)
                  0082a370    00000048     rts6600_elf.lib : ios.obj (.const:.string)
                  0082a3b8    00000048                     : iostream.obj (.const:_ZTVSt13basic_filebufIcSt11char_traitsIcEE)
                  0082a400    00000048                     : wiostrea.obj (.const:_ZTVSt13basic_filebufIwSt11char_traitsIwEE)
                  0082a448    00000048                     : iostream.obj (.const:_ZTVSt15basic_streambufIcSt11char_traitsIcEE)
                  0082a490    00000048                     : wiostrea.obj (.const:_ZTVSt15basic_streambufIwSt11char_traitsIwEE)
                  0082a4d8    00000040     ti.targets.rts6000.ae66 : Text.oe66 (.const:.string)
                  0082a518    00000040     rts6600_elf.lib : wiostrea.obj (.const:_ZTVSt5ctypeIwE)
                  0082a558    0000003c     scheduler_pe66.oe66 (.const:xdc_runtime_LoggerBuf_Module__FXNS__C)
                  0082a594    00000004     ti.targets.rts6000.ae66 : Assert.oe66 (.const:.string)
                  0082a598    0000003a     dynamicMemory.obj (.const:.typeinfo:_ZTSSt7num_putIcSt19ostreambuf_iteratorIcSt11char_traitsIcEEE)
                  0082a5d2    00000002     scheduler_pe66.oe66 (.const:ti_sysbios_family_c64p_Hwi_Module__loggerDefined__C)
                  0082a5d4    00000030     rts6600_elf.lib : string.obj (.const:.string)
                  0082a604    00000004     dynamicMemory.obj (.const:_ZNSs4nposE)
                  0082a608    00000030     rts6600_elf.lib : iostream.obj (.const:_ZTVSi)
                  0082a638    00000030                     : iostream.obj (.const:_ZTVSo)
                  0082a668    00000030                     : wiostrea.obj (.const:_ZTVSt13basic_istreamIwSt11char_traitsIwEE)
                  0082a698    00000030                     : wiostrea.obj (.const:_ZTVSt13basic_ostreamIwSt11char_traitsIwEE)
                  0082a6c8    00000030     frameworkFunctions.obj (.const:_ZTVSt5ctypeIcE)
                  0082a6f8    00000030     dynamicMemory.obj (.const:_ZTVSt7num_putIcSt19ostreambuf_iteratorIcSt11char_traitsIcEEE)
                  0082a728    00000030     scheduler_pe66.oe66 (.const:xdc_runtime_Startup_sfxnTab__A)
                  0082a758    0000002c     ti.targets.rts6000.ae66 : Startup.oe66 (.const:.string)
                  0082a784    00000004     rts6600_elf.lib : ios.obj (.const)
                  0082a788    0000002c                     : iostream.obj (.const:_ZTVSt7codecvtIcciE)
                  0082a7b4    00000004     scheduler_pe66.oe66 (.const:ti_sysbios_family_c64p_Exception_E_exceptionMax__C)
                  0082a7b8    0000002c     rts6600_elf.lib : wiostrea.obj (.const:_ZTVSt7codecvtIwciE)
                  0082a7e4    00000004     scheduler_pe66.oe66 (.const:ti_sysbios_family_c64p_Exception_exceptionHook__C)
                  0082a7e8    00000029     rts6600_elf.lib : iostream.obj (.const:.typeinfo:_ZTSSt15basic_streambufIcSt11char_traitsIcEE)
                  0082a811    00000001     --HOLE-- [fill = 0]
                  0082a812    00000002     scheduler_pe66.oe66 (.const:ti_sysbios_gates_GateMutex_Module__id__C)
                  0082a814    00000004     scheduler_pe66.oe66 (.const:ti_sysbios_family_c64p_Exception_externalHook__C)
                  0082a818    00000029     rts6600_elf.lib : wiostrea.obj (.const:.typeinfo:_ZTSSt15basic_streambufIwSt11char_traitsIwEE)
                  0082a841    00000001     --HOLE-- [fill = 0]
                  0082a842    00000002     scheduler_pe66.oe66 (.const:ti_sysbios_hal_Hwi_Module__id__C)
                  0082a844    00000028     scheduler_pe66.oe66 (.const:ti_sysbios_heaps_HeapMem_Module__FXNS__C)
                  0082a86c    00000028     scheduler_pe66.oe66 (.const:xdc_runtime_LoggerBuf_Object__PARAMS__C)
                  0082a894    00000004     scheduler_pe66.oe66 (.const:ti_sysbios_family_c64p_Exception_internalHook__C)
                  0082a898    00000027     rts6600_elf.lib : iostream.obj (.const:.typeinfo:_ZTSSt13basic_filebufIcSt11char_traitsIcEE)
                  0082a8bf    00000001     --HOLE-- [fill = 0]
                  0082a8c0    00000027                     : wiostrea.obj (.const:.typeinfo:_ZTSSt13basic_filebufIwSt11char_traitsIwEE)
                  0082a8e7    00000001     --HOLE-- [fill = 0]
                  0082a8e8    00000027                     : wiostrea.obj (.const:.typeinfo:_ZTSSt13basic_istreamIwSt11char_traitsIwEE)
                  0082a90f    00000001     --HOLE-- [fill = 0]
                  0082a910    00000027                     : wiostrea.obj (.const:.typeinfo:_ZTSSt13basic_ostreamIwSt11char_traitsIwEE)
                  0082a937    00000001     --HOLE-- [fill = 0]
                  0082a938    00000026                     : typeinfo_.obj (.const:.typeinfo:_ZTSN10__cxxabiv121__vmi_class_type_infoE)
                  0082a95e    00000002     scheduler_pe66.oe66 (.const:ti_sysbios_heaps_HeapMem_Module__id__C)
                  0082a960    00000025     rts6600_elf.lib : typeinfo_.obj (.const:.typeinfo:_ZTSN10__cxxabiv120__si_class_type_infoE)
                  0082a985    00000001     --HOLE-- [fill = 0]
                  0082a986    00000002     scheduler_pe66.oe66 (.const:ti_sysbios_knl_Clock_Module__id__C)
                  0082a988    00000024     rts6600_elf.lib : _printfi.obj (.const:.string)
                  0082a9ac    00000004     scheduler_pe66.oe66 (.const:ti_sysbios_family_c64p_Exception_nmiHook__C)
                  0082a9b0    00000024     dynamicMemory.obj (.const:_ZTVSt8numpunctIcE)
                  0082a9d4    00000024     scheduler_pe66.oe66 (.const:ti_sysbios_gates_GateHwi_Module__FXNS__C)
                  0082a9f8    00000024     scheduler_pe66.oe66 (.const:ti_sysbios_gates_GateMutex_Module__FXNS__C)
                  0082aa1c    00000024     scheduler_pe66.oe66 (.const:ti_sysbios_heaps_HeapMem_Object__PARAMS__C)
                  0082aa40    00000024     scheduler_pe66.oe66 (.const:ti_sysbios_knl_Semaphore_Object__PARAMS__C)
                  0082aa64    00000004     scheduler_pe66.oe66 (.const:ti_sysbios_family_c64p_Hwi_LD_end__C)
                  0082aa68    00000022     rts6600_elf.lib : typeinfo_.obj (.const:.typeinfo:_ZTSN10__cxxabiv117__class_type_infoE)
                  0082aa8a    00000002     scheduler_pe66.oe66 (.const:ti_sysbios_knl_Clock_Module__loggerDefined__C)
                  0082aa8c    00000004     scheduler_pe66.oe66 (.const:ti_sysbios_family_c64p_Hwi_LM_begin__C)
                  0082aa90    00000022     rts6600_elf.lib : iostream.obj (.const:.typeinfo:_ZTSSt9basic_iosIcSt11char_traitsIcEE)
                  0082aab2    00000002     scheduler_pe66.oe66 (.const:ti_sysbios_knl_Semaphore_Module__id__C)
                  0082aab4    00000004     scheduler_pe66.oe66 (.const:ti_sysbios_family_c64p_Hwi_Module__diagsEnabled__C)
                  0082aab8    00000022     rts6600_elf.lib : wiostrea.obj (.const:.typeinfo:_ZTSSt9basic_iosIwSt11char_traitsIwEE)
                  0082aada    00000002     scheduler_pe66.oe66 (.const:ti_sysbios_knl_Semaphore_Module__loggerDefined__C)
                  0082aadc    00000020     schedulingAlgorithms.obj (.const:.string)
                  0082aafc    00000020     scheduler_pe66.oe66 (.const:ti_sysbios_gates_GateHwi_Object__DESC__C)
                  0082ab1c    00000020     scheduler_pe66.oe66 (.const:ti_sysbios_gates_GateMutex_Object__DESC__C)
                  0082ab3c    00000020     scheduler_pe66.oe66 (.const:ti_sysbios_heaps_HeapMem_Object__DESC__C)
                  0082ab5c    00000020     scheduler_pe66.oe66 (.const:ti_sysbios_knl_Queue_Object__DESC__C)
                  0082ab7c    00000020     scheduler_pe66.oe66 (.const:ti_sysbios_knl_Semaphore_Object__DESC__C)
                  0082ab9c    00000020     scheduler_pe66.oe66 (.const:xdc_runtime_LoggerBuf_Object__DESC__C)
                  0082abbc    00000004     scheduler_pe66.oe66 (.const:ti_sysbios_family_c64p_Hwi_Module__diagsIncluded__C)
                  0082abc0    0000001c     rts6600_elf.lib : iostream.obj (.const:_ZTVSt12codecvt_base)
                  0082abdc    00000018                     : throw.obj (.const:.string)
                  0082abf4    00000018                     : iostream.obj (.const:.typeinfo:_ZTISi)
                  0082ac0c    00000018                     : iostream.obj (.const:.typeinfo:_ZTISo)
                  0082ac24    00000018                     : wiostrea.obj (.const:.typeinfo:_ZTISt13basic_istreamIwSt11char_traitsIwEE)
                  0082ac3c    00000018                     : wiostrea.obj (.const:.typeinfo:_ZTISt13basic_ostreamIwSt11char_traitsIwEE)
                  0082ac54    00000004     scheduler_pe66.oe66 (.const:ti_sysbios_family_c64p_Hwi_Module__diagsMask__C)
                  0082ac58    00000018     rts6600_elf.lib : ios.obj (.const:_ZTVNSt8ios_base7failureE)
                  0082ac70    00000018                     : string.obj (.const:_ZTVSt11logic_error)
                  0082ac88    00000018                     : string.obj (.const:_ZTVSt12length_error)
                  0082aca0    00000018                     : string.obj (.const:_ZTVSt12out_of_range)
                  0082acb8    00000018                     : ios.obj (.const:_ZTVSt13runtime_error)
                  0082acd0    00000018                     : ios.obj (.const:_ZTVSt9exception)
                  0082ace8    00000018     scheduler_pe66.oe66 (.const:ti_sysbios_gates_GateHwi_Object__PARAMS__C)
                  0082ad00    00000018     scheduler_pe66.oe66 (.const:ti_sysbios_gates_GateMutex_Object__PARAMS__C)
                  0082ad18    00000018     scheduler_pe66.oe66 (.const:ti_sysbios_knl_Queue_Object__PARAMS__C)
                  0082ad30    00000018     scheduler_pe66.oe66 (.const:xdc_runtime_Startup_sfxnRts__A)
                  0082ad48    00000016     rts6600_elf.lib : ios.obj (.const:.typeinfo:_ZTSNSt8ios_base7failureE)
                  0082ad5e    00000002     scheduler_pe66.oe66 (.const:ti_sysbios_knl_Swi_Module__id__C)
                  0082ad60    00000014     blasFunctions.obj (.const:.string)
                  0082ad74    00000014     sysMainLTE.obj (.const:.string)
                  0082ad88    00000014     rts6600_elf.lib : locale0.obj (.const:.typeinfo:_ZTSNSt6locale7_LocimpE)
                  0082ad9c    00000004     scheduler_pe66.oe66 (.const:ti_sysbios_family_c64p_Hwi_Module__loggerFxn1__C)
                  0082ada0    00000012     frameworkFunctions.obj (.const:.typeinfo:_ZTSNSt6locale5facetE)
                  0082adb2    00000002     scheduler_pe66.oe66 (.const:ti_sysbios_knl_Swi_Module__loggerDefined__C)
                  0082adb4    00000004     scheduler_pe66.oe66 (.const:ti_sysbios_family_c64p_Hwi_Module__loggerFxn8__C)
                  0082adb8    00000012     rts6600_elf.lib : ios.obj (.const:.typeinfo:_ZTSSt13runtime_error)
                  0082adca    00000002     scheduler_pe66.oe66 (.const:ti_sysbios_knl_Task_Module__id__C)
                  0082adcc    00000004     scheduler_pe66.oe66 (.const:ti_sysbios_family_c64p_Hwi_Module__loggerObj__C)
                  0082add0    00000011     rts6600_elf.lib : iostream.obj (.const:.typeinfo:_ZTSSt12codecvt_base)
                  0082ade1    00000001     --HOLE-- [fill = 0]
                  0082ade2    00000002     scheduler_pe66.oe66 (.const:ti_sysbios_knl_Task_Module__loggerDefined__C)
                  0082ade4    00000004     scheduler_pe66.oe66 (.const:ti_sysbios_gates_GateMutex_A_badContext__C)
                  0082ade8    00000011     rts6600_elf.lib : string.obj (.const:.typeinfo:_ZTSSt12length_error)
                  0082adf9    00000001     --HOLE-- [fill = 0]
                  0082adfa    00000002     scheduler_pe66.oe66 (.const:ti_sysbios_knl_Task_initStackFlag__C)
                  0082adfc    00000004     scheduler_pe66.oe66 (.const:ti_sysbios_gates_GateMutex_Instance_State_sem__O)
                  0082ae00    00000011     rts6600_elf.lib : string.obj (.const:.typeinfo:_ZTSSt12out_of_range)
                  0082ae11    00000001     --HOLE-- [fill = 0]
                  0082ae12    00000002     scheduler_pe66.oe66 (.const:ti_sysbios_timers_timer64_Timer_Module__id__C)
                  0082ae14    0000000c     rts6600_elf.lib : typeinfo_.obj (.const:.typeinfo:_ZTIN10__cxxabiv117__class_type_infoE)
                  0082ae20    00000011     ti.targets.rts6000.ae66 : System.oe66 (.const:digtohex)
                  0082ae31    00000001     --HOLE-- [fill = 0]
                  0082ae32    00000002     scheduler_pe66.oe66 (.const:ti_sysbios_timers_timer64_Timer_startupNeeded__C)
                  0082ae34    00000010     frameworkFunctions.obj (.const:.string)
                  0082ae44    00000004     scheduler_pe66.oe66 (.const:ti_sysbios_gates_GateMutex_Module__diagsEnabled__C)
                  0082ae48    00000010     rts6600_elf.lib : string.obj (.const:.typeinfo:_ZTSSt11logic_error)
                  0082ae58    00000010                     : iostream.obj (.const:.typeinfo:_ZTSSt7codecvtIcciE)
                  0082ae68    00000010                     : wiostrea.obj (.const:.typeinfo:_ZTSSt7codecvtIwciE)
                  0082ae78    00000010                     : typeinfo_.obj (.const:_ZTVN10__cxxabiv117__class_type_infoE)
                  0082ae88    00000010                     : typeinfo_.obj (.const:_ZTVN10__cxxabiv120__si_class_type_infoE)
                  0082ae98    00000010                     : typeinfo_.obj (.const:_ZTVN10__cxxabiv121__vmi_class_type_infoE)
                  0082aea8    00000010     frameworkFunctions.obj (.const:_ZTVNSt6locale5facetE)
                  0082aeb8    00000010     rts6600_elf.lib : locale0.obj (.const:_ZTVNSt6locale7_LocimpE)
                  0082aec8    00000010     frameworkFunctions.obj (.const:_ZTVSt10ctype_base)
                  0082aed8    00000010     rts6600_elf.lib : ios.obj (.const:_ZTVSt8ios_base)
                  0082aee8    00000010                     : iostream.obj (.const:_ZTVSt9basic_iosIcSt11char_traitsIcEE)
                  0082aef8    00000010                     : wiostrea.obj (.const:_ZTVSt9basic_iosIwSt11char_traitsIwEE)
                  0082af08    0000000f     frameworkFunctions.obj (.const:.typeinfo:_ZTSSt10ctype_base)
                  0082af17    00000001     --HOLE-- [fill = 0]
                  0082af18    0000000f     dynamicMemory.obj (.const:.typeinfo:_ZTSSt8numpunctIcE)
                  0082af27    00000001     --HOLE-- [fill = 0]
                  0082af28    0000000d     rts6600_elf.lib : ios.obj (.const:.typeinfo:_ZTSSt9exception)
                  0082af35    00000001     --HOLE-- [fill = 0]
                  0082af36    00000002     scheduler_pe66.oe66 (.const:ti_sysbios_timers_timer64_Timer_useTimer64pRegMap__C)
                  0082af38    0000000d     rts6600_elf.lib : typeinfo_.obj (.const:.typeinfo:_ZTSSt9type_info)
                  0082af45    00000001     --HOLE-- [fill = 0]
                  0082af46    00000002     scheduler_pe66.oe66 (.const:xdc_runtime_Core_Module__id__C)
                  0082af48    0000000c     rts6600_elf.lib : typeinfo_.obj (.const:.typeinfo:_ZTIN10__cxxabiv120__si_class_type_infoE)
                  0082af54    0000000c                     : typeinfo_.obj (.const:.typeinfo:_ZTIN10__cxxabiv121__vmi_class_type_infoE)
                  0082af60    0000000c                     : locale0.obj (.const:.typeinfo:_ZTINSt6locale7_LocimpE)
                  0082af6c    0000000c                     : ios.obj (.const:.typeinfo:_ZTINSt8ios_base7failureE)
                  0082af78    0000000c     frameworkFunctions.obj (.const:.typeinfo:_ZTISt10ctype_base)
                  0082af84    0000000c     rts6600_elf.lib : string.obj (.const:.typeinfo:_ZTISt11logic_error)
                  0082af90    0000000c                     : iostream.obj (.const:.typeinfo:_ZTISt12codecvt_base)
                  0082af9c    0000000c                     : string.obj (.const:.typeinfo:_ZTISt12length_error)
                  0082afa8    0000000c                     : string.obj (.const:.typeinfo:_ZTISt12out_of_range)
                  0082afb4    0000000c                     : iostream.obj (.const:.typeinfo:_ZTISt13basic_filebufIcSt11char_traitsIcEE)
                  0082afc0    0000000c                     : wiostrea.obj (.const:.typeinfo:_ZTISt13basic_filebufIwSt11char_traitsIwEE)
                  0082afcc    0000000c                     : ios.obj (.const:.typeinfo:_ZTISt13runtime_error)
                  0082afd8    0000000c     frameworkFunctions.obj (.const:.typeinfo:_ZTISt5ctypeIcE)
                  0082afe4    0000000c     rts6600_elf.lib : wiostrea.obj (.const:.typeinfo:_ZTISt5ctypeIwE)
                  0082aff0    0000000c                     : iostream.obj (.const:.typeinfo:_ZTISt7codecvtIcciE)
                  0082affc    0000000c                     : wiostrea.obj (.const:.typeinfo:_ZTISt7codecvtIwciE)
                  0082b008    0000000c     dynamicMemory.obj (.const:.typeinfo:_ZTISt7num_putIcSt19ostreambuf_iteratorIcSt11char_traitsIcEEE)
                  0082b014    0000000c     rts6600_elf.lib : ios.obj (.const:.typeinfo:_ZTISt8ios_base)
                  0082b020    0000000c     dynamicMemory.obj (.const:.typeinfo:_ZTISt8numpunctIcE)
                  0082b02c    0000000c     rts6600_elf.lib : iostream.obj (.const:.typeinfo:_ZTISt9basic_iosIcSt11char_traitsIcEE)
                  0082b038    0000000c                     : wiostrea.obj (.const:.typeinfo:_ZTISt9basic_iosIwSt11char_traitsIwEE)
                  0082b044    00000004     scheduler_pe66.oe66 (.const:ti_sysbios_gates_GateMutex_Module__diagsIncluded__C)
                  0082b048    0000000c     rts6600_elf.lib : ios.obj (.const:.typeinfo:_ZTSSt5_IosbIiE)
                  0082b054    00000004     scheduler_pe66.oe66 (.const:ti_sysbios_gates_GateMutex_Module__diagsMask__C)
                  0082b058    0000000c     frameworkFunctions.obj (.const:.typeinfo:_ZTSSt5ctypeIcE)
                  0082b064    00000004     scheduler_pe66.oe66 (.const:ti_sysbios_hal_Hwi_E_stackOverflow__C)
                  0082b068    0000000c     rts6600_elf.lib : wiostrea.obj (.const:.typeinfo:_ZTSSt5ctypeIwE)
                  0082b074    00000004     scheduler_pe66.oe66 (.const:ti_sysbios_heaps_HeapMem_A_align__C)
                  0082b078    0000000c     rts6600_elf.lib : ios.obj (.const:.typeinfo:_ZTSSt8ios_base)
                  0082b084    0000000c     scheduler_pe66.oe66 (.const:ti_sysbios_family_c66_Cache_initSize__C)
                  0082b090    00000009     dynamicMemory.obj (.const)
                  0082b099    00000001     --HOLE-- [fill = 0]
                  0082b09a    00000002     scheduler_pe66.oe66 (.const:xdc_runtime_Error_Module__loggerDefined__C)
                  0082b09c    00000008     rts6600_elf.lib : setlocale.obj (.const:.string)
                  0082b0a4    00000008     ti.targets.rts6000.ae66 : System.oe66 (.const:.string)
                  0082b0ac    00000008     frameworkFunctions.obj (.const:.typeinfo:_ZTINSt6locale5facetE)
                  0082b0b4    00000008     rts6600_elf.lib : iostream.obj (.const:.typeinfo:_ZTISt15basic_streambufIcSt11char_traitsIcEE)
                  0082b0bc    00000008                     : wiostrea.obj (.const:.typeinfo:_ZTISt15basic_streambufIwSt11char_traitsIwEE)
                  0082b0c4    00000008                     : ios.obj (.const:.typeinfo:_ZTISt5_IosbIiE)
                  0082b0cc    00000008                     : ios.obj (.const:.typeinfo:_ZTISt9exception)
                  0082b0d4    00000008                     : typeinfo_.obj (.const:.typeinfo:_ZTISt9type_info)
                  0082b0dc    00000008     frameworkFunctions.obj (.const)
                  0082b0e4    00000008     scheduler_pe66.oe66 (.const:ti_sysbios_knl_Idle_funcList__C)
                  0082b0ec    00000004     scheduler_pe66.oe66 (.const:ti_sysbios_heaps_HeapMem_A_heapSize__C)
                  0082b0f0    00000008     scheduler_pe66.oe66 (.const:xdc_runtime_Startup_firstFxns__A)
                  0082b0f8    00000008     scheduler_pe66.oe66 (.const:xdc_runtime_Startup_firstFxns__C)
                  0082b100    00000008     scheduler_pe66.oe66 (.const:xdc_runtime_Startup_lastFxns__C)
                  0082b108    00000006     dynamicMemory.obj (.const:.string:_ZZNKSt8_Locinfo9_GetfalseEvEs)
                  0082b10e    00000002     scheduler_pe66.oe66 (.const:xdc_runtime_Error_maxDepth__C)
                  0082b110    00000005     dynamicMemory.obj (.const:.string:_ZZNKSt8_Locinfo8_GettrueEvEs)
                  0082b115    00000001     --HOLE-- [fill = 0]
                  0082b116    00000002     scheduler_pe66.oe66 (.const:xdc_runtime_LoggerBuf_Module__id__C)
                  0082b118    00000004     scheduler_pe66.oe66 (.const:ti_sysbios_heaps_HeapMem_A_invalidFree__C)
                  0082b11c    00000004     scheduler_pe66.oe66 (.const:ti_sysbios_heaps_HeapMem_A_zeroBlock__C)
                  0082b120    00000004     scheduler_pe66.oe66 (.const:ti_sysbios_heaps_HeapMem_E_memory__C)
                  0082b124    00000004     scheduler_pe66.oe66 (.const:ti_sysbios_heaps_HeapMem_Module__diagsEnabled__C)
                  0082b128    00000004     scheduler_pe66.oe66 (.const:ti_sysbios_heaps_HeapMem_Module__diagsIncluded__C)
                  0082b12c    00000004     scheduler_pe66.oe66 (.const:ti_sysbios_heaps_HeapMem_Module__diagsMask__C)
                  0082b130    00000004     scheduler_pe66.oe66 (.const:ti_sysbios_heaps_HeapMem_Module__gateObj__C)
                  0082b134    00000004     scheduler_pe66.oe66 (.const:ti_sysbios_heaps_HeapMem_Object__count__C)
                  0082b138    00000004     scheduler_pe66.oe66 (.const:ti_sysbios_heaps_HeapMem_reqAlign__C)
                  0082b13c    00000004     scheduler_pe66.oe66 (.const:ti_sysbios_knl_Clock_LM_begin__C)
                  0082b140    00000004     scheduler_pe66.oe66 (.const:ti_sysbios_knl_Clock_LM_tick__C)
                  0082b144    00000004     scheduler_pe66.oe66 (.const:ti_sysbios_knl_Clock_LW_delayed__C)
                  0082b148    00000004     scheduler_pe66.oe66 (.const:ti_sysbios_knl_Clock_Module_State_clockQ__O)
                  0082b14c    00000004     scheduler_pe66.oe66 (.const:ti_sysbios_knl_Clock_Module__diagsEnabled__C)
                  0082b150    00000004     scheduler_pe66.oe66 (.const:ti_sysbios_knl_Clock_Module__diagsIncluded__C)
                  0082b154    00000004     scheduler_pe66.oe66 (.const:ti_sysbios_knl_Clock_Module__diagsMask__C)
                  0082b158    00000004     scheduler_pe66.oe66 (.const:ti_sysbios_knl_Clock_Module__loggerFxn1__C)
                  0082b15c    00000004     scheduler_pe66.oe66 (.const:ti_sysbios_knl_Clock_Module__loggerFxn2__C)
                  0082b160    00000004     scheduler_pe66.oe66 (.const:ti_sysbios_knl_Clock_Module__loggerObj__C)
                  0082b164    00000004     scheduler_pe66.oe66 (.const:ti_sysbios_knl_Semaphore_A_badContext__C)
                  0082b168    00000004     scheduler_pe66.oe66 (.const:ti_sysbios_knl_Idle_funcList__A)
                  0082b16c    00000004     scheduler_pe66.oe66 (.const:ti_sysbios_knl_Semaphore_A_noEvents__C)
                  0082b170    00000004     scheduler_pe66.oe66 (.const:ti_sysbios_knl_Semaphore_A_overflow__C)
                  0082b174    00000004     scheduler_pe66.oe66 (.const:ti_sysbios_knl_Semaphore_A_pendTaskDisabled__C)
                  0082b178    00000004     scheduler_pe66.oe66 (.const:ti_sysbios_knl_Semaphore_Instance_State_pendQ__O)
                  0082b17c    00000004     scheduler_pe66.oe66 (.const:ti_sysbios_knl_Semaphore_LM_pend__C)
                  0082b180    00000004     scheduler_pe66.oe66 (.const:ti_sysbios_knl_Semaphore_LM_post__C)
                  0082b184    00000004     scheduler_pe66.oe66 (.const:ti_sysbios_knl_Semaphore_Module__diagsEnabled__C)
                  0082b188    00000004     scheduler_pe66.oe66 (.const:ti_sysbios_knl_Semaphore_Module__diagsIncluded__C)
                  0082b18c    00000004     scheduler_pe66.oe66 (.const:ti_sysbios_knl_Semaphore_Module__diagsMask__C)
                  0082b190    00000004     scheduler_pe66.oe66 (.const:ti_sysbios_knl_Semaphore_Module__loggerFxn2__C)
                  0082b194    00000004     scheduler_pe66.oe66 (.const:ti_sysbios_knl_Semaphore_Module__loggerFxn4__C)
                  0082b198    00000004     scheduler_pe66.oe66 (.const:ti_sysbios_knl_Semaphore_Module__loggerObj__C)
                  0082b19c    00000004     scheduler_pe66.oe66 (.const:ti_sysbios_knl_Swi_LD_end__C)
                  0082b1a0    00000004     scheduler_pe66.oe66 (.const:ti_sysbios_knl_Swi_LM_begin__C)
                  0082b1a4    00000004     scheduler_pe66.oe66 (.const:ti_sysbios_knl_Swi_LM_post__C)
                  0082b1a8    00000004     scheduler_pe66.oe66 (.const:ti_sysbios_knl_Swi_Module__diagsEnabled__C)
                  0082b1ac    00000004     scheduler_pe66.oe66 (.const:ti_sysbios_knl_Swi_Module__diagsIncluded__C)
                  0082b1b0    00000004     scheduler_pe66.oe66 (.const:ti_sysbios_knl_Swi_Module__diagsMask__C)
                  0082b1b4    00000004     scheduler_pe66.oe66 (.const:ti_sysbios_knl_Swi_Module__loggerFxn1__C)
                  0082b1b8    00000004     scheduler_pe66.oe66 (.const:ti_sysbios_knl_Swi_Module__loggerFxn4__C)
                  0082b1bc    00000004     scheduler_pe66.oe66 (.const:ti_sysbios_knl_Swi_Module__loggerObj__C)
                  0082b1c0    00000004     scheduler_pe66.oe66 (.const:ti_sysbios_knl_Swi_Object__count__C)
                  0082b1c4    00000004     scheduler_pe66.oe66 (.const:ti_sysbios_knl_Task_E_spOutOfBounds__C)
                  0082b1c8    00000004     scheduler_pe66.oe66 (.const:ti_sysbios_knl_Task_E_stackOverflow__C)
                  0082b1cc    00000004     scheduler_pe66.oe66 (.const:ti_sysbios_knl_Task_LD_block__C)
                  0082b1d0    00000004     scheduler_pe66.oe66 (.const:ti_sysbios_knl_Task_LD_exit__C)
                  0082b1d4    00000004     scheduler_pe66.oe66 (.const:ti_sysbios_knl_Task_LD_ready__C)
                  0082b1d8    00000004     scheduler_pe66.oe66 (.const:ti_sysbios_knl_Task_LM_switch__C)
                  0082b1dc    00000004     scheduler_pe66.oe66 (.const:ti_sysbios_knl_Task_Module_State_inactiveQ__O)
                  0082b1e0    00000004     scheduler_pe66.oe66 (.const:ti_sysbios_knl_Task_Module__diagsEnabled__C)
                  0082b1e4    00000004     scheduler_pe66.oe66 (.const:ti_sysbios_knl_Task_Module__diagsIncluded__C)
                  0082b1e8    00000004     scheduler_pe66.oe66 (.const:ti_sysbios_knl_Task_Module__diagsMask__C)
                  0082b1ec    00000004     scheduler_pe66.oe66 (.const:ti_sysbios_knl_Task_Module__loggerFxn2__C)
                  0082b1f0    00000004     scheduler_pe66.oe66 (.const:ti_sysbios_knl_Task_Module__loggerFxn4__C)
                  0082b1f4    00000004     scheduler_pe66.oe66 (.const:ti_sysbios_knl_Task_Module__loggerObj__C)
                  0082b1f8    00000004     scheduler_pe66.oe66 (.const:ti_sysbios_knl_Task_Object__count__C)
                  0082b1fc    00000004     scheduler_pe66.oe66 (.const:ti_sysbios_knl_Task_allBlockedFunc__C)
                  0082b200    00000004     scheduler_pe66.oe66 (.const:ti_sysbios_knl_Task_numConstructedTasks__C)
                  0082b204    00000004     scheduler_pe66.oe66 (.const:ti_sysbios_timers_timer64_Timer_A_notAvailable__C)
                  0082b208    00000004     scheduler_pe66.oe66 (.const:ti_sysbios_timers_timer64_Timer_E_cannotSupport__C)
                  0082b20c    00000004     scheduler_pe66.oe66 (.const:ti_sysbios_timers_timer64_Timer_Module__diagsEnabled__C)
                  0082b210    00000004     scheduler_pe66.oe66 (.const:ti_sysbios_timers_timer64_Timer_Module__diagsIncluded__C)
                  0082b214    00000004     scheduler_pe66.oe66 (.const:ti_sysbios_timers_timer64_Timer_Module__diagsMask__C)
                  0082b218    00000004     scheduler_pe66.oe66 (.const:ti_sysbios_timers_timer64_Timer_anyMaskHigh__C)
                  0082b21c    00000004     scheduler_pe66.oe66 (.const:ti_sysbios_timers_timer64_Timer_anyMask__C)
                  0082b220    00000004     scheduler_pe66.oe66 (.const:ti_sysbios_timers_timer64_Timer_freqDivisor__C)
                  0082b224    00000004     scheduler_pe66.oe66 (.const:ti_sysbios_timers_timer64_Timer_numLocalTimers__C)
                  0082b228    00000004     scheduler_pe66.oe66 (.const:ti_sysbios_timers_timer64_Timer_numTimerDevices__C)
                  0082b22c    00000004     scheduler_pe66.oe66 (.const:xdc_runtime_Assert_E_assertFailed__C)
                  0082b230    00000004     scheduler_pe66.oe66 (.const:xdc_runtime_Core_A_initializedParams__C)
                  0082b234    00000004     scheduler_pe66.oe66 (.const:xdc_runtime_Core_Module__diagsEnabled__C)
                  0082b238    00000004     scheduler_pe66.oe66 (.const:xdc_runtime_Core_Module__diagsIncluded__C)
                  0082b23c    00000004     scheduler_pe66.oe66 (.const:xdc_runtime_Core_Module__diagsMask__C)
                  0082b240    00000004     scheduler_pe66.oe66 (.const:xdc_runtime_Error_E_memory__C)
                  0082b244    00000004     scheduler_pe66.oe66 (.const:xdc_runtime_Error_Module__diagsEnabled__C)
                  0082b248    00000004     scheduler_pe66.oe66 (.const:xdc_runtime_Error_Module__diagsIncluded__C)
                  0082b24c    00000004     scheduler_pe66.oe66 (.const:xdc_runtime_Error_Module__diagsMask__C)
                  0082b250    00000004     scheduler_pe66.oe66 (.const:xdc_runtime_Error_Module__loggerFxn8__C)
                  0082b254    00000004     scheduler_pe66.oe66 (.const:xdc_runtime_Error_Module__loggerObj__C)
                  0082b258    00000004     scheduler_pe66.oe66 (.const:xdc_runtime_Error_policyFxn__C)
                  0082b25c    00000004     scheduler_pe66.oe66 (.const:xdc_runtime_Error_policy__C)
                  0082b260    00000004     scheduler_pe66.oe66 (.const:xdc_runtime_Error_raiseHook__C)
                  0082b264    00000004     scheduler_pe66.oe66 (.const:xdc_runtime_IFilterLogger_Interface__BASE__C)
                  0082b268    00000004     scheduler_pe66.oe66 (.const:xdc_runtime_IGateProvider_Interface__BASE__C)
                  0082b26c    00000004     scheduler_pe66.oe66 (.const:xdc_runtime_IHeap_Interface__BASE__C)
                  0082b270    00000004     scheduler_pe66.oe66 (.const:xdc_runtime_ILogger_Interface__BASE__C)
                  0082b274    00000004     scheduler_pe66.oe66 (.const:xdc_runtime_IModule_Interface__BASE__C)
                  0082b278    00000004     scheduler_pe66.oe66 (.const:xdc_runtime_Log_L_error__C)
                  0082b27c    00000004     scheduler_pe66.oe66 (.const:xdc_runtime_LoggerBuf_E_badLevel__C)
                  0082b280    00000004     scheduler_pe66.oe66 (.const:xdc_runtime_LoggerBuf_Module__gateObj__C)
                  0082b284    00000004     scheduler_pe66.oe66 (.const:xdc_runtime_LoggerBuf_Object__count__C)
                  0082b288    00000004     scheduler_pe66.oe66 (.const:xdc_runtime_LoggerBuf_statusLogger__C)
                  0082b28c    00000004     scheduler_pe66.oe66 (.const:xdc_runtime_Memory_defaultHeapInstance__C)
                  0082b290    00000004     scheduler_pe66.oe66 (.const:xdc_runtime_Startup_execImpl__C)
                  0082b294    00000004     scheduler_pe66.oe66 (.const:xdc_runtime_Startup_maxPasses__C)
                  0082b298    00000004     scheduler_pe66.oe66 (.const:xdc_runtime_Startup_sfxnRts__C)
                  0082b29c    00000004     scheduler_pe66.oe66 (.const:xdc_runtime_Startup_sfxnTab__C)
                  0082b2a0    00000004     scheduler_pe66.oe66 (.const:xdc_runtime_SysMin_bufSize__C)
                  0082b2a4    00000004     scheduler_pe66.oe66 (.const:xdc_runtime_SysMin_outputFunc__C)
                  0082b2a8    00000004     scheduler_pe66.oe66 (.const:xdc_runtime_System_Module__gateObj__C)
                  0082b2ac    00000004     scheduler_pe66.oe66 (.const:xdc_runtime_System_abortFxn__C)
                  0082b2b0    00000004     scheduler_pe66.oe66 (.const:xdc_runtime_System_exitFxn__C)
                  0082b2b4    00000004     scheduler_pe66.oe66 (.const:xdc_runtime_System_extendFxn__C)
                  0082b2b8    00000004     scheduler_pe66.oe66 (.const:xdc_runtime_System_maxAtexitHandlers__C)
                  0082b2bc    00000004     scheduler_pe66.oe66 (.const:xdc_runtime_Text_charTab__C)
                  0082b2c0    00000004     scheduler_pe66.oe66 (.const:xdc_runtime_Text_nameEmpty__C)
                  0082b2c4    00000004     scheduler_pe66.oe66 (.const:xdc_runtime_Text_nameStatic__C)
                  0082b2c8    00000004     scheduler_pe66.oe66 (.const:xdc_runtime_Text_nameUnknown__C)
                  0082b2cc    00000004     scheduler_pe66.oe66 (.const:xdc_runtime_Text_nodeTab__C)
                  0082b2d0    00000004     scheduler_pe66.oe66 (.const:xdc_runtime_Text_visitRopeFxn__C)
                  0082b2d4    00000002     scheduler_pe66.oe66 (.const:xdc_runtime_LoggerBuf_filterByLevel__C)
                  0082b2d6    00000002     scheduler_pe66.oe66 (.const:xdc_runtime_Memory_Module__id__C)
                  0082b2d8    00000003     dynamicMemory.obj (.const:.string:_ZZNKSt7num_putIcSt19ostreambuf_iteratorIcSt11char_traitsIcEEE6do_putES3_RSt8ios_basecPKvEs)
                  0082b2db    00000001     --HOLE-- [fill = 0]
                  0082b2dc    00000002     scheduler_pe66.oe66 (.const:xdc_runtime_SysMin_flushAtExit__C)
                  0082b2de    00000002     scheduler_pe66.oe66 (.const:xdc_runtime_Text_charCnt__C)
                  0082b2e0    00000003     dynamicMemory.obj (.const:.string:_ZZNKSt7num_putIcSt19ostreambuf_iteratorIcSt11char_traitsIcEEE6do_putES3_RSt8ios_baseclEs)
                  0082b2e3    00000001     --HOLE-- [fill = 0]
                  0082b2e4    00000002     scheduler_pe66.oe66 (.const:xdc_runtime_Text_isLoaded__C)
                  0082b2e6    00000002     scheduler_pe66.oe66 (.const:xdc_runtime_Text_registryModsLastId__C)
                  0082b2e8    00000003     dynamicMemory.obj (.const:.string:_ZZNKSt7num_putIcSt19ostreambuf_iteratorIcSt11char_traitsIcEEE6do_putES3_RSt8ios_basecmEs)
                  0082b2eb    00000001     --HOLE-- [fill = 0]
                  0082b2ec    00000002     scheduler_pe66.oe66 (.const:xdc_runtime_Text_unnamedModsLastId__C)
                  0082b2ee    00000002     --HOLE-- [fill = 0]
                  0082b2f0    00000003     dynamicMemory.obj (.const:.string:_ZZNKSt7num_putIcSt19ostreambuf_iteratorIcSt11char_traitsIcEEE6do_putES3_RSt8ios_basecxEs)
                  0082b2f3    00000005     --HOLE-- [fill = 0]
                  0082b2f8    00000003     dynamicMemory.obj (.const:.string:_ZZNKSt7num_putIcSt19ostreambuf_iteratorIcSt11char_traitsIcEEE6do_putES3_RSt8ios_basecyEs)
                  0082b2fb    00000005     --HOLE-- [fill = 0]
                  0082b300    00000003     rts6600_elf.lib : iostream.obj (.const:.typeinfo:_ZTSSi)
                  0082b303    00000005     --HOLE-- [fill = 0]
                  0082b308    00000003                     : iostream.obj (.const:.typeinfo:_ZTSSo)
                  0082b30b    00000005     --HOLE-- [fill = 0]
                  0082b310    00000002     dynamicMemory.obj (.const:.string:_ZZNKSt7num_putIcSt19ostreambuf_iteratorIcSt11char_traitsIcEEE5_FputES3_RSt8ios_basecPKcjjjjEs)
                  0082b312    00000006     --HOLE-- [fill = 0]
                  0082b318    00000002     dynamicMemory.obj (.const:.string:_ZZNKSt7num_putIcSt19ostreambuf_iteratorIcSt11char_traitsIcEEE5_FputES3_RSt8ios_basecPKcjjjjEs_0)

.fardata   0    0082f670    00000c2c     UNINITIALIZED
                  0082f670    00000200     scheduler_pe66.oe66 (.fardata)
                  0082f870    000001e0     rts6600_elf.lib : defs.obj (.fardata:_ftable)
                  0082fa50    000000e4     scheduler_pe66.oe66 (.fardata:ti_sysbios_knl_Task_Object__table__V)
                  0082fb34    00000004     frameworkFunctions.obj (.fardata:_ZNSt9_FacetptrISt5ctypeIcEE6_PsaveE)
                  0082fb38    000000c0     scheduler_pe66.oe66 (.fardata:ti_sysbios_timers_timer64_Timer_Module_State_0_device__A)
                  0082fbf8    000000a0     rts6600_elf.lib : lowlev.obj (.fardata:_stream)
                  0082fc98    00000090     scheduler_pe66.oe66 (.fardata:ti_sysbios_knl_Swi_Object__table__V)
                  0082fd28    00000080     scheduler_pe66.oe66 (.fardata:ti_sysbios_knl_Swi_Module_State_0_readyQ__A)
                  0082fda8    00000080     scheduler_pe66.oe66 (.fardata:ti_sysbios_knl_Task_Module_State_0_readyQ__A)
                  0082fe28    00000078     rts6600_elf.lib : lowlev.obj (.fardata:_device)
                  0082fea0    00000068                     : xfvalues.obj (.fardata)
                  0082ff08    00000050     scheduler_pe66.oe66 (.fardata:ti_sysbios_timers_timer64_Timer_Object__table__V)
                  0082ff58    00000044     rts6600_elf.lib : powf.obj (.fardata:A1$1)
                  0082ff9c    00000004                     : wiostrea.obj (.fardata:_ZNSt9_FacetptrISt5ctypeIwEE6_PsaveE)
                  0082ffa0    00000040     scheduler_pe66.oe66 (.fardata:ti_sysbios_gates_GateMutex_Object__table__V)
                  0082ffe0    00000040     scheduler_pe66.oe66 (.fardata:ti_sysbios_knl_Clock_Object__table__V)
                  00830020    00000040     scheduler_pe66.oe66 (.fardata:ti_sysbios_timers_timer64_Timer_Module_State_0_gctrl__A)
                  00830060    00000040     scheduler_pe66.oe66 (.fardata:ti_sysbios_timers_timer64_Timer_Module_State_0_handles__A)
                  008300a0    00000040     scheduler_pe66.oe66 (.fardata:ti_sysbios_timers_timer64_Timer_Module_State_0_intFreqs__A)
                  008300e0    00000034     rts6600_elf.lib : setlocale.obj (.fardata)
                  00830114    00000004                     : iostream.obj (.fardata:_ZNSt9_FacetptrISt7codecvtIcciEE6_PsaveE)
                  00830118    00000030     scheduler_pe66.oe66 (.fardata:ti_sysbios_heaps_HeapMem_Object__table__V)
                  00830148    00000030     scheduler_pe66.oe66 (.fardata:ti_sysbios_knl_Semaphore_Object__table__V)
                  00830178    00000028     rts6600_elf.lib : ios.obj (.fardata:_ZSt6stdstr)
                  008301a0    00000024     scheduler_pe66.oe66 (.fardata:xdc_runtime_LoggerBuf_Object__table__V)
                  008301c4    00000004     rts6600_elf.lib : wiostrea.obj (.fardata:_ZNSt9_FacetptrISt7codecvtIwciEE6_PsaveE)
                  008301c8    00000020                     : powf.obj (.fardata:A2$2)
                  008301e8    00000018     scheduler_pe66.oe66 (.fardata:ti_sysbios_family_c64p_Hwi_Object__table__V)
                  00830200    00000011     rts6600_elf.lib : locale0.obj (.fardata)
                  00830211    00000003     --HOLE--
                  00830214    00000004     dynamicMemory.obj (.fardata:_ZNSt9_FacetptrISt7num_putIcSt19ostreambuf_iteratorIcSt11char_traitsIcEEEE6_PsaveE)
                  00830218    00000010     scheduler_pe66.oe66 (.fardata:xdc_runtime_System_Module_State_0_atexitHandlers__A)
                  00830228    0000000c     rts6600_elf.lib : powf.obj (.fardata:Q$4)
                  00830234    0000000c                     : exit.obj (.fardata)
                  00830240    0000000c                     : ios.obj (.fardata)
                  0083024c    00000004     dynamicMemory.obj (.fardata:_ZNSt9_FacetptrISt8numpunctIcEE6_PsaveE)
                  00830250    0000000a     rts6600_elf.lib : ios.obj (.fardata:_ZSt8stdopens)
                  0083025a    00000002     --HOLE--
                  0083025c    00000004                     : _lock.obj (.fardata:_lock)
                  00830260    00000008     scheduler_pe66.oe66 (.fardata:ti_sysbios_hal_Hwi_Object__table__V)
                  00830268    00000004     rts6600_elf.lib : powf.obj (.fardata:P$3)
                  0083026c    00000004                     : _lock.obj (.fardata:_unlock)
                  00830270    00000004                     : defs.obj (.fardata)
                  00830274    00000004                     : dtor_list.obj (.fardata)
                  00830278    00000004                     : errno.obj (.fardata)
                  0083027c    00000004                     : iostream.obj (.fardata)
                  00830280    00000004                     : raisehan.obj (.fardata)
                  00830284    00000004                     : rand.obj (.fardata)
                  00830288    00000004                     : vars.obj (.fardata)
                  0083028c    00000004                     : wiostrea.obj (.fardata)
                  00830290    00000004     scheduler_pe66.oe66 (.fardata:ti_sysbios_gates_GateHwi_Object__table__V)
                  00830294    00000004     --HOLE--
                  00830298    00000004     scheduler_pe66.oe66 (.fardata:ti_sysbios_knl_Task_Module_State_0_idleTask__A)

.switch    0    008303c0    00000010     
                  008303c0    00000010     schedulingAlgorithms.obj (.switch:_Z21performUserSchedulingP14systemConfig_tP16downlinkConfig_t)


LINKER GENERATED COPY TABLES

__TI_cinit_table @ 00830d48 records: 7, size/record: 8, table size: 56
	.fardata: load addr=00830690, load size=00000650 bytes, run addr=0082f670, run size=00000c2c bytes, compression=rle
	.rodata: load addr=00830ce0, load size=0000002a bytes, run addr=0083066c, run size=00000024 bytes, compression=rle
	.neardata: load addr=00830d0c, load size=00000010 bytes, run addr=00830660, run size=0000000c bytes, compression=rle
	.bigMem: load addr=00830d28, load size=00000008 bytes, run addr=0c0ffff0, run size=0000c800 bytes, compression=zero_init
	.bss: load addr=00830d30, load size=00000008 bytes, run addr=00830648, run size=00000018 bytes, compression=zero_init
	.far: load addr=00830d38, load size=00000008 bytes, run addr=0082b320, run size=0000234c bytes, compression=zero_init
	.heapMem: load addr=00830d40, load size=00000008 bytes, run addr=0c000000, run size=000ffff0 bytes, compression=zero_init


LINKER GENERATED HANDLER TABLE

__TI_handler_table @ 00830d1c records: 3, size/record: 4, table size: 12
	index: 0, handler: __TI_zero_init
	index: 1, handler: __TI_decompress_rle24
	index: 2, handler: __TI_decompress_none


GLOBAL SYMBOLS: SORTED ALPHABETICALLY BY Name 

address    name
--------   ----
008273a0   C$$EXIT
008212e0   C$$IO$$
008300e0   C_locale
0081ecc0   HOSTclose
0081b160   HOSTlseek
0081c660   HOSTopen
0081d700   HOSTread
008154a0   HOSTrename
0081d7c0   HOSTunlink
0081c740   HOSTwrite
0082fae8   TSK_idle
00825ea0   _Atexit
00822000   _Deletegloballocale
0082fea0   _FDenorm
0082feb0   _FEps
0082fec0   _FInf
0082fed0   _FNan
0082fef0   _FRteps
0082fee0   _FSnan
0082ff00   _FXbig
0082ff04   _FZero
0081c820   _Fac_tidy
00816f80   _Getctyptab
00825ec0   _Getgloballocale
00820480   _Setgloballocale
00817a00   _Z10freeMatrixP9cmatrix_t
00817aec   _Z10freeMemoryPvj
008016ec   _Z10matrixCopyP9cmatrix_tS0_15CBLAS_TRANSPOSEb
00801a24   _Z10matrixMultP9cmatrix_tS0_S0_15CBLAS_TRANSPOSES1_b
0080208c   _Z11dotProductVPSt7complexIfES1_t
00801f44   _Z11matrixMultVP9cmatrix_tPSt7complexIfES3_b
00801650   _Z12cblas_isamaxjPvj
008015c0   _Z12cblas_scnrm2jPvj
00804168   _Z12cleanupUsersP16downlinkConfig_t
00817a14   _Z12createMatrixP9cmatrix_ttt
0080b080   _Z13displayMatrixP9cmatrix_t
0080b1c8   _Z13displayMatrixR9cmatrix_t
00803010   _Z13getNullMatrixP9cmatrix_tS0_
0080214c   _Z13outerProductVPSt7complexIfES1_P9cmatrix_tS0_
00817a74   _Z13reshapeMatrixP9cmatrix_ttt
00817ad4   _Z14allocateMemoryj
00802620   _Z15matrixHermitianP9cmatrix_t
00802440   _Z15matrixMultSafeAP9cmatrix_tS0_
00802264   _Z15matrixMultSafeBP9cmatrix_tS0_
00802818   _Z15matrixTransposeP9cmatrix_t
00817a44   _Z16createZeroMatrixP9cmatrix_ttt
00802b8c   _Z16getMatrixInverseP9cmatrix_tS0_St7complexIfE
00803a2c   _Z16initializeSystemP16downlinkConfig_tP14systemConfig_tttttt
0080b408   _Z17displaySystemInfov
008040f0   _Z17updateUserChannelP12userConfig_t
00803ef8   _Z18clearDLConfig_UserP16downlinkConfig_tt
00803178   _Z18getQRDecompositionP9cmatrix_tS0_S0_
00814404   _Z18lteSystemTerminatejj
00803d78   _Z19updateDLConfig_UserP16downlinkConfig_tP12userConfig_t
0080b310   _Z20displayUserStructureP12userConfig_t
00817aa4   _Z20reshapeAndCopyMatrixP9cmatrix_ttt
00825ee0   _Z21__default_new_handlerv
0080b490   _Z21displayScheduledUsersP14systemConfig_tP16downlinkConfig_t
008053c0   _Z21performPIPDSchedulingP14systemConfig_tP16downlinkConfig_t
0081be60   _Z21performUserSchedulingP14systemConfig_tP16downlinkConfig_t
00803b38   _Z22createNewUserStructurettt
00803840   _Z22randomizeChannelMatrixP9cmatrix_tb
0080e8e0   _Z23performGreedySchedulingP14systemConfig_tP16downlinkConfig_t
00811960   _Z23performRandomSchedulingP14systemConfig_tP16downlinkConfig_t
0080c660   _Z24decomposeChannelMatricesP14systemConfig_tP16downlinkConfig_t
0080cac4   _Z28clearSchedulerConfigurationsP14systemConfig_tP16downlinkConfig_t
00806320   _Z28performSuccessiveProjectionsP14systemConfig_tP16downlinkConfig_t
00803628   _Z6getSVDP9cmatrix_tS0_S0_S0_c
00803fd4   _Z8freeUserP12userConfig_t
00802a80   _Z9eyeMatrixP9cmatrix_t
0082d5b8   _ZGVNSt10moneypunctIwLb0EE2idE
0082d5c0   _ZGVNSt10moneypunctIwLb1EE2idE
0082d5c8   _ZGVNSt7codecvtIcciE2idE
0082d5d0   _ZGVNSt7collateIwE2idE
0082d5d8   _ZGVNSt7num_getIwSt19istreambuf_iteratorIwSt11char_traitsIwEEE2idE
00830648   _ZGVNSt7num_putIcSt19ostreambuf_iteratorIcSt11char_traitsIcEEE2idE
0082d5e0   _ZGVNSt7num_putIwSt19ostreambuf_iteratorIwSt11char_traitsIwEEE2idE
0082d5e8   _ZGVNSt8messagesIwE2idE
00830650   _ZGVNSt8numpunctIcE2idE
0082d5f0   _ZGVNSt8numpunctIwE2idE
0082d5f8   _ZGVNSt8time_getIwSt19istreambuf_iteratorIwSt11char_traitsIwEEE2idE
0082d600   _ZGVNSt9money_getIwSt19istreambuf_iteratorIwSt11char_traitsIwEEE2idE
0082d608   _ZGVNSt9money_putIwSt19ostreambuf_iteratorIwSt11char_traitsIwEEE2idE
00825f00   _ZN10__cxxabiv117__class_type_infoD0Ev
00825f20   _ZN10__cxxabiv117__class_type_infoD1Ev
00825f20   _ZN10__cxxabiv117__class_type_infoD2Ev
00825f40   _ZN10__cxxabiv120__si_class_type_infoD0Ev
00825f60   _ZN10__cxxabiv120__si_class_type_infoD1Ev
00825f60   _ZN10__cxxabiv120__si_class_type_infoD2Ev
00825f80   _ZN10__cxxabiv121__vmi_class_type_infoD0Ev
00825fa0   _ZN10__cxxabiv121__vmi_class_type_infoD1Ev
00825fa0   _ZN10__cxxabiv121__vmi_class_type_infoD2Ev
00800280   _ZN13DynamicMemory10clearListsEv
008006a8   _ZN13DynamicMemory10getMatrixREP9cmatrix_ttt
00800528   _ZN13DynamicMemory10getMatrixZEtt
008013e4   _ZN13DynamicMemory10resetQInfoEv
00801414   _ZN13DynamicMemory12displayQInfoEv
00800000   _ZN13DynamicMemory12getEmptyListEj
008008cc   _ZN13DynamicMemory12updateMatrixEP9cmatrix_ttt
00800b2c   _ZN13DynamicMemory13reshapeMatrixEP9cmatrix_ttt
008009b0   _ZN13DynamicMemory13updateMatrixZEP9cmatrix_ttt
00801124   _ZN13DynamicMemory15displayDMStatusEv
008003e0   _ZN13DynamicMemory16freeMatrixMemoryEP9cmatrix_t
008013c4   _ZN13DynamicMemory16freeMemoryBufferEPvj
00801398   _ZN13DynamicMemory18obtainMemoryBufferEj
00800c60   _ZN13DynamicMemory20reshapeMatrixAndCopyEP9cmatrix_ttt
008011e0   _ZN13DynamicMemory23displayDMCompleteStatusEv
00800440   _ZN13DynamicMemory9getMatrixEtt
008002d4   _ZN13DynamicMemoryC1Ev
008002d4   _ZN13DynamicMemoryC2Ev
008003ac   _ZN13DynamicMemoryD1Ev
008003ac   _ZN13DynamicMemoryD2Ev
00825fc0   _ZNKSaIcE8max_sizeEv
00825fe0   _ZNKSo6sentrycvbEv
00826000   _ZNKSs4sizeEv
00826020   _ZNKSs5c_strEv
008242e0   _ZNKSs6_MyptrEv
00824320   _ZNKSs8max_sizeEv
00826040   _ZNKSt11logic_error4whatEv
00826060   _ZNKSt11logic_error8_DoraiseEv
00818860   _ZNKSt12_String_base5_XlenEv
008160e0   _ZNKSt12_String_base5_XranEv
00826080   _ZNKSt12codecvt_base11do_encodingEv
008260a0   _ZNKSt12codecvt_base13do_max_lengthEv
008260c0   _ZNKSt12codecvt_base16do_always_noconvEv
008260e0   _ZNKSt12length_error8_DoraiseEv
00826100   _ZNKSt12out_of_range8_DoraiseEv
00826120   _ZNKSt13_Complex_baseIfSt16_C_float_complexE4imagEv
00826140   _ZNKSt13_Complex_baseIfSt16_C_float_complexE4realEv
00826160   _ZNKSt13runtime_error4whatEv
00826180   _ZNKSt13runtime_error8_DoraiseEv
00824360   _ZNKSt15basic_streambufIcSt11char_traitsIcEE8_PnavailEv
008261a0   _ZNKSt19ostreambuf_iteratorIcSt11char_traitsIcEE6failedEv
00822060   _ZNKSt5ctypeIcE10do_tolowerEPcPKc
008243a0   _ZNKSt5ctypeIcE10do_tolowerEc
008220c0   _ZNKSt5ctypeIcE10do_toupperEPcPKc
008243e0   _ZNKSt5ctypeIcE10do_toupperEc
00824420   _ZNKSt5ctypeIcE5widenEc
00824460   _ZNKSt5ctypeIcE8do_widenEPKcS2_Pc
008261c0   _ZNKSt5ctypeIcE8do_widenEc
008244a0   _ZNKSt5ctypeIcE9do_narrowEPKcS2_cPc
008261e0   _ZNKSt5ctypeIcE9do_narrowEcc
00820500   _ZNKSt5ctypeIwE10do_scan_isEsPKwS2_
0081d940   _ZNKSt5ctypeIwE10do_tolowerEPwPKw
00820580   _ZNKSt5ctypeIwE10do_tolowerEw
00817100   _ZNKSt5ctypeIwE10do_toupperEPwPKw
00822120   _ZNKSt5ctypeIwE10do_toupperEw
00820600   _ZNKSt5ctypeIwE11do_scan_notEsPKwS2_
00826200   _ZNKSt5ctypeIwE2isEsw
0081a3e0   _ZNKSt5ctypeIwE5do_isEPKwS2_Ps
008244e0   _ZNKSt5ctypeIwE5do_isEsw
00826220   _ZNKSt5ctypeIwE5widenEc
00826240   _ZNKSt5ctypeIwE6narrowEwc
0081ed60   _ZNKSt5ctypeIwE8do_widenEPKcS2_Pw
00824520   _ZNKSt5ctypeIwE8do_widenEc
0081a500   _ZNKSt5ctypeIwE9do_narrowEPKwS2_cPc
00822180   _ZNKSt5ctypeIwE9do_narrowEwc
00820680   _ZNKSt6locale9_GetfacetEj
00826260   _ZNKSt7codecvtIcciE10do_unshiftERiPcS2_RS2_
00826280   _ZNKSt7codecvtIcciE5do_inERiPKcS3_RS3_PcS5_RS5_
008262a0   _ZNKSt7codecvtIcciE6do_outERiPKcS3_RS3_PcS5_RS5_
008262c0   _ZNKSt7codecvtIcciE9do_lengthERKiPKcS4_j
0081ee00   _ZNKSt7codecvtIwciE10do_unshiftERiPcS2_RS2_
008262e0   _ZNKSt7codecvtIwciE11do_encodingEv
00826300   _ZNKSt7codecvtIwciE13do_max_lengthEv
00826320   _ZNKSt7codecvtIwciE16do_always_noconvEv
00817280   _ZNKSt7codecvtIwciE5do_inERiPKcS3_RS3_PwS5_RS5_
00817400   _ZNKSt7codecvtIwciE6do_outERiPKwS3_RS3_PcS5_RS5_
0081b260   _ZNKSt7codecvtIwciE9do_lengthERKiPKcS4_j
0081da00   _ZNKSt7num_putIcSt19ostreambuf_iteratorIcSt11char_traitsIcEEE11_PutgroupedES3_PKcjc
00824560   _ZNKSt7num_putIcSt19ostreambuf_iteratorIcSt11char_traitsIcEEE3putES3_RSt8ios_basecb
008245a0   _ZNKSt7num_putIcSt19ostreambuf_iteratorIcSt11char_traitsIcEEE3putES3_RSt8ios_basecm
008221e0   _ZNKSt7num_putIcSt19ostreambuf_iteratorIcSt11char_traitsIcEEE4_PutES3_PKcj
00822240   _ZNKSt7num_putIcSt19ostreambuf_iteratorIcSt11char_traitsIcEEE4_RepES3_cj
0081b360   _ZNKSt7num_putIcSt19ostreambuf_iteratorIcSt11char_traitsIcEEE5_FfmtEPccNSt5_IosbIiE9_FmtflagsE
0080b620   _ZNKSt7num_putIcSt19ostreambuf_iteratorIcSt11char_traitsIcEEE5_FputES3_RSt8ios_basecPKcjjjj
0081a620   _ZNKSt7num_putIcSt19ostreambuf_iteratorIcSt11char_traitsIcEEE5_IfmtEPcPKcNSt5_IosbIiE9_FmtflagsE
0080ff20   _ZNKSt7num_putIcSt19ostreambuf_iteratorIcSt11char_traitsIcEEE5_IputES3_RSt8ios_basecPcj
00820700   _ZNKSt7num_putIcSt19ostreambuf_iteratorIcSt11char_traitsIcEEE5_PutcES3_PKcj
0081eea0   _ZNKSt7num_putIcSt19ostreambuf_iteratorIcSt11char_traitsIcEEE6do_putES3_RSt8ios_basecPKv
00814f00   _ZNKSt7num_putIcSt19ostreambuf_iteratorIcSt11char_traitsIcEEE6do_putES3_RSt8ios_basecb
008101e0   _ZNKSt7num_putIcSt19ostreambuf_iteratorIcSt11char_traitsIcEEE6do_putES3_RSt8ios_basecd
008104a0   _ZNKSt7num_putIcSt19ostreambuf_iteratorIcSt11char_traitsIcEEE6do_putES3_RSt8ios_basece
00820780   _ZNKSt7num_putIcSt19ostreambuf_iteratorIcSt11char_traitsIcEEE6do_putES3_RSt8ios_basecl
00820800   _ZNKSt7num_putIcSt19ostreambuf_iteratorIcSt11char_traitsIcEEE6do_putES3_RSt8ios_basecm
00820880   _ZNKSt7num_putIcSt19ostreambuf_iteratorIcSt11char_traitsIcEEE6do_putES3_RSt8ios_basecx
00820900   _ZNKSt7num_putIcSt19ostreambuf_iteratorIcSt11char_traitsIcEEE6do_putES3_RSt8ios_basecy
008245e0   _ZNKSt8_Locinfo7_GetcvtEv
00826340   _ZNKSt8_Locinfo8_GettrueEv
00824620   _ZNKSt8_Locinfo9_GetctypeEv
00826360   _ZNKSt8_Locinfo9_GetfalseEv
00826380   _ZNKSt8_Locinfo9_GetlconvEv
008263a0   _ZNKSt8ios_base4failEv
008263c0   _ZNKSt8ios_base4goodEv
008263e0   _ZNKSt8ios_base5flagsEv
00826400   _ZNKSt8ios_base5widthEv
00826420   _ZNKSt8ios_base6getlocEv
00826440   _ZNKSt8ios_base7failure8_DoraiseEv
00826460   _ZNKSt8ios_base7rdstateEv
00826480   _ZNKSt8ios_base9precisionEv
008264a0   _ZNKSt8numpunctIcE11do_groupingEv
008264c0   _ZNKSt8numpunctIcE11do_truenameEv
008264e0   _ZNKSt8numpunctIcE12do_falsenameEv
00826500   _ZNKSt8numpunctIcE13decimal_pointEv
00826520   _ZNKSt8numpunctIcE13thousands_sepEv
00826540   _ZNKSt8numpunctIcE16do_decimal_pointEv
00826560   _ZNKSt8numpunctIcE16do_thousands_sepEv
00824660   _ZNKSt8numpunctIcE8groupingEv
008246a0   _ZNKSt8numpunctIcE8truenameEv
008246e0   _ZNKSt8numpunctIcE9falsenameEv
00826580   _ZNKSt9basic_iosIcSt11char_traitsIcEE3tieEv
008265a0   _ZNKSt9basic_iosIcSt11char_traitsIcEE4fillEv
008265c0   _ZNKSt9basic_iosIcSt11char_traitsIcEE5rdbufEv
008222a0   _ZNKSt9basic_iosIcSt11char_traitsIcEE5widenEc
008265e0   _ZNKSt9exception4whatEv
00822300   _ZNKSt9exception6_RaiseEv
00826600   _ZNKSt9exception8_DoraiseEv
00826620   _ZNSaIcE10deallocateEPcj
00826640   _ZNSaIcE8allocateEj
00826660   _ZNSaIcEC1ERKS_
00826680   _ZNSaIcEC1Ev
00822360   _ZNSiD0Ev
00824720   _ZNSiD1Ev
0081ef40   _ZNSo12_Sentry_baseC1ERSo
008266a0   _ZNSo12_Sentry_baseC2ERSo
0081efe0   _ZNSo12_Sentry_baseD1Ev
008266c0   _ZNSo12_Sentry_baseD2Ev
0081dac0   _ZNSo3putEc
00824760   _ZNSo5_OsfxEv
00820980   _ZNSo5flushEv
0081db80   _ZNSo6sentryC1ERSo
008266e0   _ZNSo6sentryD1Ev
008223c0   _ZNSoD0Ev
008247a0   _ZNSoD1Ev
00826700   _ZNSolsEPFRSoS_E
008189a0   _ZNSolsEb
00818ae0   _ZNSolsEj
008247e0   _ZNSs4_EosEj
0082a604   _ZNSs4nposE
0081c900   _ZNSs5_CopyEjj
0081dc40   _ZNSs5_GrowEjb
00820a00   _ZNSs5_TidyEbj
0081c9e0   _ZNSs5eraseEjj
00824820   _ZNSs6_MyptrEv
0081dd00   _ZNSs6appendEPKcj
0081b460   _ZNSs6appendERKSsjj
0081f080   _ZNSs6appendEjc
00824860   _ZNSs6assignEPKc
00820a80   _ZNSs6assignEPKcj
008248a0   _ZNSs6assignERKSs
0081cac0   _ZNSs6assignERKSsjj
0081b560   _ZNSs6insertEjjc
00822420   _ZNSs7_InsideEPKc
00822480   _ZNSs9_ChassignEjjc
008248e0   _ZNSsC1EPKc
00824920   _ZNSsC1Ev
00826720   _ZNSsD1Ev
00826740   _ZNSsixEj
00824960   _ZNSt10ctype_baseC1Ej
00826760   _ZNSt10ctype_baseC2Ej
00826780   _ZNSt10ctype_baseD0Ev
008267a0   _ZNSt10ctype_baseD1Ev
008267c0   _ZNSt10ctype_baseD2Ev
0082d5ac   _ZNSt10moneypunctIwLb0EE2idE
0082d610   _ZNSt10moneypunctIwLb1EE2idE
008267e0   _ZNSt11_String_valIcSaIcEEC1ES0_
00826800   _ZNSt11_String_valIcSaIcEEC2ES0_
00826820   _ZNSt11char_traitsIcE11eq_int_typeERKiS2_
00826840   _ZNSt11char_traitsIcE11to_int_typeERKc
00826860   _ZNSt11char_traitsIcE3eofEv
00826880   _ZNSt11char_traitsIcE4copyEPcPKcj
008268a0   _ZNSt11char_traitsIcE4moveEPcPKcj
008249a0   _ZNSt11char_traitsIcE6assignEPcjc
008268c0   _ZNSt11char_traitsIcE6assignERcRKc
008268e0   _ZNSt11char_traitsIcE6lengthEPKc
00820b00   _ZNSt11logic_errorC2ERKSs
00820b80   _ZNSt11logic_errorD0Ev
0081f120   _ZNSt11logic_errorD1Ev
00826900   _ZNSt12codecvt_baseD0Ev
00826920   _ZNSt12codecvt_baseD1Ev
00820c00   _ZNSt12length_errorD0Ev
0081f1c0   _ZNSt12length_errorD1Ev
0081f260   _ZNSt12out_of_rangeC1ERKSs
00820c80   _ZNSt12out_of_rangeD0Ev
0081f300   _ZNSt12out_of_rangeD1Ev
008224e0   _ZNSt13_Complex_baseIfSt16_C_float_complexE4_AddIfEEvRKSt7complexIT_E
00811be0   _ZNSt13_Complex_baseIfSt16_C_float_complexE4_DivIfEEvRKSt7complexIT_E
0081f3a0   _ZNSt13_Complex_baseIfSt16_C_float_complexE4_MulIfEEvRKSt7complexIT_E
00822540   _ZNSt13_Complex_baseIfSt16_C_float_complexE4_SubIfEEvRKSt7complexIT_E
00826940   _ZNSt13_Complex_baseIfSt16_C_float_complexE4imagERKf
00826960   _ZNSt13_Complex_baseIfSt16_C_float_complexE4realERKf
008249e0   _ZNSt13_Complex_baseIfSt16_C_float_complexEC1ERKfS3_
00826980   _ZNSt13_Complex_baseIfSt16_C_float_complexEC2ERKfS3_
00820d00   _ZNSt13basic_filebufIcSt11char_traitsIcEE4syncEv
0081ddc0   _ZNSt13basic_filebufIcSt11char_traitsIcEE5_InitEPSt4FILENS2_7_InitflE
008225a0   _ZNSt13basic_filebufIcSt11char_traitsIcEE5imbueERKSt6locale
0080aac0   _ZNSt13basic_filebufIcSt11char_traitsIcEE5uflowEv
00818c20   _ZNSt13basic_filebufIcSt11char_traitsIcEE6setbufEPci
0082d614   _ZNSt13basic_filebufIcSt11char_traitsIcEE7_StinitE
00815820   _ZNSt13basic_filebufIcSt11char_traitsIcEE7seekoffElNSt5_IosbIiE8_SeekdirENS4_9_OpenmodeE
00816280   _ZNSt13basic_filebufIcSt11char_traitsIcEE7seekposESt4fposIiENSt5_IosbIiE9_OpenmodeE
00808ce0   _ZNSt13basic_filebufIcSt11char_traitsIcEE8overflowEi
0080d5e0   _ZNSt13basic_filebufIcSt11char_traitsIcEE9_EndwriteEv
00817580   _ZNSt13basic_filebufIcSt11char_traitsIcEE9pbackfailEi
0081f440   _ZNSt13basic_filebufIcSt11char_traitsIcEE9underflowEv
00818180   _ZNSt13basic_filebufIcSt11char_traitsIcEED0Ev
00818d60   _ZNSt13basic_filebufIcSt11char_traitsIcEED1Ev
00820d80   _ZNSt13basic_filebufIwSt11char_traitsIwEE4syncEv
00812a20   _ZNSt13basic_filebufIwSt11char_traitsIwEE5imbueERKSt6locale
00809f00   _ZNSt13basic_filebufIwSt11char_traitsIwEE5uflowEv
0081a740   _ZNSt13basic_filebufIwSt11char_traitsIwEE6setbufEPwi
0082d618   _ZNSt13basic_filebufIwSt11char_traitsIwEE7_StinitE
008159e0   _ZNSt13basic_filebufIwSt11char_traitsIwEE7seekoffElNSt5_IosbIiE8_SeekdirENS4_9_OpenmodeE
00816420   _ZNSt13basic_filebufIwSt11char_traitsIwEE7seekposESt4fposIiENSt5_IosbIiE9_OpenmodeE
00809300   _ZNSt13basic_filebufIwSt11char_traitsIwEE8overflowEj
0080cba0   _ZNSt13basic_filebufIwSt11char_traitsIwEE9_EndwriteEv
008165c0   _ZNSt13basic_filebufIwSt11char_traitsIwEE9pbackfailEj
0081f4e0   _ZNSt13basic_filebufIwSt11char_traitsIwEE9underflowEv
008182e0   _ZNSt13basic_filebufIwSt11char_traitsIwEED0Ev
00818ea0   _ZNSt13basic_filebufIwSt11char_traitsIwEED1Ev
00822600   _ZNSt13basic_istreamIwSt11char_traitsIwEED0Ev
00824a20   _ZNSt13basic_istreamIwSt11char_traitsIwEED1Ev
00822660   _ZNSt13basic_ostreamIwSt11char_traitsIwEED0Ev
00824a60   _ZNSt13basic_ostreamIwSt11char_traitsIwEED1Ev
00820e00   _ZNSt13runtime_errorD0Ev
0081f580   _ZNSt13runtime_errorD1Ev
008269a0   _ZNSt15basic_streambufIcSt11char_traitsIcEE4syncEv
008226c0   _ZNSt15basic_streambufIcSt11char_traitsIcEE5_InitEv
008269c0   _ZNSt15basic_streambufIcSt11char_traitsIcEE5_LockEv
008269e0   _ZNSt15basic_streambufIcSt11char_traitsIcEE5imbueERKSt6locale
00820e80   _ZNSt15basic_streambufIcSt11char_traitsIcEE5sputcEc
00824aa0   _ZNSt15basic_streambufIcSt11char_traitsIcEE5sputnEPKci
00822720   _ZNSt15basic_streambufIcSt11char_traitsIcEE5uflowEv
00826a00   _ZNSt15basic_streambufIcSt11char_traitsIcEE6_PnincEv
00826a20   _ZNSt15basic_streambufIcSt11char_traitsIcEE6setbufEPci
0081b660   _ZNSt15basic_streambufIcSt11char_traitsIcEE6xsgetnEPci
0081b760   _ZNSt15basic_streambufIcSt11char_traitsIcEE6xsputnEPKci
00826a40   _ZNSt15basic_streambufIcSt11char_traitsIcEE7_UnlockEv
00826a60   _ZNSt15basic_streambufIcSt11char_traitsIcEE7pubsyncEv
00822780   _ZNSt15basic_streambufIcSt11char_traitsIcEE7seekoffElNSt5_IosbIiE8_SeekdirENS4_9_OpenmodeE
008227e0   _ZNSt15basic_streambufIcSt11char_traitsIcEE7seekposESt4fposIiENSt5_IosbIiE9_OpenmodeE
00826a80   _ZNSt15basic_streambufIcSt11char_traitsIcEE8overflowEi
00826aa0   _ZNSt15basic_streambufIcSt11char_traitsIcEE9pbackfailEi
00826ac0   _ZNSt15basic_streambufIcSt11char_traitsIcEE9showmanycEv
00826ae0   _ZNSt15basic_streambufIcSt11char_traitsIcEE9underflowEv
00822840   _ZNSt15basic_streambufIcSt11char_traitsIcEED0Ev
008228a0   _ZNSt15basic_streambufIcSt11char_traitsIcEED1Ev
00826b00   _ZNSt15basic_streambufIwSt11char_traitsIwEE4syncEv
00822900   _ZNSt15basic_streambufIwSt11char_traitsIwEE5_InitEv
00826b20   _ZNSt15basic_streambufIwSt11char_traitsIwEE5_LockEv
00826b40   _ZNSt15basic_streambufIwSt11char_traitsIwEE5imbueERKSt6locale
00822960   _ZNSt15basic_streambufIwSt11char_traitsIwEE5uflowEv
00826b60   _ZNSt15basic_streambufIwSt11char_traitsIwEE6setbufEPwi
0081b860   _ZNSt15basic_streambufIwSt11char_traitsIwEE6xsgetnEPwi
0081b960   _ZNSt15basic_streambufIwSt11char_traitsIwEE6xsputnEPKwi
00826b80   _ZNSt15basic_streambufIwSt11char_traitsIwEE7_UnlockEv
008229c0   _ZNSt15basic_streambufIwSt11char_traitsIwEE7seekoffElNSt5_IosbIiE8_SeekdirENS4_9_OpenmodeE
00822a20   _ZNSt15basic_streambufIwSt11char_traitsIwEE7seekposESt4fposIiENSt5_IosbIiE9_OpenmodeE
00826ba0   _ZNSt15basic_streambufIwSt11char_traitsIwEE8overflowEj
00826bc0   _ZNSt15basic_streambufIwSt11char_traitsIwEE9pbackfailEj
00826be0   _ZNSt15basic_streambufIwSt11char_traitsIwEE9showmanycEv
00826c00   _ZNSt15basic_streambufIwSt11char_traitsIwEE9underflowEv
00822a80   _ZNSt15basic_streambufIwSt11char_traitsIwEED0Ev
00822ae0   _ZNSt15basic_streambufIwSt11char_traitsIwEED1Ev
00824ae0   _ZNSt19ostreambuf_iteratorIcSt11char_traitsIcEEC1EPSt15basic_streambufIcS1_E
00820f00   _ZNSt19ostreambuf_iteratorIcSt11char_traitsIcEEaSEc
00826c20   _ZNSt19ostreambuf_iteratorIcSt11char_traitsIcEEdeEv
00826c40   _ZNSt19ostreambuf_iteratorIcSt11char_traitsIcEEppEv
0082d61c   _ZNSt4fposIiE4_StzE
0082d5a4   _ZNSt5ctypeIcE2idE
00826c60   _ZNSt5ctypeIcE5_InitERKSt8_Locinfo
00824b20   _ZNSt5ctypeIcE5_TidyEv
00822b40   _ZNSt5ctypeIcE7_GetcatEPPKNSt6locale5facetE
0081f620   _ZNSt5ctypeIcEC1EPKsbj
00826c80   _ZNSt5ctypeIcED0Ev
00824b60   _ZNSt5ctypeIcED1Ev
0082d650   _ZNSt5ctypeIwE2idE
00822ba0   _ZNSt5ctypeIwED0Ev
00822c00   _ZNSt5ctypeIwED1Ev
0083028c   _ZNSt6_Winit9_Init_cntE
00804240   _ZNSt6_WinitC1Ev
00804240   _ZNSt6_WinitC2Ev
008111e0   _ZNSt6_WinitD1Ev
008111e0   _ZNSt6_WinitD2Ev
00830200   _ZNSt6locale2id7_Id_cntE
00826ca0   _ZNSt6locale2idC1Ej
00822c60   _ZNSt6locale2idcvjEv
0081a860   _ZNSt6locale5_InitEv
00822cc0   _ZNSt6locale5facet7_DecrefEv
00824ba0   _ZNSt6locale5facet7_IncrefEv
00820f80   _ZNSt6locale5facet9_RegisterEv
00824be0   _ZNSt6locale5facetC1Ej
00826cc0   _ZNSt6locale5facetC2Ej
00826ce0   _ZNSt6locale5facetD0Ev
00826d00   _ZNSt6locale5facetD1Ev
00826d20   _ZNSt6locale5facetD2Ev
00830204   _ZNSt6locale7_Locimp8_ClocptrE
0081cba0   _ZNSt6locale7_LocimpC1Eb
0081cba0   _ZNSt6locale7_LocimpC2Eb
00822d20   _ZNSt6locale7_LocimpD0Ev
00818fe0   _ZNSt6locale7_LocimpD1Ev
00818fe0   _ZNSt6locale7_LocimpD2Ev
00824c20   _ZNSt6localeC1ERKS_
00822d80   _ZNSt6localeC1Ev
00822d80   _ZNSt6localeC2Ev
00824c60   _ZNSt6localeD1Ev
00826d40   _ZNSt7_LockitC1Ei
00826d60   _ZNSt7_LockitD1Ev
0082d620   _ZNSt7codecvtIcciE2idE
00826d80   _ZNSt7codecvtIcciED0Ev
00826da0   _ZNSt7codecvtIcciED1Ev
0082d5a0   _ZNSt7codecvtIwciE2idE
00826dc0   _ZNSt7codecvtIwciED0Ev
00826de0   _ZNSt7codecvtIwciED1Ev
0082d624   _ZNSt7collateIwE2idE
00826e00   _ZNSt7complexIfEC1ERKfS2_
00824ca0   _ZNSt7complexIfEaSERKf
00822de0   _ZNSt7complexIfEdVERKf
00826e20   _ZNSt7complexIfEdVIfEERS0_RKS_IT_E
00826e40   _ZNSt7complexIfEmIIfEERS0_RKS_IT_E
00826e60   _ZNSt7complexIfEmLIfEERS0_RKS_IT_E
00826e80   _ZNSt7complexIfEpLIfEERS0_RKS_IT_E
0082d628   _ZNSt7num_getIwSt19istreambuf_iteratorIwSt11char_traitsIwEEE2idE
0082d62c   _ZNSt7num_putIcSt19ostreambuf_iteratorIcSt11char_traitsIcEEE2idE
00826ea0   _ZNSt7num_putIcSt19ostreambuf_iteratorIcSt11char_traitsIcEEE5_InitERKSt8_Locinfo
00824ce0   _ZNSt7num_putIcSt19ostreambuf_iteratorIcSt11char_traitsIcEEE7_GetcatEPPKNSt6locale5facetE
00822e40   _ZNSt7num_putIcSt19ostreambuf_iteratorIcSt11char_traitsIcEEEC1Ej
00826ec0   _ZNSt7num_putIcSt19ostreambuf_iteratorIcSt11char_traitsIcEEED0Ev
00826ee0   _ZNSt7num_putIcSt19ostreambuf_iteratorIcSt11char_traitsIcEEED1Ev
0082d630   _ZNSt7num_putIwSt19ostreambuf_iteratorIwSt11char_traitsIwEEE2idE
00826f00   _ZNSt8_CtraitsIfE4sqrtEf
00826f20   _ZNSt8_CtraitsIfE5_InfvEf
00826f40   _ZNSt8_CtraitsIfE5_NanvEf
00826f60   _ZNSt8_CtraitsIfE5ldexpEfi
00826f80   _ZNSt8_CtraitsIfE6_IsinfEf
00826fa0   _ZNSt8_CtraitsIfE6_IsnanEf
0081a980   _ZNSt8_LocinfoC1EPKc
0081a980   _ZNSt8_LocinfoC2EPKc
0081aaa0   _ZNSt8_LocinfoD1Ev
0081aaa0   _ZNSt8_LocinfoD2Ev
0083027c   _ZNSt8ios_base4Init9_Init_cntE
00805b80   _ZNSt8ios_base4InitC1Ev
00805b80   _ZNSt8ios_base4InitC2Ev
0081f6c0   _ZNSt8ios_base4InitD1Ev
0081f6c0   _ZNSt8ios_base4InitD2Ev
0081f760   _ZNSt8ios_base5_InitEv
00830244   _ZNSt8ios_base5_SyncE
0081f800   _ZNSt8ios_base5_TidyEv
0080d0c0   _ZNSt8ios_base5clearENSt5_IosbIiE8_IostateEb
00824d20   _ZNSt8ios_base5widthEi
00830240   _ZNSt8ios_base6_IndexE
0081f8a0   _ZNSt8ios_base7_AddstdEv
00821000   _ZNSt8ios_base7failureD0Ev
0081f940   _ZNSt8ios_base7failureD1Ev
00821080   _ZNSt8ios_base8_CallfnsENS_5eventE
00822ea0   _ZNSt8ios_baseD0Ev
0081f9e0   _ZNSt8ios_baseD1Ev
0081f9e0   _ZNSt8ios_baseD2Ev
0082d634   _ZNSt8messagesIwE2idE
0082d638   _ZNSt8numpunctIcE2idE
00819120   _ZNSt8numpunctIcE5_InitERKSt8_Locinfo
00824d60   _ZNSt8numpunctIcE5_TidyEv
00824da0   _ZNSt8numpunctIcE7_GetcatEPPKNSt6locale5facetE
00822f00   _ZNSt8numpunctIcEC1Ej
00826fc0   _ZNSt8numpunctIcED0Ev
00824de0   _ZNSt8numpunctIcED1Ev
0082d63c   _ZNSt8numpunctIwE2idE
0082d640   _ZNSt8time_getIwSt19istreambuf_iteratorIwSt11char_traitsIwEEE2idE
0082d644   _ZNSt8time_putIwSt19ostreambuf_iteratorIwSt11char_traitsIwEEE2idE
0082fb34   _ZNSt9_FacetptrISt5ctypeIcEE6_PsaveE
0082ff9c   _ZNSt9_FacetptrISt5ctypeIwEE6_PsaveE
00830114   _ZNSt9_FacetptrISt7codecvtIcciEE6_PsaveE
008301c4   _ZNSt9_FacetptrISt7codecvtIwciEE6_PsaveE
00830214   _ZNSt9_FacetptrISt7num_putIcSt19ostreambuf_iteratorIcSt11char_traitsIcEEEE6_PsaveE
0083024c   _ZNSt9_FacetptrISt8numpunctIcEE6_PsaveE
00818440   _ZNSt9basic_iosIcSt11char_traitsIcEE4initEPSt15basic_streambufIcS1_Eb
00824e20   _ZNSt9basic_iosIcSt11char_traitsIcEE5clearENSt5_IosbIiE8_IostateEb
00824e60   _ZNSt9basic_iosIcSt11char_traitsIcEE8setstateENSt5_IosbIiE8_IostateEb
00822f60   _ZNSt9basic_iosIcSt11char_traitsIcEED0Ev
00826fe0   _ZNSt9basic_iosIcSt11char_traitsIcEED1Ev
008185a0   _ZNSt9basic_iosIwSt11char_traitsIwEE4initEPSt15basic_streambufIwS1_Eb
00822fc0   _ZNSt9basic_iosIwSt11char_traitsIwEED0Ev
00827000   _ZNSt9basic_iosIwSt11char_traitsIwEED1Ev
00827020   _ZNSt9exceptionD0Ev
00827040   _ZNSt9exceptionD1Ev
0082d648   _ZNSt9money_getIwSt19istreambuf_iteratorIwSt11char_traitsIwEEE2idE
0082d64c   _ZNSt9money_putIwSt19ostreambuf_iteratorIwSt11char_traitsIwEEE2idE
00827060   _ZSt10_MaklocchrIcET_cPS0_RKSt7_Cvtvec
00821100   _ZSt10_MaklocstrIcEPT_PKcS1_RKSt7_Cvtvec
00821180   _ZSt14_Debug_messagePKcS0_
00830280   _ZSt14_Raise_handler
00824ea0   _ZSt3absIfET_RKSt7complexIS0_E
00824ee0   _ZSt3absf
0082d198   _ZSt3cin
00824f20   _ZSt3powff
00830248   _ZSt4_Fpz
0082d25c   _ZSt4cerr
0082d294   _ZSt4clog
00824f60   _ZSt4conjIfESt7complexIT_ERKS2_
0082d1d4   _ZSt4cout
00823020   _ZSt4endlIcSt11char_traitsIcEERSt13basic_ostreamIT_T0_ES6_
008270a0   _ZSt4imagIfET_RKSt7complexIS0_E
008270c0   _ZSt4realIfET_RKSt7complexIS0_E
008270e0   _ZSt4sqrtf
0082d014   _ZSt4wcin
00811e40   _ZSt5_FabsIfET_RKSt7complexIS0_EPi
0082d088   _ZSt5wcerr
0082d0c0   _ZSt5wclog
0082d050   _ZSt5wcout
00824fa0   _ZSt6_ThrowRKSt9exception
0082a784   _ZSt7_BADOFF
00827100   _ZSt8_ToloweriPKSt9_Ctypevec
00827120   _ZSt8_ToupperiPKSt9_Ctypevec
00827140   _ZSt9_AllocateIcEPT_jS1_
0081de80   _ZSt9use_facetISt5ctypeIcEERKT_RKSt6locale
00817700   _ZSt9use_facetISt5ctypeIwEERKT_RKSt6locale
00819260   _ZSt9use_facetISt7codecvtIcciEERKT_RKSt6locale
0081df40   _ZSt9use_facetISt7num_putIcSt19ostreambuf_iteratorIcSt11char_traitsIcEEEERKT_RKSt6locale
0081e000   _ZSt9use_facetISt8numpunctIcEERKT_RKSt6locale
00827160   _ZStanNSt5_IosbIiE9_FmtflagsES1_
00824fe0   _ZStdvIfESt7complexIT_ERKS1_RKS2_
00823080   _ZStdvIfESt7complexIT_ERKS2_RKS1_
00825020   _ZStdvIfESt7complexIT_ERKS2_S4_
0080f380   _ZStlsISt11char_traitsIcEERSt13basic_ostreamIcT_ES5_PKc
00825060   _ZStmiIfESt7complexIT_ERKS2_S4_
008250a0   _ZStmlIfESt7complexIT_ERKS1_RKS2_
008250e0   _ZStmlIfESt7complexIT_ERKS2_S4_
00825120   _ZStoRRNSt5_IosbIiE8_IostateES1_
00825160   _ZStplIfESt7complexIT_ERKS2_S4_
0082ae14   _ZTIN10__cxxabiv117__class_type_infoE
0082af48   _ZTIN10__cxxabiv120__si_class_type_infoE
0082af54   _ZTIN10__cxxabiv121__vmi_class_type_infoE
0082b0ac   _ZTINSt6locale5facetE
0082af60   _ZTINSt6locale7_LocimpE
0082af6c   _ZTINSt8ios_base7failureE
0082abf4   _ZTISi
0082ac0c   _ZTISo
0082af78   _ZTISt10ctype_base
0082af84   _ZTISt11logic_error
0082af90   _ZTISt12codecvt_base
0082af9c   _ZTISt12length_error
0082afa8   _ZTISt12out_of_range
0082afb4   _ZTISt13basic_filebufIcSt11char_traitsIcEE
0082afc0   _ZTISt13basic_filebufIwSt11char_traitsIwEE
0082ac24   _ZTISt13basic_istreamIwSt11char_traitsIwEE
0082ac3c   _ZTISt13basic_ostreamIwSt11char_traitsIwEE
0082afcc   _ZTISt13runtime_error
0082b0b4   _ZTISt15basic_streambufIcSt11char_traitsIcEE
0082b0bc   _ZTISt15basic_streambufIwSt11char_traitsIwEE
0082b0c4   _ZTISt5_IosbIiE
0082afd8   _ZTISt5ctypeIcE
0082afe4   _ZTISt5ctypeIwE
0082aff0   _ZTISt7codecvtIcciE
0082affc   _ZTISt7codecvtIwciE
0082b008   _ZTISt7num_putIcSt19ostreambuf_iteratorIcSt11char_traitsIcEEE
0082b014   _ZTISt8ios_base
0082b020   _ZTISt8numpunctIcE
0082b02c   _ZTISt9basic_iosIcSt11char_traitsIcEE
0082b038   _ZTISt9basic_iosIwSt11char_traitsIwEE
0082b0cc   _ZTISt9exception
0082b0d4   _ZTISt9type_info
0082aa68   _ZTSN10__cxxabiv117__class_type_infoE
0082a960   _ZTSN10__cxxabiv120__si_class_type_infoE
0082a938   _ZTSN10__cxxabiv121__vmi_class_type_infoE
0082ada0   _ZTSNSt6locale5facetE
0082ad88   _ZTSNSt6locale7_LocimpE
0082ad48   _ZTSNSt8ios_base7failureE
0082b300   _ZTSSi
0082b308   _ZTSSo
0082af08   _ZTSSt10ctype_base
0082ae48   _ZTSSt11logic_error
0082add0   _ZTSSt12codecvt_base
0082ade8   _ZTSSt12length_error
0082ae00   _ZTSSt12out_of_range
0082a898   _ZTSSt13basic_filebufIcSt11char_traitsIcEE
0082a8c0   _ZTSSt13basic_filebufIwSt11char_traitsIwEE
0082a8e8   _ZTSSt13basic_istreamIwSt11char_traitsIwEE
0082a910   _ZTSSt13basic_ostreamIwSt11char_traitsIwEE
0082adb8   _ZTSSt13runtime_error
0082a7e8   _ZTSSt15basic_streambufIcSt11char_traitsIcEE
0082a818   _ZTSSt15basic_streambufIwSt11char_traitsIwEE
0082b048   _ZTSSt5_IosbIiE
0082b058   _ZTSSt5ctypeIcE
0082b068   _ZTSSt5ctypeIwE
0082ae58   _ZTSSt7codecvtIcciE
0082ae68   _ZTSSt7codecvtIwciE
0082a598   _ZTSSt7num_putIcSt19ostreambuf_iteratorIcSt11char_traitsIcEEE
0082b078   _ZTSSt8ios_base
0082af18   _ZTSSt8numpunctIcE
0082aa90   _ZTSSt9basic_iosIcSt11char_traitsIcEE
0082aab8   _ZTSSt9basic_iosIwSt11char_traitsIwEE
0082af28   _ZTSSt9exception
0082af38   _ZTSSt9type_info
0082a630   _ZTTSi
0082a660   _ZTTSo
0082a690   _ZTTSt13basic_istreamIwSt11char_traitsIwEE
0082a6c0   _ZTTSt13basic_ostreamIwSt11char_traitsIwEE
0082ae78   _ZTVN10__cxxabiv117__class_type_infoE
0082ae88   _ZTVN10__cxxabiv120__si_class_type_infoE
0082ae98   _ZTVN10__cxxabiv121__vmi_class_type_infoE
0082aea8   _ZTVNSt6locale5facetE
0082aeb8   _ZTVNSt6locale7_LocimpE
0082ac58   _ZTVNSt8ios_base7failureE
0082a608   _ZTVSi
0082a638   _ZTVSo
0082aec8   _ZTVSt10ctype_base
0082ac70   _ZTVSt11logic_error
0082abc0   _ZTVSt12codecvt_base
0082ac88   _ZTVSt12length_error
0082aca0   _ZTVSt12out_of_range
0082a3b8   _ZTVSt13basic_filebufIcSt11char_traitsIcEE
0082a400   _ZTVSt13basic_filebufIwSt11char_traitsIwEE
0082a668   _ZTVSt13basic_istreamIwSt11char_traitsIwEE
0082a698   _ZTVSt13basic_ostreamIwSt11char_traitsIwEE
0082acb8   _ZTVSt13runtime_error
0082a448   _ZTVSt15basic_streambufIcSt11char_traitsIcEE
0082a490   _ZTVSt15basic_streambufIwSt11char_traitsIwEE
0082a6c8   _ZTVSt5ctypeIcE
0082a518   _ZTVSt5ctypeIwE
0082a788   _ZTVSt7codecvtIcciE
0082a7b8   _ZTVSt7codecvtIwciE
0082a6f8   _ZTVSt7num_putIcSt19ostreambuf_iteratorIcSt11char_traitsIcEEE
0082aed8   _ZTVSt8ios_base
0082a9b0   _ZTVSt8numpunctIcE
0082aee8   _ZTVSt9basic_iosIcSt11char_traitsIcEE
0082aef8   _ZTVSt9basic_iosIwSt11char_traitsIwEE
0082acd0   _ZTVSt9exception
008230e0   _ZTv0_n12_NSiD0Ev
008251a0   _ZTv0_n12_NSiD1Ev
00823140   _ZTv0_n12_NSoD0Ev
008251e0   _ZTv0_n12_NSoD1Ev
008231a0   _ZTv0_n12_NSt13basic_istreamIwSt11char_traitsIwEED0Ev
00825220   _ZTv0_n12_NSt13basic_istreamIwSt11char_traitsIwEED1Ev
00823200   _ZTv0_n12_NSt13basic_ostreamIwSt11char_traitsIwEED0Ev
00825260   _ZTv0_n12_NSt13basic_ostreamIwSt11char_traitsIwEED1Ev
0082b310   _ZZNKSt7num_putIcSt19ostreambuf_iteratorIcSt11char_traitsIcEEE5_FputES3_RSt8ios_basecPKcjjjjEs
0082b318   _ZZNKSt7num_putIcSt19ostreambuf_iteratorIcSt11char_traitsIcEEE5_FputES3_RSt8ios_basecPKcjjjjEs_0
0082b2d8   _ZZNKSt7num_putIcSt19ostreambuf_iteratorIcSt11char_traitsIcEEE6do_putES3_RSt8ios_basecPKvEs
0082b2e0   _ZZNKSt7num_putIcSt19ostreambuf_iteratorIcSt11char_traitsIcEEE6do_putES3_RSt8ios_baseclEs
0082b2e8   _ZZNKSt7num_putIcSt19ostreambuf_iteratorIcSt11char_traitsIcEEE6do_putES3_RSt8ios_basecmEs
0082b2f0   _ZZNKSt7num_putIcSt19ostreambuf_iteratorIcSt11char_traitsIcEEE6do_putES3_RSt8ios_basecxEs
0082b2f8   _ZZNKSt7num_putIcSt19ostreambuf_iteratorIcSt11char_traitsIcEEE6do_putES3_RSt8ios_basecyEs
0082b110   _ZZNKSt8_Locinfo8_GettrueEvEs
0082b108   _ZZNKSt8_Locinfo9_GetfalseEvEs
00827180   _ZdaPv
00827180   _ZdlPv
0081e0c0   _Znaj
0081e0c0   _Znwj
008271a0   _ZnwjPv
00800000   __ASM__
008302a0   __CIOBUF_
00823260   __FDtest
00800060   __ISA__
00800078   __PLAT__
008000a0   __TARG__
00830d48   __TI_CINIT_Base
00830d80   __TI_CINIT_Limit
00830d1c   __TI_Handler_Table_Base
00830d28   __TI_Handler_Table_Limit
00830600   __TI_INITARRAY_Base
00830648   __TI_INITARRAY_Limit
0082f670   __TI_STACK_END
00002000   __TI_STACK_SIZE
00830648   __TI_STATIC_BASE
00000001   __TI_args_main
008193a0   __TI_buff_read
0081fa80   __TI_cleanup
00830234   __TI_cleanup_ptr
008194e0   __TI_closefile
008273e0   __TI_decompress_none
00827400   __TI_decompress_rle24
0081e180   __TI_doflush
00830238   __TI_dtors_ptr
0083023c   __TI_enable_exit_profile_output
008232c0   __TI_frcmpyd_div
00830270   __TI_ft_end
ffffffff   __TI_pprof_out_hndl
0080e480   __TI_printfi
ffffffff   __TI_prof_data_size
ffffffff   __TI_prof_data_start
0081e240   __TI_rd_ok
00821200   __TI_readmsg
0082d460   __TI_tmpnams
00821280   __TI_writemsg
0081ba60   __TI_wrt_ok
0081d000   __TI_zero_init
008000c8   __TRDR__
ffffffff   __binit__
00809900   __c6xabi_divd
00811460   __c6xabi_divf
0081cd60   __c6xabi_divi
0081e300   __c6xabi_divu
008150e0   __c6xabi_divul
00812c60   __c6xabi_divull
008271c0   __c6xabi_errno_addr
00821300   __c6xabi_fixfu
008252a0   __c6xabi_isinf
00821380   __c6xabi_llshl
00823320   __c6xabi_llshru
0081e3c0   __c6xabi_remi
0081fb20   __c6xabi_remu
00821400   __c6xabi_roundf
008271e0   __c6xabi_truncf
ffffffff   __c_args__
00827200   __cxa_atexit
0081cc80   __cxa_finalize
00827220   __cxa_guard_acquire
00827240   __cxa_guard_release
00827260   __cxa_ia64_exit
00823380   __cxa_vec_ctor
008233e0   __cxa_vec_new
0081cd60   __divi
0081e300   __divu
0083065c   __dso_handle
00830278   __errno
00827280   __memzero
0081e3c0   __remi
0081fb20   __remu
00823440   __sti___11_locale0_cpp_36e19383
0080dae0   __sti___11_wlocale_cpp_3b9bd5f7
008116e0   __sti___12_iostream_cpp_b004430c
00813e60   __sti___12_wiostrea_cpp_9fa80e7a
0081445c   __sti___13_lteSystem_cpp_g_nUsers
00802a10   __sti___17_blasFunctions_cpp_8614878c
008014d8   __sti___17_dynamicMemory_cpp_f848a02c
00805b0c   __sti___18_pipdScheduling_cpp_a1e6c5a3
008037d8   __sti___19_lapackFunctions_cpp_4deb6974
0080b5b0   __sti___20_displayFunctions_cpp_dbd75e48
0080ec54   __sti___20_greedyScheduling_cpp_b8e1509e
00817b0c   __sti___20_memoryManagement_cpp_bbe36996
00811b84   __sti___20_randomScheduling_cpp_1a9b9836
008041d0   __sti___22_frameworkFunctions_cpp_ce0052a8
0081e540   __sti___22_globalDeclarations_cpp_286f88f8
00806a44   __sti___22_succprojScheduling_cpp_87bf4a20
0080cb28   __sti___23_supportingFunctions_cpp_fd751b3a
0081beec   __sti___24_schedulingAlgorithms_cpp_fc6d3ca0
008272a0   __xdc__init
0082f86c   __xdc__init__addr
00825320   _args_main
00000000   _argsize
00819620   _auto_init_elf
0081fbc0   _c_int00
0082a0f8   _ctypes_
0082f870   _ftable
0083025c   _lock
00830288   _new_handler
008272c0   _nop
00827340   _register_lock
00827360   _register_unlock
0082d670   _stack
008234a0   _subcull
0083026c   _unlock
008273a0   abort
008273c0   atexit
0081bd60   atoi
ffffffff   binit
00830684   bufferHeap
008235c0   calloc
00814310   channelUpdate
0083066c   clock0
00830670   clock1
00821728   clockISRA
00821758   clockISRB
0081cf20   close
00814424   displaySchedulerInfo
0082d2cc   dlConfig
00830658   dynamicMemory
00830278   errno
0081e480   exit
00821500   fclose
00819760   fflush
008198a0   fgetc
00823620   fgetpos
00827420   fgetwc
00814080   fputc
0080ecc0   fputs
00827440   fputwc
008253e0   free
00816760   frexpf
0081abc0   fseek
00827460   fsetpos
0081ace0   ftell
0080dfe0   fwrite
00830664   g_nReceive
00830666   g_nSchedBlocks
00830662   g_nTransmit
00830660   g_nUsers
0c0ffff0   globalChannelMatrix
00817880   ldexpf
00827480   localeconv
00823680   lseek
008142a0   lteSystemInit
0081d0e0   ltoa
00821700   main
00821600   malloc
00825420   mbrtowc
00825460   mbtowc
008236e0   memccpy
00823740   memchr
0081fe40   memcpy
008237a0   memmove
0081d1c0   memset
00823800   modff
00808000   powf
0081d2a0   printf
00821680   rand
00830680   reInitSystem
00823860   read
00821c00   remove
0083068c   schedDispSem
008143d4   schedulingForCurrentSF
008238c0   setlocale
00813320   setvbuf
00823920   sprintf
0081ae00   sqrtf
00823980   strcmp
008239e0   strcspn
008254a0   strlen
00830674   swiHandleA
00830678   swiHandleB
0082d450   sysConfig
0083067c   task0
00830688   task1
0082f670   ti_sysbios_BIOS_Module__state__V
008274a0   ti_sysbios_BIOS_RtsGateProxy_enter__E
008274c0   ti_sysbios_BIOS_RtsGateProxy_leave__E
008276e0   ti_sysbios_BIOS_RtsGateProxy_query__E
00823a40   ti_sysbios_BIOS_atExitFunc__I
00823aa0   ti_sysbios_BIOS_errorRaiseHook__I
008254e0   ti_sysbios_BIOS_exitFunc__I
008274e0   ti_sysbios_BIOS_nullFunc__I
00823b00   ti_sysbios_BIOS_registerRTSLock__I
00823b60   ti_sysbios_BIOS_removeRTSLock__I
00825520   ti_sysbios_BIOS_rtsLock__I
00823bc0   ti_sysbios_BIOS_rtsUnlock__I
00827500   ti_sysbios_BIOS_setThreadType__E
00825560   ti_sysbios_BIOS_startFunc__I
00827520   ti_sysbios_BIOS_start__E
00827540   ti_sysbios_family_c62_TaskSupport_Module__startupDone__S
008253a0   ti_sysbios_family_c62_TaskSupport_buildTaskStack
00827560   ti_sysbios_family_c62_TaskSupport_checkStack__E
00827380   ti_sysbios_family_c62_TaskSupport_glue
00821780   ti_sysbios_family_c62_TaskSupport_start__E
00821480   ti_sysbios_family_c62_TaskSupport_swap__E
0082a7b4   ti_sysbios_family_c64p_Exception_E_exceptionMax__C
0082921a   ti_sysbios_family_c64p_Exception_Module__id__C
0082f694   ti_sysbios_family_c64p_Exception_Module__state__V
0081fee0   ti_sysbios_family_c64p_Exception_Module_startup__E
00817b80   ti_sysbios_family_c64p_Exception_dispatch__E
0082a7e4   ti_sysbios_family_c64p_Exception_exceptionHook__C
0082a814   ti_sysbios_family_c64p_Exception_externalHook__C
00806aa0   ti_sysbios_family_c64p_Exception_handler__I
00813560   ti_sysbios_family_c64p_Exception_internalHandler__I
0082a894   ti_sysbios_family_c64p_Exception_internalHook__C
0082a9ac   ti_sysbios_family_c64p_Exception_nmiHook__C
00829f8a   ti_sysbios_family_c64p_Exception_useInternalBuffer__C
00830400   ti_sysbios_family_c64p_Hwi0
0082aa64   ti_sysbios_family_c64p_Hwi_LD_end__C
0082aa8c   ti_sysbios_family_c64p_Hwi_LM_begin__C
0082aab4   ti_sysbios_family_c64p_Hwi_Module__diagsEnabled__C
0082abbc   ti_sysbios_family_c64p_Hwi_Module__diagsIncluded__C
0082ac54   ti_sysbios_family_c64p_Hwi_Module__diagsMask__C
0082a1fa   ti_sysbios_family_c64p_Hwi_Module__id__C
0082a5d2   ti_sysbios_family_c64p_Hwi_Module__loggerDefined__C
0082ad9c   ti_sysbios_family_c64p_Hwi_Module__loggerFxn1__C
0082adb4   ti_sysbios_family_c64p_Hwi_Module__loggerFxn8__C
0082adcc   ti_sysbios_family_c64p_Hwi_Module__loggerObj__C
0082f6c4   ti_sysbios_family_c64p_Hwi_Module__root__V
008255a0   ti_sysbios_family_c64p_Hwi_Module__startupDone__F
008255a0   ti_sysbios_family_c64p_Hwi_Module__startupDone__S
0082f6cc   ti_sysbios_family_c64p_Hwi_Module__state__V
00819b20   ti_sysbios_family_c64p_Hwi_Module_startup__E
008301e8   ti_sysbios_family_c64p_Hwi_Object__table__V
00827580   ti_sysbios_family_c64p_Hwi_clearInterrupt__E
008255e0   ti_sysbios_family_c64p_Hwi_disableInterrupt__E
00814b00   ti_sysbios_family_c64p_Hwi_dispatchAlways
00821800   ti_sysbios_family_c64p_Hwi_dispatchC__I
00812300   ti_sysbios_family_c64p_Hwi_dispatchCore__I
00825620   ti_sysbios_family_c64p_Hwi_enableInterrupt__E
00821880   ti_sysbios_family_c64p_Hwi_getStackInfo__E
00830400   ti_sysbios_family_c64p_Hwi_int0
00830420   ti_sysbios_family_c64p_Hwi_int1
00830540   ti_sysbios_family_c64p_Hwi_int10
00830560   ti_sysbios_family_c64p_Hwi_int11
00830580   ti_sysbios_family_c64p_Hwi_int12
008305a0   ti_sysbios_family_c64p_Hwi_int13
008305c0   ti_sysbios_family_c64p_Hwi_int14
008305e0   ti_sysbios_family_c64p_Hwi_int15
00830440   ti_sysbios_family_c64p_Hwi_int2
00830460   ti_sysbios_family_c64p_Hwi_int3
00830480   ti_sysbios_family_c64p_Hwi_int4
008304a0   ti_sysbios_family_c64p_Hwi_int5
008304c0   ti_sysbios_family_c64p_Hwi_int6
008304e0   ti_sysbios_family_c64p_Hwi_int7
00830500   ti_sysbios_family_c64p_Hwi_int8
00830520   ti_sysbios_family_c64p_Hwi_int9
008275a0   ti_sysbios_family_c64p_Hwi_startup__E
00823500   ti_sysbios_family_c64p_Hwi_switchAndDispatch__I
008275c0   ti_sysbios_family_c64p_Hwi_switchFromBootStack__E
008275e0   ti_sysbios_family_c64p_TimestampProvider_Module_startup__E
00827600   ti_sysbios_family_c64p_TimestampProvider_get64__E
00827620   ti_sysbios_family_c64p_tci6488_TimerSupport_enable__E
00819c60   ti_sysbios_family_c66_Cache_Module_startup__E
0082b084   ti_sysbios_family_c66_Cache_initSize__C
00829738   ti_sysbios_family_c66_Cache_marvalues__C
00823560   ti_sysbios_family_xxx_Hwi_switchAndRunFunc
00825660   ti_sysbios_gates_GateHwi_Handle__label__S
00827640   ti_sysbios_gates_GateHwi_Instance_init__E
0082a9d4   ti_sysbios_gates_GateHwi_Module__FXNS__C
0082f734   ti_sysbios_gates_GateHwi_Module__root__V
0082aafc   ti_sysbios_gates_GateHwi_Object__DESC__C
0082ace8   ti_sysbios_gates_GateHwi_Object__PARAMS__C
00823c20   ti_sysbios_gates_GateHwi_Object__create__S
008256a0   ti_sysbios_gates_GateHwi_Object__delete__S
00830290   ti_sysbios_gates_GateHwi_Object__table__V
00827660   ti_sysbios_gates_GateHwi_enter__E
00827680   ti_sysbios_gates_GateHwi_leave__E
008276a0   ti_sysbios_gates_GateHwi_query__E
0082ade4   ti_sysbios_gates_GateMutex_A_badContext__C
008256e0   ti_sysbios_gates_GateMutex_Handle__label__S
0082adfc   ti_sysbios_gates_GateMutex_Instance_State_sem__O
008276c0   ti_sysbios_gates_GateMutex_Instance_finalize__E
00825720   ti_sysbios_gates_GateMutex_Instance_init__E
0082a9f8   ti_sysbios_gates_GateMutex_Module__FXNS__C
0082ae44   ti_sysbios_gates_GateMutex_Module__diagsEnabled__C
0082b044   ti_sysbios_gates_GateMutex_Module__diagsIncluded__C
0082b054   ti_sysbios_gates_GateMutex_Module__diagsMask__C
0082a812   ti_sysbios_gates_GateMutex_Module__id__C
0082f73c   ti_sysbios_gates_GateMutex_Module__root__V
0082ab1c   ti_sysbios_gates_GateMutex_Object__DESC__C
0082ad00   ti_sysbios_gates_GateMutex_Object__PARAMS__C
00823c80   ti_sysbios_gates_GateMutex_Object__create__S
00825760   ti_sysbios_gates_GateMutex_Object__delete__S
0082ffa0   ti_sysbios_gates_GateMutex_Object__table__V
00816900   ti_sysbios_gates_GateMutex_enter__E
008257a0   ti_sysbios_gates_GateMutex_leave__E
008276e0   ti_sysbios_gates_GateMutex_query__E
0082b064   ti_sysbios_hal_Hwi_E_stackOverflow__C
00827700   ti_sysbios_hal_Hwi_HwiProxy_Module__startupDone__S
00827580   ti_sysbios_hal_Hwi_HwiProxy_clearInterrupt__E
008255e0   ti_sysbios_hal_Hwi_HwiProxy_disableInterrupt__E
00825620   ti_sysbios_hal_Hwi_HwiProxy_enableInterrupt__E
00821880   ti_sysbios_hal_Hwi_HwiProxy_getStackInfo__E
008275a0   ti_sysbios_hal_Hwi_HwiProxy_startup__E
008275c0   ti_sysbios_hal_Hwi_HwiProxy_switchFromBootStack__E
0082a842   ti_sysbios_hal_Hwi_Module__id__C
0082f744   ti_sysbios_hal_Hwi_Module__root__V
00827720   ti_sysbios_hal_Hwi_Module_startup__E
00830260   ti_sysbios_hal_Hwi_Object__table__V
00821900   ti_sysbios_hal_Hwi_checkStack
00821980   ti_sysbios_hal_Hwi_initStack
0082b074   ti_sysbios_heaps_HeapMem_A_align__C
0082b0ec   ti_sysbios_heaps_HeapMem_A_heapSize__C
0082b118   ti_sysbios_heaps_HeapMem_A_invalidFree__C
0082b11c   ti_sysbios_heaps_HeapMem_A_zeroBlock__C
0082b120   ti_sysbios_heaps_HeapMem_E_memory__C
008257e0   ti_sysbios_heaps_HeapMem_Handle__label__S
0c000000   ti_sysbios_heaps_HeapMem_Instance_State_0_buf__A
0c07fff8   ti_sysbios_heaps_HeapMem_Instance_State_1_buf__A
0080f680   ti_sysbios_heaps_HeapMem_Instance_init__E
00827740   ti_sysbios_heaps_HeapMem_Module_GateProxy_enter__E
00827760   ti_sysbios_heaps_HeapMem_Module_GateProxy_leave__E
008276e0   ti_sysbios_heaps_HeapMem_Module_GateProxy_query__E
0082a844   ti_sysbios_heaps_HeapMem_Module__FXNS__C
0082b124   ti_sysbios_heaps_HeapMem_Module__diagsEnabled__C
0082b128   ti_sysbios_heaps_HeapMem_Module__diagsIncluded__C
0082b12c   ti_sysbios_heaps_HeapMem_Module__diagsMask__C
0082b130   ti_sysbios_heaps_HeapMem_Module__gateObj__C
0082a95e   ti_sysbios_heaps_HeapMem_Module__id__C
0082f74c   ti_sysbios_heaps_HeapMem_Module__root__V
0082ab3c   ti_sysbios_heaps_HeapMem_Object__DESC__C
0082aa1c   ti_sysbios_heaps_HeapMem_Object__PARAMS__C
0082b134   ti_sysbios_heaps_HeapMem_Object__count__C
00823ce0   ti_sysbios_heaps_HeapMem_Object__create__S
00825820   ti_sysbios_heaps_HeapMem_Object__delete__S
00825860   ti_sysbios_heaps_HeapMem_Object__get__S
00830118   ti_sysbios_heaps_HeapMem_Object__table__V
00808680   ti_sysbios_heaps_HeapMem_alloc__E
0080a4e0   ti_sysbios_heaps_HeapMem_free__E
0081e600   ti_sysbios_heaps_HeapMem_getStats__E
0081ff80   ti_sysbios_heaps_HeapMem_init__I
00827780   ti_sysbios_heaps_HeapMem_isBlocking__E
0082b138   ti_sysbios_heaps_HeapMem_reqAlign__C
0082b13c   ti_sysbios_knl_Clock_LM_begin__C
0082b140   ti_sysbios_knl_Clock_LM_tick__C
0082b144   ti_sysbios_knl_Clock_LW_delayed__C
0082b148   ti_sysbios_knl_Clock_Module_State_clockQ__O
0082b14c   ti_sysbios_knl_Clock_Module__diagsEnabled__C
0082b150   ti_sysbios_knl_Clock_Module__diagsIncluded__C
0082b154   ti_sysbios_knl_Clock_Module__diagsMask__C
0082a986   ti_sysbios_knl_Clock_Module__id__C
0082aa8a   ti_sysbios_knl_Clock_Module__loggerDefined__C
0082b158   ti_sysbios_knl_Clock_Module__loggerFxn1__C
0082b15c   ti_sysbios_knl_Clock_Module__loggerFxn2__C
0082b160   ti_sysbios_knl_Clock_Module__loggerObj__C
0082f754   ti_sysbios_knl_Clock_Module__root__V
0082f75c   ti_sysbios_knl_Clock_Module__state__V
00823d40   ti_sysbios_knl_Clock_Module_startup__E
0082ffe0   ti_sysbios_knl_Clock_Object__table__V
008277a0   ti_sysbios_knl_Clock_TimerProxy_Module__startupDone__S
008277c0   ti_sysbios_knl_Clock_TimerProxy_getMaxTicks__E
0081d460   ti_sysbios_knl_Clock_TimerProxy_startup__E
00823da0   ti_sysbios_knl_Clock_doTick__I
0081e6c0   ti_sysbios_knl_Clock_logTick__E
00810f40   ti_sysbios_knl_Clock_workFunc__E
0082b168   ti_sysbios_knl_Idle_funcList__A
0082b0e4   ti_sysbios_knl_Idle_funcList__C
008277e0   ti_sysbios_knl_Idle_loop__E
00821a00   ti_sysbios_knl_Idle_run__E
00827800   ti_sysbios_knl_Queue_Instance_init__E
0082f788   ti_sysbios_knl_Queue_Module__root__V
0082ab5c   ti_sysbios_knl_Queue_Object__DESC__C
0082ad18   ti_sysbios_knl_Queue_Object__PARAMS__C
008258a0   ti_sysbios_knl_Queue_Object__destruct__S
00827820   ti_sysbios_knl_Queue_Object__get__S
00823e00   ti_sysbios_knl_Queue_construct
00827840   ti_sysbios_knl_Queue_destruct
00827860   ti_sysbios_knl_Queue_empty__E
0082b164   ti_sysbios_knl_Semaphore_A_badContext__C
0082b16c   ti_sysbios_knl_Semaphore_A_noEvents__C
0082b170   ti_sysbios_knl_Semaphore_A_overflow__C
0082b174   ti_sysbios_knl_Semaphore_A_pendTaskDisabled__C
0082b178   ti_sysbios_knl_Semaphore_Instance_State_pendQ__O
00827880   ti_sysbios_knl_Semaphore_Instance_finalize__E
00819da0   ti_sysbios_knl_Semaphore_Instance_init__E
0082b17c   ti_sysbios_knl_Semaphore_LM_pend__C
0082b180   ti_sysbios_knl_Semaphore_LM_post__C
0082b184   ti_sysbios_knl_Semaphore_Module__diagsEnabled__C
0082b188   ti_sysbios_knl_Semaphore_Module__diagsIncluded__C
0082b18c   ti_sysbios_knl_Semaphore_Module__diagsMask__C
0082aab2   ti_sysbios_knl_Semaphore_Module__id__C
0082aada   ti_sysbios_knl_Semaphore_Module__loggerDefined__C
0082b190   ti_sysbios_knl_Semaphore_Module__loggerFxn2__C
0082b194   ti_sysbios_knl_Semaphore_Module__loggerFxn4__C
0082b198   ti_sysbios_knl_Semaphore_Module__loggerObj__C
0082f790   ti_sysbios_knl_Semaphore_Module__root__V
0082ab7c   ti_sysbios_knl_Semaphore_Object__DESC__C
0082aa40   ti_sysbios_knl_Semaphore_Object__PARAMS__C
008258e0   ti_sysbios_knl_Semaphore_Object__destruct__S
00830148   ti_sysbios_knl_Semaphore_Object__table__V
00823e60   ti_sysbios_knl_Semaphore_construct
008278a0   ti_sysbios_knl_Semaphore_destruct
00823ec0   ti_sysbios_knl_Semaphore_pendTimeout__I
00807220   ti_sysbios_knl_Semaphore_pend__E
008137a0   ti_sysbios_knl_Semaphore_post__E
0082b19c   ti_sysbios_knl_Swi_LD_end__C
0082b1a0   ti_sysbios_knl_Swi_LM_begin__C
0082b1a4   ti_sysbios_knl_Swi_LM_post__C
0082fd28   ti_sysbios_knl_Swi_Module_State_0_readyQ__A
0082b1a8   ti_sysbios_knl_Swi_Module__diagsEnabled__C
0082b1ac   ti_sysbios_knl_Swi_Module__diagsIncluded__C
0082b1b0   ti_sysbios_knl_Swi_Module__diagsMask__C
0082ad5e   ti_sysbios_knl_Swi_Module__id__C
0082adb2   ti_sysbios_knl_Swi_Module__loggerDefined__C
0082b1b4   ti_sysbios_knl_Swi_Module__loggerFxn1__C
0082b1b8   ti_sysbios_knl_Swi_Module__loggerFxn4__C
0082b1bc   ti_sysbios_knl_Swi_Module__loggerObj__C
0082f798   ti_sysbios_knl_Swi_Module__root__V
0082f7a0   ti_sysbios_knl_Swi_Module__state__V
00823f20   ti_sysbios_knl_Swi_Module_startup__E
0082b1c0   ti_sysbios_knl_Swi_Object__count__C
00825920   ti_sysbios_knl_Swi_Object__get__S
0082fc98   ti_sysbios_knl_Swi_Object__table__V
008278c0   ti_sysbios_knl_Swi_disable__E
00819ee0   ti_sysbios_knl_Swi_post__E
0081bf60   ti_sysbios_knl_Swi_restoreHwi__E
0081d380   ti_sysbios_knl_Swi_runLoop__I
008144c0   ti_sysbios_knl_Swi_run__I
0081e780   ti_sysbios_knl_Swi_schedule__I
00821a80   ti_sysbios_knl_Swi_startup__E
0082b1c4   ti_sysbios_knl_Task_E_spOutOfBounds__C
0082b1c8   ti_sysbios_knl_Task_E_stackOverflow__C
0082b320   ti_sysbios_knl_Task_Instance_State_0_stack__A
0082bb20   ti_sysbios_knl_Task_Instance_State_1_stack__A
0082c320   ti_sysbios_knl_Task_Instance_State_2_stack__A
0082b1cc   ti_sysbios_knl_Task_LD_block__C
0082b1d0   ti_sysbios_knl_Task_LD_exit__C
0082b1d4   ti_sysbios_knl_Task_LD_ready__C
0082b1d8   ti_sysbios_knl_Task_LM_switch__C
00830298   ti_sysbios_knl_Task_Module_State_0_idleTask__A
0082fda8   ti_sysbios_knl_Task_Module_State_0_readyQ__A
0082b1dc   ti_sysbios_knl_Task_Module_State_inactiveQ__O
0082b1e0   ti_sysbios_knl_Task_Module__diagsEnabled__C
0082b1e4   ti_sysbios_knl_Task_Module__diagsIncluded__C
0082b1e8   ti_sysbios_knl_Task_Module__diagsMask__C
0082adca   ti_sysbios_knl_Task_Module__id__C
0082ade2   ti_sysbios_knl_Task_Module__loggerDefined__C
0082b1ec   ti_sysbios_knl_Task_Module__loggerFxn2__C
0082b1f0   ti_sysbios_knl_Task_Module__loggerFxn4__C
0082b1f4   ti_sysbios_knl_Task_Module__loggerObj__C
0082f7bc   ti_sysbios_knl_Task_Module__root__V
0082f7c4   ti_sysbios_knl_Task_Module__state__V
0080f960   ti_sysbios_knl_Task_Module_startup__E
0082b1f8   ti_sysbios_knl_Task_Object__count__C
00825960   ti_sysbios_knl_Task_Object__get__S
0082fa50   ti_sysbios_knl_Task_Object__table__V
008278e0   ti_sysbios_knl_Task_SupportProxy_Module__startupDone__S
00827560   ti_sysbios_knl_Task_SupportProxy_checkStack__E
00821780   ti_sysbios_knl_Task_SupportProxy_start__E
00821480   ti_sysbios_knl_Task_SupportProxy_swap__E
0082b1fc   ti_sysbios_knl_Task_allBlockedFunc__C
0081e840   ti_sysbios_knl_Task_allBlockedFunction__I
0081a020   ti_sysbios_knl_Task_blockI__E
00815d60   ti_sysbios_knl_Task_checkStacks__E
00827900   ti_sysbios_knl_Task_disable__E
00823f80   ti_sysbios_knl_Task_enter__I
00817d00   ti_sysbios_knl_Task_exit__E
0082adfa   ti_sysbios_knl_Task_initStackFlag__C
0082b200   ti_sysbios_knl_Task_numConstructedTasks__C
00821b00   ti_sysbios_knl_Task_restore__E
00816aa0   ti_sysbios_knl_Task_schedule__I
00817e80   ti_sysbios_knl_Task_startCore__E
00827920   ti_sysbios_knl_Task_startup__E
0081c060   ti_sysbios_knl_Task_unblockI__E
0082b204   ti_sysbios_timers_timer64_Timer_A_notAvailable__C
0082b208   ti_sysbios_timers_timer64_Timer_E_cannotSupport__C
0082fb38   ti_sysbios_timers_timer64_Timer_Module_State_0_device__A
00830020   ti_sysbios_timers_timer64_Timer_Module_State_0_gctrl__A
00830060   ti_sysbios_timers_timer64_Timer_Module_State_0_handles__A
008300a0   ti_sysbios_timers_timer64_Timer_Module_State_0_intFreqs__A
0082b20c   ti_sysbios_timers_timer64_Timer_Module__diagsEnabled__C
0082b210   ti_sysbios_timers_timer64_Timer_Module__diagsIncluded__C
0082b214   ti_sysbios_timers_timer64_Timer_Module__diagsMask__C
0082ae12   ti_sysbios_timers_timer64_Timer_Module__id__C
0082f808   ti_sysbios_timers_timer64_Timer_Module__root__V
008259a0   ti_sysbios_timers_timer64_Timer_Module__startupDone__F
008259a0   ti_sysbios_timers_timer64_Timer_Module__startupDone__S
0082f810   ti_sysbios_timers_timer64_Timer_Module__state__V
00807960   ti_sysbios_timers_timer64_Timer_Module_startup__E
0082ff08   ti_sysbios_timers_timer64_Timer_Object__table__V
00827620   ti_sysbios_timers_timer64_Timer_TimerSupportProxy_enable__E
0082b218   ti_sysbios_timers_timer64_Timer_anyMaskHigh__C
0082b21c   ti_sysbios_timers_timer64_Timer_anyMask__C
0080fc40   ti_sysbios_timers_timer64_Timer_deviceConfig__I
0082b220   ti_sysbios_timers_timer64_Timer_freqDivisor__C
008152c0   ti_sysbios_timers_timer64_Timer_getFreq__E
00827940   ti_sysbios_timers_timer64_Timer_getMaxTicks__E
0081c160   ti_sysbios_timers_timer64_Timer_initDevice__I
00829219   ti_sysbios_timers_timer64_Timer_localTimerBaseId__C
0082b224   ti_sysbios_timers_timer64_Timer_numLocalTimers__C
0082b228   ti_sysbios_timers_timer64_Timer_numTimerDevices__C
008146e0   ti_sysbios_timers_timer64_Timer_setPeriodMicroSecs__E
00816c40   ti_sysbios_timers_timer64_Timer_start__E
0082ae32   ti_sysbios_timers_timer64_Timer_startupNeeded__C
0081d460   ti_sysbios_timers_timer64_Timer_startup__E
0081e900   ti_sysbios_timers_timer64_Timer_stop__E
0082af36   ti_sysbios_timers_timer64_Timer_useTimer64pRegMap__C
00827960   tolower
00827980   toupper
0081a160   ungetc
00821b80   ungetwc
00821c00   unlink
008259e0   wcrtomb
008279a0   wctomb
00820020   wmemcpy
00823fe0   write
0082b22c   xdc_runtime_Assert_E_assertFailed__C
008200c0   xdc_runtime_Assert_raise__I
0082b230   xdc_runtime_Core_A_initializedParams__C
0082b234   xdc_runtime_Core_Module__diagsEnabled__C
0082b238   xdc_runtime_Core_Module__diagsIncluded__C
0082b23c   xdc_runtime_Core_Module__diagsMask__C
0082af46   xdc_runtime_Core_Module__id__C
00821c80   xdc_runtime_Core_assignLabel__I
00821d00   xdc_runtime_Core_assignParams__I
00818000   xdc_runtime_Core_constructObject__I
008139e0   xdc_runtime_Core_createObject__I
0081c260   xdc_runtime_Core_deleteObject__I
0082b240   xdc_runtime_Error_E_memory__C
0082b244   xdc_runtime_Error_Module__diagsEnabled__C
0082b248   xdc_runtime_Error_Module__diagsIncluded__C
0082b24c   xdc_runtime_Error_Module__diagsMask__C
0082b09a   xdc_runtime_Error_Module__loggerDefined__C
0082b250   xdc_runtime_Error_Module__loggerFxn8__C
0082b254   xdc_runtime_Error_Module__loggerObj__C
0082f828   xdc_runtime_Error_Module__state__V
00825a20   xdc_runtime_Error_check__E
00825a60   xdc_runtime_Error_init__E
0082b10e   xdc_runtime_Error_maxDepth__C
00814d00   xdc_runtime_Error_policyDefault__E
0082b258   xdc_runtime_Error_policyFxn__C
0082b25c   xdc_runtime_Error_policy__C
0081d540   xdc_runtime_Error_print__E
0082b260   xdc_runtime_Error_raiseHook__C
00825aa0   xdc_runtime_Error_raiseX__E
0081e9c0   xdc_runtime_Error_setX__E
008279c0   xdc_runtime_Gate_enterSystem__E
00825ae0   xdc_runtime_Gate_leaveSystem__E
0082b264   xdc_runtime_IFilterLogger_Interface__BASE__C
0082b268   xdc_runtime_IGateProvider_Interface__BASE__C
0082b26c   xdc_runtime_IHeap_Interface__BASE__C
0082b270   xdc_runtime_ILogger_Interface__BASE__C
0082b274   xdc_runtime_IModule_Interface__BASE__C
0082b278   xdc_runtime_Log_L_error__C
0082b27c   xdc_runtime_LoggerBuf_E_badLevel__C
00825b20   xdc_runtime_LoggerBuf_Handle__label__S
0082cb20   xdc_runtime_LoggerBuf_Instance_State_0_entryArr__A
00825b60   xdc_runtime_LoggerBuf_Instance_finalize__E
0081ea80   xdc_runtime_LoggerBuf_Instance_init__E
00827a20   xdc_runtime_LoggerBuf_Module_GateProxy_enter__E
00827a40   xdc_runtime_LoggerBuf_Module_GateProxy_leave__E
008276a0   xdc_runtime_LoggerBuf_Module_GateProxy_query__E
0082a558   xdc_runtime_LoggerBuf_Module__FXNS__C
0082b280   xdc_runtime_LoggerBuf_Module__gateObj__C
0082b116   xdc_runtime_LoggerBuf_Module__id__C
0082f82c   xdc_runtime_LoggerBuf_Module__root__V
0082f834   xdc_runtime_LoggerBuf_Module__state__V
00820160   xdc_runtime_LoggerBuf_Module_startup__E
0082ab9c   xdc_runtime_LoggerBuf_Object__DESC__C
0082a86c   xdc_runtime_LoggerBuf_Object__PARAMS__C
0082b284   xdc_runtime_LoggerBuf_Object__count__C
0081eb40   xdc_runtime_LoggerBuf_Object__create__S
00825ba0   xdc_runtime_LoggerBuf_Object__delete__S
00825be0   xdc_runtime_LoggerBuf_Object__get__S
008301a0   xdc_runtime_LoggerBuf_Object__table__V
00827600   xdc_runtime_LoggerBuf_TimestampProxy_get64__E
00827a60   xdc_runtime_LoggerBuf_disable__E
00827a80   xdc_runtime_LoggerBuf_enable__E
0082b2d4   xdc_runtime_LoggerBuf_filterByLevel__C
00821d80   xdc_runtime_LoggerBuf_filterOutEvent__I
0081c360   xdc_runtime_LoggerBuf_getFilterLevel__E
0081af20   xdc_runtime_LoggerBuf_setFilterLevel__E
0082b288   xdc_runtime_LoggerBuf_statusLogger__C
00825c20   xdc_runtime_LoggerBuf_write0__E
00825c60   xdc_runtime_LoggerBuf_write1__E
00825ca0   xdc_runtime_LoggerBuf_write2__E
00816de0   xdc_runtime_LoggerBuf_write4__E
00813c20   xdc_runtime_LoggerBuf_write8__E
008276a0   xdc_runtime_Main_Module_GateProxy_query__E
00827aa0   xdc_runtime_Memory_HeapProxy_alloc__E
00827ac0   xdc_runtime_Memory_HeapProxy_free__E
0082b2d6   xdc_runtime_Memory_Module__id__C
0082f83c   xdc_runtime_Memory_Module__state__V
0081d620   xdc_runtime_Memory_alloc__E
00824040   xdc_runtime_Memory_calloc__E
0082b28c   xdc_runtime_Memory_defaultHeapInstance__C
00825ce0   xdc_runtime_Memory_free__E
0082f840   xdc_runtime_Registry_Module__state__V
00825d20   xdc_runtime_Registry_findById__E
0082f848   xdc_runtime_Startup_Module__state__V
00000001   xdc_runtime_Startup__EXECFXN__C
00000001   xdc_runtime_Startup__RESETFXN__C
0082b290   xdc_runtime_Startup_execImpl__C
0081c460   xdc_runtime_Startup_exec__E
00827ae0   xdc_runtime_Startup_exec__I
0082b0f0   xdc_runtime_Startup_firstFxns__A
0082b0f8   xdc_runtime_Startup_firstFxns__C
0082b100   xdc_runtime_Startup_lastFxns__C
0082b294   xdc_runtime_Startup_maxPasses__C
00827b00   xdc_runtime_Startup_reset__I
0082ad30   xdc_runtime_Startup_sfxnRts__A
0082b298   xdc_runtime_Startup_sfxnRts__C
0082a728   xdc_runtime_Startup_sfxnTab__A
0082b29c   xdc_runtime_Startup_sfxnTab__C
00812560   xdc_runtime_Startup_startMods__I
0082cd20   xdc_runtime_SysMin_Module_State_0_outbuf__A
0082f850   xdc_runtime_SysMin_Module__state__V
008240a0   xdc_runtime_SysMin_Module_startup__E
00820200   xdc_runtime_SysMin_abort__E
0082b2a0   xdc_runtime_SysMin_bufSize__C
00824100   xdc_runtime_SysMin_exit__E
0082b2dc   xdc_runtime_SysMin_flushAtExit__C
008202a0   xdc_runtime_SysMin_flush__E
0082b2a4   xdc_runtime_SysMin_outputFunc__C
00824160   xdc_runtime_SysMin_output__I
00820340   xdc_runtime_SysMin_putch__E
00827b20   xdc_runtime_SysMin_ready__E
00827b40   xdc_runtime_System_Module_GateProxy_enter__E
00827b60   xdc_runtime_System_Module_GateProxy_leave__E
008276a0   xdc_runtime_System_Module_GateProxy_query__E
00830218   xdc_runtime_System_Module_State_0_atexitHandlers__A
0082b2a8   xdc_runtime_System_Module__gateObj__C
0082f85c   xdc_runtime_System_Module__state__V
00827b80   xdc_runtime_System_Module_startup__E
00820200   xdc_runtime_System_SupportProxy_abort__E
00824100   xdc_runtime_System_SupportProxy_exit__E
008202a0   xdc_runtime_System_SupportProxy_flush__E
00820340   xdc_runtime_System_SupportProxy_putch__E
00827b20   xdc_runtime_System_SupportProxy_ready__E
0082b2ac   xdc_runtime_System_abortFxn__C
008273a0   xdc_runtime_System_abortStd__E
00825d60   xdc_runtime_System_abort__E
00825da0   xdc_runtime_System_aprintf__E
008241c0   xdc_runtime_System_aprintf_va__E
008241c0   xdc_runtime_System_aprintf_va__F
00821e00   xdc_runtime_System_atexit__E
008241c0   xdc_runtime_System_avprintf__E
00804b20   xdc_runtime_System_doPrint__I
0082b2b0   xdc_runtime_System_exitFxn__C
0081e480   xdc_runtime_System_exitStd__E
00825de0   xdc_runtime_System_exit__E
0082b2b4   xdc_runtime_System_extendFxn__C
0081ec00   xdc_runtime_System_formatNum__I
0082b2b8   xdc_runtime_System_maxAtexitHandlers__C
008127c0   xdc_runtime_System_printfExtend__I
00825e20   xdc_runtime_System_printf__E
00824220   xdc_runtime_System_printf_va__E
00824220   xdc_runtime_System_printf_va__F
00821e80   xdc_runtime_System_processAtExit__E
00821f00   xdc_runtime_System_putchar__I
00827ba0   xdc_runtime_System_snprintf_va__E
00827ba0   xdc_runtime_System_snprintf_va__F
00824220   xdc_runtime_System_vprintf__E
00827ba0   xdc_runtime_System_vsnprintf__E
0082f864   xdc_runtime_Text_Module__state__V
0082b2de   xdc_runtime_Text_charCnt__C
00827be0   xdc_runtime_Text_charTab__A
0082b2bc   xdc_runtime_Text_charTab__C
00824280   xdc_runtime_Text_cordText__E
0082b2e4   xdc_runtime_Text_isLoaded__C
0082b2c0   xdc_runtime_Text_nameEmpty__C
0082b2c4   xdc_runtime_Text_nameStatic__C
0082b2c8   xdc_runtime_Text_nameUnknown__C
0082a200   xdc_runtime_Text_nodeTab__A
0082b2cc   xdc_runtime_Text_nodeTab__C
00821f80   xdc_runtime_Text_printVisFxn__I
0081a2a0   xdc_runtime_Text_putLab__E
0081b040   xdc_runtime_Text_putMod__E
00815f20   xdc_runtime_Text_putSite__E
0082b2e6   xdc_runtime_Text_registryModsLastId__C
00825e60   xdc_runtime_Text_ropeText__E
0082b2ec   xdc_runtime_Text_unnamedModsLastId__C
0081c560   xdc_runtime_Text_visitRope2__I
0082b2d0   xdc_runtime_Text_visitRopeFxn__C
00827bc0   xdc_runtime_Text_visitRope__I
008203e0   xdc_runtime_Text_xprintf__I


GLOBAL SYMBOLS: SORTED BY Symbol Address 

address    name
--------   ----
00000000   _argsize
00000001   __TI_args_main
00000001   xdc_runtime_Startup__EXECFXN__C
00000001   xdc_runtime_Startup__RESETFXN__C
00002000   __TI_STACK_SIZE
00800000   _ZN13DynamicMemory12getEmptyListEj
00800000   __ASM__
00800060   __ISA__
00800078   __PLAT__
008000a0   __TARG__
008000c8   __TRDR__
00800280   _ZN13DynamicMemory10clearListsEv
008002d4   _ZN13DynamicMemoryC1Ev
008002d4   _ZN13DynamicMemoryC2Ev
008003ac   _ZN13DynamicMemoryD1Ev
008003ac   _ZN13DynamicMemoryD2Ev
008003e0   _ZN13DynamicMemory16freeMatrixMemoryEP9cmatrix_t
00800440   _ZN13DynamicMemory9getMatrixEtt
00800528   _ZN13DynamicMemory10getMatrixZEtt
008006a8   _ZN13DynamicMemory10getMatrixREP9cmatrix_ttt
008008cc   _ZN13DynamicMemory12updateMatrixEP9cmatrix_ttt
008009b0   _ZN13DynamicMemory13updateMatrixZEP9cmatrix_ttt
00800b2c   _ZN13DynamicMemory13reshapeMatrixEP9cmatrix_ttt
00800c60   _ZN13DynamicMemory20reshapeMatrixAndCopyEP9cmatrix_ttt
00801124   _ZN13DynamicMemory15displayDMStatusEv
008011e0   _ZN13DynamicMemory23displayDMCompleteStatusEv
00801398   _ZN13DynamicMemory18obtainMemoryBufferEj
008013c4   _ZN13DynamicMemory16freeMemoryBufferEPvj
008013e4   _ZN13DynamicMemory10resetQInfoEv
00801414   _ZN13DynamicMemory12displayQInfoEv
008014d8   __sti___17_dynamicMemory_cpp_f848a02c
008015c0   _Z12cblas_scnrm2jPvj
00801650   _Z12cblas_isamaxjPvj
008016ec   _Z10matrixCopyP9cmatrix_tS0_15CBLAS_TRANSPOSEb
00801a24   _Z10matrixMultP9cmatrix_tS0_S0_15CBLAS_TRANSPOSES1_b
00801f44   _Z11matrixMultVP9cmatrix_tPSt7complexIfES3_b
0080208c   _Z11dotProductVPSt7complexIfES1_t
0080214c   _Z13outerProductVPSt7complexIfES1_P9cmatrix_tS0_
00802264   _Z15matrixMultSafeBP9cmatrix_tS0_
00802440   _Z15matrixMultSafeAP9cmatrix_tS0_
00802620   _Z15matrixHermitianP9cmatrix_t
00802818   _Z15matrixTransposeP9cmatrix_t
00802a10   __sti___17_blasFunctions_cpp_8614878c
00802a80   _Z9eyeMatrixP9cmatrix_t
00802b8c   _Z16getMatrixInverseP9cmatrix_tS0_St7complexIfE
00803010   _Z13getNullMatrixP9cmatrix_tS0_
00803178   _Z18getQRDecompositionP9cmatrix_tS0_S0_
00803628   _Z6getSVDP9cmatrix_tS0_S0_S0_c
008037d8   __sti___19_lapackFunctions_cpp_4deb6974
00803840   _Z22randomizeChannelMatrixP9cmatrix_tb
00803a2c   _Z16initializeSystemP16downlinkConfig_tP14systemConfig_tttttt
00803b38   _Z22createNewUserStructurettt
00803d78   _Z19updateDLConfig_UserP16downlinkConfig_tP12userConfig_t
00803ef8   _Z18clearDLConfig_UserP16downlinkConfig_tt
00803fd4   _Z8freeUserP12userConfig_t
008040f0   _Z17updateUserChannelP12userConfig_t
00804168   _Z12cleanupUsersP16downlinkConfig_t
008041d0   __sti___22_frameworkFunctions_cpp_ce0052a8
00804240   _ZNSt6_WinitC1Ev
00804240   _ZNSt6_WinitC2Ev
00804b20   xdc_runtime_System_doPrint__I
008053c0   _Z21performPIPDSchedulingP14systemConfig_tP16downlinkConfig_t
00805b0c   __sti___18_pipdScheduling_cpp_a1e6c5a3
00805b80   _ZNSt8ios_base4InitC1Ev
00805b80   _ZNSt8ios_base4InitC2Ev
00806320   _Z28performSuccessiveProjectionsP14systemConfig_tP16downlinkConfig_t
00806a44   __sti___22_succprojScheduling_cpp_87bf4a20
00806aa0   ti_sysbios_family_c64p_Exception_handler__I
00807220   ti_sysbios_knl_Semaphore_pend__E
00807960   ti_sysbios_timers_timer64_Timer_Module_startup__E
00808000   powf
00808680   ti_sysbios_heaps_HeapMem_alloc__E
00808ce0   _ZNSt13basic_filebufIcSt11char_traitsIcEE8overflowEi
00809300   _ZNSt13basic_filebufIwSt11char_traitsIwEE8overflowEj
00809900   __c6xabi_divd
00809f00   _ZNSt13basic_filebufIwSt11char_traitsIwEE5uflowEv
0080a4e0   ti_sysbios_heaps_HeapMem_free__E
0080aac0   _ZNSt13basic_filebufIcSt11char_traitsIcEE5uflowEv
0080b080   _Z13displayMatrixP9cmatrix_t
0080b1c8   _Z13displayMatrixR9cmatrix_t
0080b310   _Z20displayUserStructureP12userConfig_t
0080b408   _Z17displaySystemInfov
0080b490   _Z21displayScheduledUsersP14systemConfig_tP16downlinkConfig_t
0080b5b0   __sti___20_displayFunctions_cpp_dbd75e48
0080b620   _ZNKSt7num_putIcSt19ostreambuf_iteratorIcSt11char_traitsIcEEE5_FputES3_RSt8ios_basecPKcjjjj
0080c660   _Z24decomposeChannelMatricesP14systemConfig_tP16downlinkConfig_t
0080cac4   _Z28clearSchedulerConfigurationsP14systemConfig_tP16downlinkConfig_t
0080cb28   __sti___23_supportingFunctions_cpp_fd751b3a
0080cba0   _ZNSt13basic_filebufIwSt11char_traitsIwEE9_EndwriteEv
0080d0c0   _ZNSt8ios_base5clearENSt5_IosbIiE8_IostateEb
0080d5e0   _ZNSt13basic_filebufIcSt11char_traitsIcEE9_EndwriteEv
0080dae0   __sti___11_wlocale_cpp_3b9bd5f7
0080dfe0   fwrite
0080e480   __TI_printfi
0080e8e0   _Z23performGreedySchedulingP14systemConfig_tP16downlinkConfig_t
0080ec54   __sti___20_greedyScheduling_cpp_b8e1509e
0080ecc0   fputs
0080f380   _ZStlsISt11char_traitsIcEERSt13basic_ostreamIcT_ES5_PKc
0080f680   ti_sysbios_heaps_HeapMem_Instance_init__E
0080f960   ti_sysbios_knl_Task_Module_startup__E
0080fc40   ti_sysbios_timers_timer64_Timer_deviceConfig__I
0080ff20   _ZNKSt7num_putIcSt19ostreambuf_iteratorIcSt11char_traitsIcEEE5_IputES3_RSt8ios_basecPcj
008101e0   _ZNKSt7num_putIcSt19ostreambuf_iteratorIcSt11char_traitsIcEEE6do_putES3_RSt8ios_basecd
008104a0   _ZNKSt7num_putIcSt19ostreambuf_iteratorIcSt11char_traitsIcEEE6do_putES3_RSt8ios_basece
00810f40   ti_sysbios_knl_Clock_workFunc__E
008111e0   _ZNSt6_WinitD1Ev
008111e0   _ZNSt6_WinitD2Ev
00811460   __c6xabi_divf
008116e0   __sti___12_iostream_cpp_b004430c
00811960   _Z23performRandomSchedulingP14systemConfig_tP16downlinkConfig_t
00811b84   __sti___20_randomScheduling_cpp_1a9b9836
00811be0   _ZNSt13_Complex_baseIfSt16_C_float_complexE4_DivIfEEvRKSt7complexIT_E
00811e40   _ZSt5_FabsIfET_RKSt7complexIS0_EPi
00812300   ti_sysbios_family_c64p_Hwi_dispatchCore__I
00812560   xdc_runtime_Startup_startMods__I
008127c0   xdc_runtime_System_printfExtend__I
00812a20   _ZNSt13basic_filebufIwSt11char_traitsIwEE5imbueERKSt6locale
00812c60   __c6xabi_divull
00813320   setvbuf
00813560   ti_sysbios_family_c64p_Exception_internalHandler__I
008137a0   ti_sysbios_knl_Semaphore_post__E
008139e0   xdc_runtime_Core_createObject__I
00813c20   xdc_runtime_LoggerBuf_write8__E
00813e60   __sti___12_wiostrea_cpp_9fa80e7a
00814080   fputc
008142a0   lteSystemInit
00814310   channelUpdate
008143d4   schedulingForCurrentSF
00814404   _Z18lteSystemTerminatejj
00814424   displaySchedulerInfo
0081445c   __sti___13_lteSystem_cpp_g_nUsers
008144c0   ti_sysbios_knl_Swi_run__I
008146e0   ti_sysbios_timers_timer64_Timer_setPeriodMicroSecs__E
00814b00   ti_sysbios_family_c64p_Hwi_dispatchAlways
00814d00   xdc_runtime_Error_policyDefault__E
00814f00   _ZNKSt7num_putIcSt19ostreambuf_iteratorIcSt11char_traitsIcEEE6do_putES3_RSt8ios_basecb
008150e0   __c6xabi_divul
008152c0   ti_sysbios_timers_timer64_Timer_getFreq__E
008154a0   HOSTrename
00815820   _ZNSt13basic_filebufIcSt11char_traitsIcEE7seekoffElNSt5_IosbIiE8_SeekdirENS4_9_OpenmodeE
008159e0   _ZNSt13basic_filebufIwSt11char_traitsIwEE7seekoffElNSt5_IosbIiE8_SeekdirENS4_9_OpenmodeE
00815d60   ti_sysbios_knl_Task_checkStacks__E
00815f20   xdc_runtime_Text_putSite__E
008160e0   _ZNKSt12_String_base5_XranEv
00816280   _ZNSt13basic_filebufIcSt11char_traitsIcEE7seekposESt4fposIiENSt5_IosbIiE9_OpenmodeE
00816420   _ZNSt13basic_filebufIwSt11char_traitsIwEE7seekposESt4fposIiENSt5_IosbIiE9_OpenmodeE
008165c0   _ZNSt13basic_filebufIwSt11char_traitsIwEE9pbackfailEj
00816760   frexpf
00816900   ti_sysbios_gates_GateMutex_enter__E
00816aa0   ti_sysbios_knl_Task_schedule__I
00816c40   ti_sysbios_timers_timer64_Timer_start__E
00816de0   xdc_runtime_LoggerBuf_write4__E
00816f80   _Getctyptab
00817100   _ZNKSt5ctypeIwE10do_toupperEPwPKw
00817280   _ZNKSt7codecvtIwciE5do_inERiPKcS3_RS3_PwS5_RS5_
00817400   _ZNKSt7codecvtIwciE6do_outERiPKwS3_RS3_PcS5_RS5_
00817580   _ZNSt13basic_filebufIcSt11char_traitsIcEE9pbackfailEi
00817700   _ZSt9use_facetISt5ctypeIwEERKT_RKSt6locale
00817880   ldexpf
00817a00   _Z10freeMatrixP9cmatrix_t
00817a14   _Z12createMatrixP9cmatrix_ttt
00817a44   _Z16createZeroMatrixP9cmatrix_ttt
00817a74   _Z13reshapeMatrixP9cmatrix_ttt
00817aa4   _Z20reshapeAndCopyMatrixP9cmatrix_ttt
00817ad4   _Z14allocateMemoryj
00817aec   _Z10freeMemoryPvj
00817b0c   __sti___20_memoryManagement_cpp_bbe36996
00817b80   ti_sysbios_family_c64p_Exception_dispatch__E
00817d00   ti_sysbios_knl_Task_exit__E
00817e80   ti_sysbios_knl_Task_startCore__E
00818000   xdc_runtime_Core_constructObject__I
00818180   _ZNSt13basic_filebufIcSt11char_traitsIcEED0Ev
008182e0   _ZNSt13basic_filebufIwSt11char_traitsIwEED0Ev
00818440   _ZNSt9basic_iosIcSt11char_traitsIcEE4initEPSt15basic_streambufIcS1_Eb
008185a0   _ZNSt9basic_iosIwSt11char_traitsIwEE4initEPSt15basic_streambufIwS1_Eb
00818860   _ZNKSt12_String_base5_XlenEv
008189a0   _ZNSolsEb
00818ae0   _ZNSolsEj
00818c20   _ZNSt13basic_filebufIcSt11char_traitsIcEE6setbufEPci
00818d60   _ZNSt13basic_filebufIcSt11char_traitsIcEED1Ev
00818ea0   _ZNSt13basic_filebufIwSt11char_traitsIwEED1Ev
00818fe0   _ZNSt6locale7_LocimpD1Ev
00818fe0   _ZNSt6locale7_LocimpD2Ev
00819120   _ZNSt8numpunctIcE5_InitERKSt8_Locinfo
00819260   _ZSt9use_facetISt7codecvtIcciEERKT_RKSt6locale
008193a0   __TI_buff_read
008194e0   __TI_closefile
00819620   _auto_init_elf
00819760   fflush
008198a0   fgetc
00819b20   ti_sysbios_family_c64p_Hwi_Module_startup__E
00819c60   ti_sysbios_family_c66_Cache_Module_startup__E
00819da0   ti_sysbios_knl_Semaphore_Instance_init__E
00819ee0   ti_sysbios_knl_Swi_post__E
0081a020   ti_sysbios_knl_Task_blockI__E
0081a160   ungetc
0081a2a0   xdc_runtime_Text_putLab__E
0081a3e0   _ZNKSt5ctypeIwE5do_isEPKwS2_Ps
0081a500   _ZNKSt5ctypeIwE9do_narrowEPKwS2_cPc
0081a620   _ZNKSt7num_putIcSt19ostreambuf_iteratorIcSt11char_traitsIcEEE5_IfmtEPcPKcNSt5_IosbIiE9_FmtflagsE
0081a740   _ZNSt13basic_filebufIwSt11char_traitsIwEE6setbufEPwi
0081a860   _ZNSt6locale5_InitEv
0081a980   _ZNSt8_LocinfoC1EPKc
0081a980   _ZNSt8_LocinfoC2EPKc
0081aaa0   _ZNSt8_LocinfoD1Ev
0081aaa0   _ZNSt8_LocinfoD2Ev
0081abc0   fseek
0081ace0   ftell
0081ae00   sqrtf
0081af20   xdc_runtime_LoggerBuf_setFilterLevel__E
0081b040   xdc_runtime_Text_putMod__E
0081b160   HOSTlseek
0081b260   _ZNKSt7codecvtIwciE9do_lengthERKiPKcS4_j
0081b360   _ZNKSt7num_putIcSt19ostreambuf_iteratorIcSt11char_traitsIcEEE5_FfmtEPccNSt5_IosbIiE9_FmtflagsE
0081b460   _ZNSs6appendERKSsjj
0081b560   _ZNSs6insertEjjc
0081b660   _ZNSt15basic_streambufIcSt11char_traitsIcEE6xsgetnEPci
0081b760   _ZNSt15basic_streambufIcSt11char_traitsIcEE6xsputnEPKci
0081b860   _ZNSt15basic_streambufIwSt11char_traitsIwEE6xsgetnEPwi
0081b960   _ZNSt15basic_streambufIwSt11char_traitsIwEE6xsputnEPKwi
0081ba60   __TI_wrt_ok
0081bd60   atoi
0081be60   _Z21performUserSchedulingP14systemConfig_tP16downlinkConfig_t
0081beec   __sti___24_schedulingAlgorithms_cpp_fc6d3ca0
0081bf60   ti_sysbios_knl_Swi_restoreHwi__E
0081c060   ti_sysbios_knl_Task_unblockI__E
0081c160   ti_sysbios_timers_timer64_Timer_initDevice__I
0081c260   xdc_runtime_Core_deleteObject__I
0081c360   xdc_runtime_LoggerBuf_getFilterLevel__E
0081c460   xdc_runtime_Startup_exec__E
0081c560   xdc_runtime_Text_visitRope2__I
0081c660   HOSTopen
0081c740   HOSTwrite
0081c820   _Fac_tidy
0081c900   _ZNSs5_CopyEjj
0081c9e0   _ZNSs5eraseEjj
0081cac0   _ZNSs6assignERKSsjj
0081cba0   _ZNSt6locale7_LocimpC1Eb
0081cba0   _ZNSt6locale7_LocimpC2Eb
0081cc80   __cxa_finalize
0081cd60   __c6xabi_divi
0081cd60   __divi
0081cf20   close
0081d000   __TI_zero_init
0081d0e0   ltoa
0081d1c0   memset
0081d2a0   printf
0081d380   ti_sysbios_knl_Swi_runLoop__I
0081d460   ti_sysbios_knl_Clock_TimerProxy_startup__E
0081d460   ti_sysbios_timers_timer64_Timer_startup__E
0081d540   xdc_runtime_Error_print__E
0081d620   xdc_runtime_Memory_alloc__E
0081d700   HOSTread
0081d7c0   HOSTunlink
0081d940   _ZNKSt5ctypeIwE10do_tolowerEPwPKw
0081da00   _ZNKSt7num_putIcSt19ostreambuf_iteratorIcSt11char_traitsIcEEE11_PutgroupedES3_PKcjc
0081dac0   _ZNSo3putEc
0081db80   _ZNSo6sentryC1ERSo
0081dc40   _ZNSs5_GrowEjb
0081dd00   _ZNSs6appendEPKcj
0081ddc0   _ZNSt13basic_filebufIcSt11char_traitsIcEE5_InitEPSt4FILENS2_7_InitflE
0081de80   _ZSt9use_facetISt5ctypeIcEERKT_RKSt6locale
0081df40   _ZSt9use_facetISt7num_putIcSt19ostreambuf_iteratorIcSt11char_traitsIcEEEERKT_RKSt6locale
0081e000   _ZSt9use_facetISt8numpunctIcEERKT_RKSt6locale
0081e0c0   _Znaj
0081e0c0   _Znwj
0081e180   __TI_doflush
0081e240   __TI_rd_ok
0081e300   __c6xabi_divu
0081e300   __divu
0081e3c0   __c6xabi_remi
0081e3c0   __remi
0081e480   exit
0081e480   xdc_runtime_System_exitStd__E
0081e540   __sti___22_globalDeclarations_cpp_286f88f8
0081e600   ti_sysbios_heaps_HeapMem_getStats__E
0081e6c0   ti_sysbios_knl_Clock_logTick__E
0081e780   ti_sysbios_knl_Swi_schedule__I
0081e840   ti_sysbios_knl_Task_allBlockedFunction__I
0081e900   ti_sysbios_timers_timer64_Timer_stop__E
0081e9c0   xdc_runtime_Error_setX__E
0081ea80   xdc_runtime_LoggerBuf_Instance_init__E
0081eb40   xdc_runtime_LoggerBuf_Object__create__S
0081ec00   xdc_runtime_System_formatNum__I
0081ecc0   HOSTclose
0081ed60   _ZNKSt5ctypeIwE8do_widenEPKcS2_Pw
0081ee00   _ZNKSt7codecvtIwciE10do_unshiftERiPcS2_RS2_
0081eea0   _ZNKSt7num_putIcSt19ostreambuf_iteratorIcSt11char_traitsIcEEE6do_putES3_RSt8ios_basecPKv
0081ef40   _ZNSo12_Sentry_baseC1ERSo
0081efe0   _ZNSo12_Sentry_baseD1Ev
0081f080   _ZNSs6appendEjc
0081f120   _ZNSt11logic_errorD1Ev
0081f1c0   _ZNSt12length_errorD1Ev
0081f260   _ZNSt12out_of_rangeC1ERKSs
0081f300   _ZNSt12out_of_rangeD1Ev
0081f3a0   _ZNSt13_Complex_baseIfSt16_C_float_complexE4_MulIfEEvRKSt7complexIT_E
0081f440   _ZNSt13basic_filebufIcSt11char_traitsIcEE9underflowEv
0081f4e0   _ZNSt13basic_filebufIwSt11char_traitsIwEE9underflowEv
0081f580   _ZNSt13runtime_errorD1Ev
0081f620   _ZNSt5ctypeIcEC1EPKsbj
0081f6c0   _ZNSt8ios_base4InitD1Ev
0081f6c0   _ZNSt8ios_base4InitD2Ev
0081f760   _ZNSt8ios_base5_InitEv
0081f800   _ZNSt8ios_base5_TidyEv
0081f8a0   _ZNSt8ios_base7_AddstdEv
0081f940   _ZNSt8ios_base7failureD1Ev
0081f9e0   _ZNSt8ios_baseD1Ev
0081f9e0   _ZNSt8ios_baseD2Ev
0081fa80   __TI_cleanup
0081fb20   __c6xabi_remu
0081fb20   __remu
0081fbc0   _c_int00
0081fe40   memcpy
0081fee0   ti_sysbios_family_c64p_Exception_Module_startup__E
0081ff80   ti_sysbios_heaps_HeapMem_init__I
00820020   wmemcpy
008200c0   xdc_runtime_Assert_raise__I
00820160   xdc_runtime_LoggerBuf_Module_startup__E
00820200   xdc_runtime_SysMin_abort__E
00820200   xdc_runtime_System_SupportProxy_abort__E
008202a0   xdc_runtime_SysMin_flush__E
008202a0   xdc_runtime_System_SupportProxy_flush__E
00820340   xdc_runtime_SysMin_putch__E
00820340   xdc_runtime_System_SupportProxy_putch__E
008203e0   xdc_runtime_Text_xprintf__I
00820480   _Setgloballocale
00820500   _ZNKSt5ctypeIwE10do_scan_isEsPKwS2_
00820580   _ZNKSt5ctypeIwE10do_tolowerEw
00820600   _ZNKSt5ctypeIwE11do_scan_notEsPKwS2_
00820680   _ZNKSt6locale9_GetfacetEj
00820700   _ZNKSt7num_putIcSt19ostreambuf_iteratorIcSt11char_traitsIcEEE5_PutcES3_PKcj
00820780   _ZNKSt7num_putIcSt19ostreambuf_iteratorIcSt11char_traitsIcEEE6do_putES3_RSt8ios_basecl
00820800   _ZNKSt7num_putIcSt19ostreambuf_iteratorIcSt11char_traitsIcEEE6do_putES3_RSt8ios_basecm
00820880   _ZNKSt7num_putIcSt19ostreambuf_iteratorIcSt11char_traitsIcEEE6do_putES3_RSt8ios_basecx
00820900   _ZNKSt7num_putIcSt19ostreambuf_iteratorIcSt11char_traitsIcEEE6do_putES3_RSt8ios_basecy
00820980   _ZNSo5flushEv
00820a00   _ZNSs5_TidyEbj
00820a80   _ZNSs6assignEPKcj
00820b00   _ZNSt11logic_errorC2ERKSs
00820b80   _ZNSt11logic_errorD0Ev
00820c00   _ZNSt12length_errorD0Ev
00820c80   _ZNSt12out_of_rangeD0Ev
00820d00   _ZNSt13basic_filebufIcSt11char_traitsIcEE4syncEv
00820d80   _ZNSt13basic_filebufIwSt11char_traitsIwEE4syncEv
00820e00   _ZNSt13runtime_errorD0Ev
00820e80   _ZNSt15basic_streambufIcSt11char_traitsIcEE5sputcEc
00820f00   _ZNSt19ostreambuf_iteratorIcSt11char_traitsIcEEaSEc
00820f80   _ZNSt6locale5facet9_RegisterEv
00821000   _ZNSt8ios_base7failureD0Ev
00821080   _ZNSt8ios_base8_CallfnsENS_5eventE
00821100   _ZSt10_MaklocstrIcEPT_PKcS1_RKSt7_Cvtvec
00821180   _ZSt14_Debug_messagePKcS0_
00821200   __TI_readmsg
00821280   __TI_writemsg
008212e0   C$$IO$$
00821300   __c6xabi_fixfu
00821380   __c6xabi_llshl
00821400   __c6xabi_roundf
00821480   ti_sysbios_family_c62_TaskSupport_swap__E
00821480   ti_sysbios_knl_Task_SupportProxy_swap__E
00821500   fclose
00821600   malloc
00821680   rand
00821700   main
00821728   clockISRA
00821758   clockISRB
00821780   ti_sysbios_family_c62_TaskSupport_start__E
00821780   ti_sysbios_knl_Task_SupportProxy_start__E
00821800   ti_sysbios_family_c64p_Hwi_dispatchC__I
00821880   ti_sysbios_family_c64p_Hwi_getStackInfo__E
00821880   ti_sysbios_hal_Hwi_HwiProxy_getStackInfo__E
00821900   ti_sysbios_hal_Hwi_checkStack
00821980   ti_sysbios_hal_Hwi_initStack
00821a00   ti_sysbios_knl_Idle_run__E
00821a80   ti_sysbios_knl_Swi_startup__E
00821b00   ti_sysbios_knl_Task_restore__E
00821b80   ungetwc
00821c00   remove
00821c00   unlink
00821c80   xdc_runtime_Core_assignLabel__I
00821d00   xdc_runtime_Core_assignParams__I
00821d80   xdc_runtime_LoggerBuf_filterOutEvent__I
00821e00   xdc_runtime_System_atexit__E
00821e80   xdc_runtime_System_processAtExit__E
00821f00   xdc_runtime_System_putchar__I
00821f80   xdc_runtime_Text_printVisFxn__I
00822000   _Deletegloballocale
00822060   _ZNKSt5ctypeIcE10do_tolowerEPcPKc
008220c0   _ZNKSt5ctypeIcE10do_toupperEPcPKc
00822120   _ZNKSt5ctypeIwE10do_toupperEw
00822180   _ZNKSt5ctypeIwE9do_narrowEwc
008221e0   _ZNKSt7num_putIcSt19ostreambuf_iteratorIcSt11char_traitsIcEEE4_PutES3_PKcj
00822240   _ZNKSt7num_putIcSt19ostreambuf_iteratorIcSt11char_traitsIcEEE4_RepES3_cj
008222a0   _ZNKSt9basic_iosIcSt11char_traitsIcEE5widenEc
00822300   _ZNKSt9exception6_RaiseEv
00822360   _ZNSiD0Ev
008223c0   _ZNSoD0Ev
00822420   _ZNSs7_InsideEPKc
00822480   _ZNSs9_ChassignEjjc
008224e0   _ZNSt13_Complex_baseIfSt16_C_float_complexE4_AddIfEEvRKSt7complexIT_E
00822540   _ZNSt13_Complex_baseIfSt16_C_float_complexE4_SubIfEEvRKSt7complexIT_E
008225a0   _ZNSt13basic_filebufIcSt11char_traitsIcEE5imbueERKSt6locale
00822600   _ZNSt13basic_istreamIwSt11char_traitsIwEED0Ev
00822660   _ZNSt13basic_ostreamIwSt11char_traitsIwEED0Ev
008226c0   _ZNSt15basic_streambufIcSt11char_traitsIcEE5_InitEv
00822720   _ZNSt15basic_streambufIcSt11char_traitsIcEE5uflowEv
00822780   _ZNSt15basic_streambufIcSt11char_traitsIcEE7seekoffElNSt5_IosbIiE8_SeekdirENS4_9_OpenmodeE
008227e0   _ZNSt15basic_streambufIcSt11char_traitsIcEE7seekposESt4fposIiENSt5_IosbIiE9_OpenmodeE
00822840   _ZNSt15basic_streambufIcSt11char_traitsIcEED0Ev
008228a0   _ZNSt15basic_streambufIcSt11char_traitsIcEED1Ev
00822900   _ZNSt15basic_streambufIwSt11char_traitsIwEE5_InitEv
00822960   _ZNSt15basic_streambufIwSt11char_traitsIwEE5uflowEv
008229c0   _ZNSt15basic_streambufIwSt11char_traitsIwEE7seekoffElNSt5_IosbIiE8_SeekdirENS4_9_OpenmodeE
00822a20   _ZNSt15basic_streambufIwSt11char_traitsIwEE7seekposESt4fposIiENSt5_IosbIiE9_OpenmodeE
00822a80   _ZNSt15basic_streambufIwSt11char_traitsIwEED0Ev
00822ae0   _ZNSt15basic_streambufIwSt11char_traitsIwEED1Ev
00822b40   _ZNSt5ctypeIcE7_GetcatEPPKNSt6locale5facetE
00822ba0   _ZNSt5ctypeIwED0Ev
00822c00   _ZNSt5ctypeIwED1Ev
00822c60   _ZNSt6locale2idcvjEv
00822cc0   _ZNSt6locale5facet7_DecrefEv
00822d20   _ZNSt6locale7_LocimpD0Ev
00822d80   _ZNSt6localeC1Ev
00822d80   _ZNSt6localeC2Ev
00822de0   _ZNSt7complexIfEdVERKf
00822e40   _ZNSt7num_putIcSt19ostreambuf_iteratorIcSt11char_traitsIcEEEC1Ej
00822ea0   _ZNSt8ios_baseD0Ev
00822f00   _ZNSt8numpunctIcEC1Ej
00822f60   _ZNSt9basic_iosIcSt11char_traitsIcEED0Ev
00822fc0   _ZNSt9basic_iosIwSt11char_traitsIwEED0Ev
00823020   _ZSt4endlIcSt11char_traitsIcEERSt13basic_ostreamIT_T0_ES6_
00823080   _ZStdvIfESt7complexIT_ERKS2_RKS1_
008230e0   _ZTv0_n12_NSiD0Ev
00823140   _ZTv0_n12_NSoD0Ev
008231a0   _ZTv0_n12_NSt13basic_istreamIwSt11char_traitsIwEED0Ev
00823200   _ZTv0_n12_NSt13basic_ostreamIwSt11char_traitsIwEED0Ev
00823260   __FDtest
008232c0   __TI_frcmpyd_div
00823320   __c6xabi_llshru
00823380   __cxa_vec_ctor
008233e0   __cxa_vec_new
00823440   __sti___11_locale0_cpp_36e19383
008234a0   _subcull
00823500   ti_sysbios_family_c64p_Hwi_switchAndDispatch__I
00823560   ti_sysbios_family_xxx_Hwi_switchAndRunFunc
008235c0   calloc
00823620   fgetpos
00823680   lseek
008236e0   memccpy
00823740   memchr
008237a0   memmove
00823800   modff
00823860   read
008238c0   setlocale
00823920   sprintf
00823980   strcmp
008239e0   strcspn
00823a40   ti_sysbios_BIOS_atExitFunc__I
00823aa0   ti_sysbios_BIOS_errorRaiseHook__I
00823b00   ti_sysbios_BIOS_registerRTSLock__I
00823b60   ti_sysbios_BIOS_removeRTSLock__I
00823bc0   ti_sysbios_BIOS_rtsUnlock__I
00823c20   ti_sysbios_gates_GateHwi_Object__create__S
00823c80   ti_sysbios_gates_GateMutex_Object__create__S
00823ce0   ti_sysbios_heaps_HeapMem_Object__create__S
00823d40   ti_sysbios_knl_Clock_Module_startup__E
00823da0   ti_sysbios_knl_Clock_doTick__I
00823e00   ti_sysbios_knl_Queue_construct
00823e60   ti_sysbios_knl_Semaphore_construct
00823ec0   ti_sysbios_knl_Semaphore_pendTimeout__I
00823f20   ti_sysbios_knl_Swi_Module_startup__E
00823f80   ti_sysbios_knl_Task_enter__I
00823fe0   write
00824040   xdc_runtime_Memory_calloc__E
008240a0   xdc_runtime_SysMin_Module_startup__E
00824100   xdc_runtime_SysMin_exit__E
00824100   xdc_runtime_System_SupportProxy_exit__E
00824160   xdc_runtime_SysMin_output__I
008241c0   xdc_runtime_System_aprintf_va__E
008241c0   xdc_runtime_System_aprintf_va__F
008241c0   xdc_runtime_System_avprintf__E
00824220   xdc_runtime_System_printf_va__E
00824220   xdc_runtime_System_printf_va__F
00824220   xdc_runtime_System_vprintf__E
00824280   xdc_runtime_Text_cordText__E
008242e0   _ZNKSs6_MyptrEv
00824320   _ZNKSs8max_sizeEv
00824360   _ZNKSt15basic_streambufIcSt11char_traitsIcEE8_PnavailEv
008243a0   _ZNKSt5ctypeIcE10do_tolowerEc
008243e0   _ZNKSt5ctypeIcE10do_toupperEc
00824420   _ZNKSt5ctypeIcE5widenEc
00824460   _ZNKSt5ctypeIcE8do_widenEPKcS2_Pc
008244a0   _ZNKSt5ctypeIcE9do_narrowEPKcS2_cPc
008244e0   _ZNKSt5ctypeIwE5do_isEsw
00824520   _ZNKSt5ctypeIwE8do_widenEc
00824560   _ZNKSt7num_putIcSt19ostreambuf_iteratorIcSt11char_traitsIcEEE3putES3_RSt8ios_basecb
008245a0   _ZNKSt7num_putIcSt19ostreambuf_iteratorIcSt11char_traitsIcEEE3putES3_RSt8ios_basecm
008245e0   _ZNKSt8_Locinfo7_GetcvtEv
00824620   _ZNKSt8_Locinfo9_GetctypeEv
00824660   _ZNKSt8numpunctIcE8groupingEv
008246a0   _ZNKSt8numpunctIcE8truenameEv
008246e0   _ZNKSt8numpunctIcE9falsenameEv
00824720   _ZNSiD1Ev
00824760   _ZNSo5_OsfxEv
008247a0   _ZNSoD1Ev
008247e0   _ZNSs4_EosEj
00824820   _ZNSs6_MyptrEv
00824860   _ZNSs6assignEPKc
008248a0   _ZNSs6assignERKSs
008248e0   _ZNSsC1EPKc
00824920   _ZNSsC1Ev
00824960   _ZNSt10ctype_baseC1Ej
008249a0   _ZNSt11char_traitsIcE6assignEPcjc
008249e0   _ZNSt13_Complex_baseIfSt16_C_float_complexEC1ERKfS3_
00824a20   _ZNSt13basic_istreamIwSt11char_traitsIwEED1Ev
00824a60   _ZNSt13basic_ostreamIwSt11char_traitsIwEED1Ev
00824aa0   _ZNSt15basic_streambufIcSt11char_traitsIcEE5sputnEPKci
00824ae0   _ZNSt19ostreambuf_iteratorIcSt11char_traitsIcEEC1EPSt15basic_streambufIcS1_E
00824b20   _ZNSt5ctypeIcE5_TidyEv
00824b60   _ZNSt5ctypeIcED1Ev
00824ba0   _ZNSt6locale5facet7_IncrefEv
00824be0   _ZNSt6locale5facetC1Ej
00824c20   _ZNSt6localeC1ERKS_
00824c60   _ZNSt6localeD1Ev
00824ca0   _ZNSt7complexIfEaSERKf
00824ce0   _ZNSt7num_putIcSt19ostreambuf_iteratorIcSt11char_traitsIcEEE7_GetcatEPPKNSt6locale5facetE
00824d20   _ZNSt8ios_base5widthEi
00824d60   _ZNSt8numpunctIcE5_TidyEv
00824da0   _ZNSt8numpunctIcE7_GetcatEPPKNSt6locale5facetE
00824de0   _ZNSt8numpunctIcED1Ev
00824e20   _ZNSt9basic_iosIcSt11char_traitsIcEE5clearENSt5_IosbIiE8_IostateEb
00824e60   _ZNSt9basic_iosIcSt11char_traitsIcEE8setstateENSt5_IosbIiE8_IostateEb
00824ea0   _ZSt3absIfET_RKSt7complexIS0_E
00824ee0   _ZSt3absf
00824f20   _ZSt3powff
00824f60   _ZSt4conjIfESt7complexIT_ERKS2_
00824fa0   _ZSt6_ThrowRKSt9exception
00824fe0   _ZStdvIfESt7complexIT_ERKS1_RKS2_
00825020   _ZStdvIfESt7complexIT_ERKS2_S4_
00825060   _ZStmiIfESt7complexIT_ERKS2_S4_
008250a0   _ZStmlIfESt7complexIT_ERKS1_RKS2_
008250e0   _ZStmlIfESt7complexIT_ERKS2_S4_
00825120   _ZStoRRNSt5_IosbIiE8_IostateES1_
00825160   _ZStplIfESt7complexIT_ERKS2_S4_
008251a0   _ZTv0_n12_NSiD1Ev
008251e0   _ZTv0_n12_NSoD1Ev
00825220   _ZTv0_n12_NSt13basic_istreamIwSt11char_traitsIwEED1Ev
00825260   _ZTv0_n12_NSt13basic_ostreamIwSt11char_traitsIwEED1Ev
008252a0   __c6xabi_isinf
00825320   _args_main
008253a0   ti_sysbios_family_c62_TaskSupport_buildTaskStack
008253e0   free
00825420   mbrtowc
00825460   mbtowc
008254a0   strlen
008254e0   ti_sysbios_BIOS_exitFunc__I
00825520   ti_sysbios_BIOS_rtsLock__I
00825560   ti_sysbios_BIOS_startFunc__I
008255a0   ti_sysbios_family_c64p_Hwi_Module__startupDone__F
008255a0   ti_sysbios_family_c64p_Hwi_Module__startupDone__S
008255e0   ti_sysbios_family_c64p_Hwi_disableInterrupt__E
008255e0   ti_sysbios_hal_Hwi_HwiProxy_disableInterrupt__E
00825620   ti_sysbios_family_c64p_Hwi_enableInterrupt__E
00825620   ti_sysbios_hal_Hwi_HwiProxy_enableInterrupt__E
00825660   ti_sysbios_gates_GateHwi_Handle__label__S
008256a0   ti_sysbios_gates_GateHwi_Object__delete__S
008256e0   ti_sysbios_gates_GateMutex_Handle__label__S
00825720   ti_sysbios_gates_GateMutex_Instance_init__E
00825760   ti_sysbios_gates_GateMutex_Object__delete__S
008257a0   ti_sysbios_gates_GateMutex_leave__E
008257e0   ti_sysbios_heaps_HeapMem_Handle__label__S
00825820   ti_sysbios_heaps_HeapMem_Object__delete__S
00825860   ti_sysbios_heaps_HeapMem_Object__get__S
008258a0   ti_sysbios_knl_Queue_Object__destruct__S
008258e0   ti_sysbios_knl_Semaphore_Object__destruct__S
00825920   ti_sysbios_knl_Swi_Object__get__S
00825960   ti_sysbios_knl_Task_Object__get__S
008259a0   ti_sysbios_timers_timer64_Timer_Module__startupDone__F
008259a0   ti_sysbios_timers_timer64_Timer_Module__startupDone__S
008259e0   wcrtomb
00825a20   xdc_runtime_Error_check__E
00825a60   xdc_runtime_Error_init__E
00825aa0   xdc_runtime_Error_raiseX__E
00825ae0   xdc_runtime_Gate_leaveSystem__E
00825b20   xdc_runtime_LoggerBuf_Handle__label__S
00825b60   xdc_runtime_LoggerBuf_Instance_finalize__E
00825ba0   xdc_runtime_LoggerBuf_Object__delete__S
00825be0   xdc_runtime_LoggerBuf_Object__get__S
00825c20   xdc_runtime_LoggerBuf_write0__E
00825c60   xdc_runtime_LoggerBuf_write1__E
00825ca0   xdc_runtime_LoggerBuf_write2__E
00825ce0   xdc_runtime_Memory_free__E
00825d20   xdc_runtime_Registry_findById__E
00825d60   xdc_runtime_System_abort__E
00825da0   xdc_runtime_System_aprintf__E
00825de0   xdc_runtime_System_exit__E
00825e20   xdc_runtime_System_printf__E
00825e60   xdc_runtime_Text_ropeText__E
00825ea0   _Atexit
00825ec0   _Getgloballocale
00825ee0   _Z21__default_new_handlerv
00825f00   _ZN10__cxxabiv117__class_type_infoD0Ev
00825f20   _ZN10__cxxabiv117__class_type_infoD1Ev
00825f20   _ZN10__cxxabiv117__class_type_infoD2Ev
00825f40   _ZN10__cxxabiv120__si_class_type_infoD0Ev
00825f60   _ZN10__cxxabiv120__si_class_type_infoD1Ev
00825f60   _ZN10__cxxabiv120__si_class_type_infoD2Ev
00825f80   _ZN10__cxxabiv121__vmi_class_type_infoD0Ev
00825fa0   _ZN10__cxxabiv121__vmi_class_type_infoD1Ev
00825fa0   _ZN10__cxxabiv121__vmi_class_type_infoD2Ev
00825fc0   _ZNKSaIcE8max_sizeEv
00825fe0   _ZNKSo6sentrycvbEv
00826000   _ZNKSs4sizeEv
00826020   _ZNKSs5c_strEv
00826040   _ZNKSt11logic_error4whatEv
00826060   _ZNKSt11logic_error8_DoraiseEv
00826080   _ZNKSt12codecvt_base11do_encodingEv
008260a0   _ZNKSt12codecvt_base13do_max_lengthEv
008260c0   _ZNKSt12codecvt_base16do_always_noconvEv
008260e0   _ZNKSt12length_error8_DoraiseEv
00826100   _ZNKSt12out_of_range8_DoraiseEv
00826120   _ZNKSt13_Complex_baseIfSt16_C_float_complexE4imagEv
00826140   _ZNKSt13_Complex_baseIfSt16_C_float_complexE4realEv
00826160   _ZNKSt13runtime_error4whatEv
00826180   _ZNKSt13runtime_error8_DoraiseEv
008261a0   _ZNKSt19ostreambuf_iteratorIcSt11char_traitsIcEE6failedEv
008261c0   _ZNKSt5ctypeIcE8do_widenEc
008261e0   _ZNKSt5ctypeIcE9do_narrowEcc
00826200   _ZNKSt5ctypeIwE2isEsw
00826220   _ZNKSt5ctypeIwE5widenEc
00826240   _ZNKSt5ctypeIwE6narrowEwc
00826260   _ZNKSt7codecvtIcciE10do_unshiftERiPcS2_RS2_
00826280   _ZNKSt7codecvtIcciE5do_inERiPKcS3_RS3_PcS5_RS5_
008262a0   _ZNKSt7codecvtIcciE6do_outERiPKcS3_RS3_PcS5_RS5_
008262c0   _ZNKSt7codecvtIcciE9do_lengthERKiPKcS4_j
008262e0   _ZNKSt7codecvtIwciE11do_encodingEv
00826300   _ZNKSt7codecvtIwciE13do_max_lengthEv
00826320   _ZNKSt7codecvtIwciE16do_always_noconvEv
00826340   _ZNKSt8_Locinfo8_GettrueEv
00826360   _ZNKSt8_Locinfo9_GetfalseEv
00826380   _ZNKSt8_Locinfo9_GetlconvEv
008263a0   _ZNKSt8ios_base4failEv
008263c0   _ZNKSt8ios_base4goodEv
008263e0   _ZNKSt8ios_base5flagsEv
00826400   _ZNKSt8ios_base5widthEv
00826420   _ZNKSt8ios_base6getlocEv
00826440   _ZNKSt8ios_base7failure8_DoraiseEv
00826460   _ZNKSt8ios_base7rdstateEv
00826480   _ZNKSt8ios_base9precisionEv
008264a0   _ZNKSt8numpunctIcE11do_groupingEv
008264c0   _ZNKSt8numpunctIcE11do_truenameEv
008264e0   _ZNKSt8numpunctIcE12do_falsenameEv
00826500   _ZNKSt8numpunctIcE13decimal_pointEv
00826520   _ZNKSt8numpunctIcE13thousands_sepEv
00826540   _ZNKSt8numpunctIcE16do_decimal_pointEv
00826560   _ZNKSt8numpunctIcE16do_thousands_sepEv
00826580   _ZNKSt9basic_iosIcSt11char_traitsIcEE3tieEv
008265a0   _ZNKSt9basic_iosIcSt11char_traitsIcEE4fillEv
008265c0   _ZNKSt9basic_iosIcSt11char_traitsIcEE5rdbufEv
008265e0   _ZNKSt9exception4whatEv
00826600   _ZNKSt9exception8_DoraiseEv
00826620   _ZNSaIcE10deallocateEPcj
00826640   _ZNSaIcE8allocateEj
00826660   _ZNSaIcEC1ERKS_
00826680   _ZNSaIcEC1Ev
008266a0   _ZNSo12_Sentry_baseC2ERSo
008266c0   _ZNSo12_Sentry_baseD2Ev
008266e0   _ZNSo6sentryD1Ev
00826700   _ZNSolsEPFRSoS_E
00826720   _ZNSsD1Ev
00826740   _ZNSsixEj
00826760   _ZNSt10ctype_baseC2Ej
00826780   _ZNSt10ctype_baseD0Ev
008267a0   _ZNSt10ctype_baseD1Ev
008267c0   _ZNSt10ctype_baseD2Ev
008267e0   _ZNSt11_String_valIcSaIcEEC1ES0_
00826800   _ZNSt11_String_valIcSaIcEEC2ES0_
00826820   _ZNSt11char_traitsIcE11eq_int_typeERKiS2_
00826840   _ZNSt11char_traitsIcE11to_int_typeERKc
00826860   _ZNSt11char_traitsIcE3eofEv
00826880   _ZNSt11char_traitsIcE4copyEPcPKcj
008268a0   _ZNSt11char_traitsIcE4moveEPcPKcj
008268c0   _ZNSt11char_traitsIcE6assignERcRKc
008268e0   _ZNSt11char_traitsIcE6lengthEPKc
00826900   _ZNSt12codecvt_baseD0Ev
00826920   _ZNSt12codecvt_baseD1Ev
00826940   _ZNSt13_Complex_baseIfSt16_C_float_complexE4imagERKf
00826960   _ZNSt13_Complex_baseIfSt16_C_float_complexE4realERKf
00826980   _ZNSt13_Complex_baseIfSt16_C_float_complexEC2ERKfS3_
008269a0   _ZNSt15basic_streambufIcSt11char_traitsIcEE4syncEv
008269c0   _ZNSt15basic_streambufIcSt11char_traitsIcEE5_LockEv
008269e0   _ZNSt15basic_streambufIcSt11char_traitsIcEE5imbueERKSt6locale
00826a00   _ZNSt15basic_streambufIcSt11char_traitsIcEE6_PnincEv
00826a20   _ZNSt15basic_streambufIcSt11char_traitsIcEE6setbufEPci
00826a40   _ZNSt15basic_streambufIcSt11char_traitsIcEE7_UnlockEv
00826a60   _ZNSt15basic_streambufIcSt11char_traitsIcEE7pubsyncEv
00826a80   _ZNSt15basic_streambufIcSt11char_traitsIcEE8overflowEi
00826aa0   _ZNSt15basic_streambufIcSt11char_traitsIcEE9pbackfailEi
00826ac0   _ZNSt15basic_streambufIcSt11char_traitsIcEE9showmanycEv
00826ae0   _ZNSt15basic_streambufIcSt11char_traitsIcEE9underflowEv
00826b00   _ZNSt15basic_streambufIwSt11char_traitsIwEE4syncEv
00826b20   _ZNSt15basic_streambufIwSt11char_traitsIwEE5_LockEv
00826b40   _ZNSt15basic_streambufIwSt11char_traitsIwEE5imbueERKSt6locale
00826b60   _ZNSt15basic_streambufIwSt11char_traitsIwEE6setbufEPwi
00826b80   _ZNSt15basic_streambufIwSt11char_traitsIwEE7_UnlockEv
00826ba0   _ZNSt15basic_streambufIwSt11char_traitsIwEE8overflowEj
00826bc0   _ZNSt15basic_streambufIwSt11char_traitsIwEE9pbackfailEj
00826be0   _ZNSt15basic_streambufIwSt11char_traitsIwEE9showmanycEv
00826c00   _ZNSt15basic_streambufIwSt11char_traitsIwEE9underflowEv
00826c20   _ZNSt19ostreambuf_iteratorIcSt11char_traitsIcEEdeEv
00826c40   _ZNSt19ostreambuf_iteratorIcSt11char_traitsIcEEppEv
00826c60   _ZNSt5ctypeIcE5_InitERKSt8_Locinfo
00826c80   _ZNSt5ctypeIcED0Ev
00826ca0   _ZNSt6locale2idC1Ej
00826cc0   _ZNSt6locale5facetC2Ej
00826ce0   _ZNSt6locale5facetD0Ev
00826d00   _ZNSt6locale5facetD1Ev
00826d20   _ZNSt6locale5facetD2Ev
00826d40   _ZNSt7_LockitC1Ei
00826d60   _ZNSt7_LockitD1Ev
00826d80   _ZNSt7codecvtIcciED0Ev
00826da0   _ZNSt7codecvtIcciED1Ev
00826dc0   _ZNSt7codecvtIwciED0Ev
00826de0   _ZNSt7codecvtIwciED1Ev
00826e00   _ZNSt7complexIfEC1ERKfS2_
00826e20   _ZNSt7complexIfEdVIfEERS0_RKS_IT_E
00826e40   _ZNSt7complexIfEmIIfEERS0_RKS_IT_E
00826e60   _ZNSt7complexIfEmLIfEERS0_RKS_IT_E
00826e80   _ZNSt7complexIfEpLIfEERS0_RKS_IT_E
00826ea0   _ZNSt7num_putIcSt19ostreambuf_iteratorIcSt11char_traitsIcEEE5_InitERKSt8_Locinfo
00826ec0   _ZNSt7num_putIcSt19ostreambuf_iteratorIcSt11char_traitsIcEEED0Ev
00826ee0   _ZNSt7num_putIcSt19ostreambuf_iteratorIcSt11char_traitsIcEEED1Ev
00826f00   _ZNSt8_CtraitsIfE4sqrtEf
00826f20   _ZNSt8_CtraitsIfE5_InfvEf
00826f40   _ZNSt8_CtraitsIfE5_NanvEf
00826f60   _ZNSt8_CtraitsIfE5ldexpEfi
00826f80   _ZNSt8_CtraitsIfE6_IsinfEf
00826fa0   _ZNSt8_CtraitsIfE6_IsnanEf
00826fc0   _ZNSt8numpunctIcED0Ev
00826fe0   _ZNSt9basic_iosIcSt11char_traitsIcEED1Ev
00827000   _ZNSt9basic_iosIwSt11char_traitsIwEED1Ev
00827020   _ZNSt9exceptionD0Ev
00827040   _ZNSt9exceptionD1Ev
00827060   _ZSt10_MaklocchrIcET_cPS0_RKSt7_Cvtvec
008270a0   _ZSt4imagIfET_RKSt7complexIS0_E
008270c0   _ZSt4realIfET_RKSt7complexIS0_E
008270e0   _ZSt4sqrtf
00827100   _ZSt8_ToloweriPKSt9_Ctypevec
00827120   _ZSt8_ToupperiPKSt9_Ctypevec
00827140   _ZSt9_AllocateIcEPT_jS1_
00827160   _ZStanNSt5_IosbIiE9_FmtflagsES1_
00827180   _ZdaPv
00827180   _ZdlPv
008271a0   _ZnwjPv
008271c0   __c6xabi_errno_addr
008271e0   __c6xabi_truncf
00827200   __cxa_atexit
00827220   __cxa_guard_acquire
00827240   __cxa_guard_release
00827260   __cxa_ia64_exit
00827280   __memzero
008272a0   __xdc__init
008272c0   _nop
00827340   _register_lock
00827360   _register_unlock
00827380   ti_sysbios_family_c62_TaskSupport_glue
008273a0   C$$EXIT
008273a0   abort
008273a0   xdc_runtime_System_abortStd__E
008273c0   atexit
008273e0   __TI_decompress_none
00827400   __TI_decompress_rle24
00827420   fgetwc
00827440   fputwc
00827460   fsetpos
00827480   localeconv
008274a0   ti_sysbios_BIOS_RtsGateProxy_enter__E
008274c0   ti_sysbios_BIOS_RtsGateProxy_leave__E
008274e0   ti_sysbios_BIOS_nullFunc__I
00827500   ti_sysbios_BIOS_setThreadType__E
00827520   ti_sysbios_BIOS_start__E
00827540   ti_sysbios_family_c62_TaskSupport_Module__startupDone__S
00827560   ti_sysbios_family_c62_TaskSupport_checkStack__E
00827560   ti_sysbios_knl_Task_SupportProxy_checkStack__E
00827580   ti_sysbios_family_c64p_Hwi_clearInterrupt__E
00827580   ti_sysbios_hal_Hwi_HwiProxy_clearInterrupt__E
008275a0   ti_sysbios_family_c64p_Hwi_startup__E
008275a0   ti_sysbios_hal_Hwi_HwiProxy_startup__E
008275c0   ti_sysbios_family_c64p_Hwi_switchFromBootStack__E
008275c0   ti_sysbios_hal_Hwi_HwiProxy_switchFromBootStack__E
008275e0   ti_sysbios_family_c64p_TimestampProvider_Module_startup__E
00827600   ti_sysbios_family_c64p_TimestampProvider_get64__E
00827600   xdc_runtime_LoggerBuf_TimestampProxy_get64__E
00827620   ti_sysbios_family_c64p_tci6488_TimerSupport_enable__E
00827620   ti_sysbios_timers_timer64_Timer_TimerSupportProxy_enable__E
00827640   ti_sysbios_gates_GateHwi_Instance_init__E
00827660   ti_sysbios_gates_GateHwi_enter__E
00827680   ti_sysbios_gates_GateHwi_leave__E
008276a0   ti_sysbios_gates_GateHwi_query__E
008276a0   xdc_runtime_LoggerBuf_Module_GateProxy_query__E
008276a0   xdc_runtime_Main_Module_GateProxy_query__E
008276a0   xdc_runtime_System_Module_GateProxy_query__E
008276c0   ti_sysbios_gates_GateMutex_Instance_finalize__E
008276e0   ti_sysbios_BIOS_RtsGateProxy_query__E
008276e0   ti_sysbios_gates_GateMutex_query__E
008276e0   ti_sysbios_heaps_HeapMem_Module_GateProxy_query__E
00827700   ti_sysbios_hal_Hwi_HwiProxy_Module__startupDone__S
00827720   ti_sysbios_hal_Hwi_Module_startup__E
00827740   ti_sysbios_heaps_HeapMem_Module_GateProxy_enter__E
00827760   ti_sysbios_heaps_HeapMem_Module_GateProxy_leave__E
00827780   ti_sysbios_heaps_HeapMem_isBlocking__E
008277a0   ti_sysbios_knl_Clock_TimerProxy_Module__startupDone__S
008277c0   ti_sysbios_knl_Clock_TimerProxy_getMaxTicks__E
008277e0   ti_sysbios_knl_Idle_loop__E
00827800   ti_sysbios_knl_Queue_Instance_init__E
00827820   ti_sysbios_knl_Queue_Object__get__S
00827840   ti_sysbios_knl_Queue_destruct
00827860   ti_sysbios_knl_Queue_empty__E
00827880   ti_sysbios_knl_Semaphore_Instance_finalize__E
008278a0   ti_sysbios_knl_Semaphore_destruct
008278c0   ti_sysbios_knl_Swi_disable__E
008278e0   ti_sysbios_knl_Task_SupportProxy_Module__startupDone__S
00827900   ti_sysbios_knl_Task_disable__E
00827920   ti_sysbios_knl_Task_startup__E
00827940   ti_sysbios_timers_timer64_Timer_getMaxTicks__E
00827960   tolower
00827980   toupper
008279a0   wctomb
008279c0   xdc_runtime_Gate_enterSystem__E
00827a20   xdc_runtime_LoggerBuf_Module_GateProxy_enter__E
00827a40   xdc_runtime_LoggerBuf_Module_GateProxy_leave__E
00827a60   xdc_runtime_LoggerBuf_disable__E
00827a80   xdc_runtime_LoggerBuf_enable__E
00827aa0   xdc_runtime_Memory_HeapProxy_alloc__E
00827ac0   xdc_runtime_Memory_HeapProxy_free__E
00827ae0   xdc_runtime_Startup_exec__I
00827b00   xdc_runtime_Startup_reset__I
00827b20   xdc_runtime_SysMin_ready__E
00827b20   xdc_runtime_System_SupportProxy_ready__E
00827b40   xdc_runtime_System_Module_GateProxy_enter__E
00827b60   xdc_runtime_System_Module_GateProxy_leave__E
00827b80   xdc_runtime_System_Module_startup__E
00827ba0   xdc_runtime_System_snprintf_va__E
00827ba0   xdc_runtime_System_snprintf_va__F
00827ba0   xdc_runtime_System_vsnprintf__E
00827bc0   xdc_runtime_Text_visitRope__I
00827be0   xdc_runtime_Text_charTab__A
00829219   ti_sysbios_timers_timer64_Timer_localTimerBaseId__C
0082921a   ti_sysbios_family_c64p_Exception_Module__id__C
00829738   ti_sysbios_family_c66_Cache_marvalues__C
00829f8a   ti_sysbios_family_c64p_Exception_useInternalBuffer__C
0082a0f8   _ctypes_
0082a1fa   ti_sysbios_family_c64p_Hwi_Module__id__C
0082a200   xdc_runtime_Text_nodeTab__A
0082a3b8   _ZTVSt13basic_filebufIcSt11char_traitsIcEE
0082a400   _ZTVSt13basic_filebufIwSt11char_traitsIwEE
0082a448   _ZTVSt15basic_streambufIcSt11char_traitsIcEE
0082a490   _ZTVSt15basic_streambufIwSt11char_traitsIwEE
0082a518   _ZTVSt5ctypeIwE
0082a558   xdc_runtime_LoggerBuf_Module__FXNS__C
0082a598   _ZTSSt7num_putIcSt19ostreambuf_iteratorIcSt11char_traitsIcEEE
0082a5d2   ti_sysbios_family_c64p_Hwi_Module__loggerDefined__C
0082a604   _ZNSs4nposE
0082a608   _ZTVSi
0082a630   _ZTTSi
0082a638   _ZTVSo
0082a660   _ZTTSo
0082a668   _ZTVSt13basic_istreamIwSt11char_traitsIwEE
0082a690   _ZTTSt13basic_istreamIwSt11char_traitsIwEE
0082a698   _ZTVSt13basic_ostreamIwSt11char_traitsIwEE
0082a6c0   _ZTTSt13basic_ostreamIwSt11char_traitsIwEE
0082a6c8   _ZTVSt5ctypeIcE
0082a6f8   _ZTVSt7num_putIcSt19ostreambuf_iteratorIcSt11char_traitsIcEEE
0082a728   xdc_runtime_Startup_sfxnTab__A
0082a784   _ZSt7_BADOFF
0082a788   _ZTVSt7codecvtIcciE
0082a7b4   ti_sysbios_family_c64p_Exception_E_exceptionMax__C
0082a7b8   _ZTVSt7codecvtIwciE
0082a7e4   ti_sysbios_family_c64p_Exception_exceptionHook__C
0082a7e8   _ZTSSt15basic_streambufIcSt11char_traitsIcEE
0082a812   ti_sysbios_gates_GateMutex_Module__id__C
0082a814   ti_sysbios_family_c64p_Exception_externalHook__C
0082a818   _ZTSSt15basic_streambufIwSt11char_traitsIwEE
0082a842   ti_sysbios_hal_Hwi_Module__id__C
0082a844   ti_sysbios_heaps_HeapMem_Module__FXNS__C
0082a86c   xdc_runtime_LoggerBuf_Object__PARAMS__C
0082a894   ti_sysbios_family_c64p_Exception_internalHook__C
0082a898   _ZTSSt13basic_filebufIcSt11char_traitsIcEE
0082a8c0   _ZTSSt13basic_filebufIwSt11char_traitsIwEE
0082a8e8   _ZTSSt13basic_istreamIwSt11char_traitsIwEE
0082a910   _ZTSSt13basic_ostreamIwSt11char_traitsIwEE
0082a938   _ZTSN10__cxxabiv121__vmi_class_type_infoE
0082a95e   ti_sysbios_heaps_HeapMem_Module__id__C
0082a960   _ZTSN10__cxxabiv120__si_class_type_infoE
0082a986   ti_sysbios_knl_Clock_Module__id__C
0082a9ac   ti_sysbios_family_c64p_Exception_nmiHook__C
0082a9b0   _ZTVSt8numpunctIcE
0082a9d4   ti_sysbios_gates_GateHwi_Module__FXNS__C
0082a9f8   ti_sysbios_gates_GateMutex_Module__FXNS__C
0082aa1c   ti_sysbios_heaps_HeapMem_Object__PARAMS__C
0082aa40   ti_sysbios_knl_Semaphore_Object__PARAMS__C
0082aa64   ti_sysbios_family_c64p_Hwi_LD_end__C
0082aa68   _ZTSN10__cxxabiv117__class_type_infoE
0082aa8a   ti_sysbios_knl_Clock_Module__loggerDefined__C
0082aa8c   ti_sysbios_family_c64p_Hwi_LM_begin__C
0082aa90   _ZTSSt9basic_iosIcSt11char_traitsIcEE
0082aab2   ti_sysbios_knl_Semaphore_Module__id__C
0082aab4   ti_sysbios_family_c64p_Hwi_Module__diagsEnabled__C
0082aab8   _ZTSSt9basic_iosIwSt11char_traitsIwEE
0082aada   ti_sysbios_knl_Semaphore_Module__loggerDefined__C
0082aafc   ti_sysbios_gates_GateHwi_Object__DESC__C
0082ab1c   ti_sysbios_gates_GateMutex_Object__DESC__C
0082ab3c   ti_sysbios_heaps_HeapMem_Object__DESC__C
0082ab5c   ti_sysbios_knl_Queue_Object__DESC__C
0082ab7c   ti_sysbios_knl_Semaphore_Object__DESC__C
0082ab9c   xdc_runtime_LoggerBuf_Object__DESC__C
0082abbc   ti_sysbios_family_c64p_Hwi_Module__diagsIncluded__C
0082abc0   _ZTVSt12codecvt_base
0082abf4   _ZTISi
0082ac0c   _ZTISo
0082ac24   _ZTISt13basic_istreamIwSt11char_traitsIwEE
0082ac3c   _ZTISt13basic_ostreamIwSt11char_traitsIwEE
0082ac54   ti_sysbios_family_c64p_Hwi_Module__diagsMask__C
0082ac58   _ZTVNSt8ios_base7failureE
0082ac70   _ZTVSt11logic_error
0082ac88   _ZTVSt12length_error
0082aca0   _ZTVSt12out_of_range
0082acb8   _ZTVSt13runtime_error
0082acd0   _ZTVSt9exception
0082ace8   ti_sysbios_gates_GateHwi_Object__PARAMS__C
0082ad00   ti_sysbios_gates_GateMutex_Object__PARAMS__C
0082ad18   ti_sysbios_knl_Queue_Object__PARAMS__C
0082ad30   xdc_runtime_Startup_sfxnRts__A
0082ad48   _ZTSNSt8ios_base7failureE
0082ad5e   ti_sysbios_knl_Swi_Module__id__C
0082ad88   _ZTSNSt6locale7_LocimpE
0082ad9c   ti_sysbios_family_c64p_Hwi_Module__loggerFxn1__C
0082ada0   _ZTSNSt6locale5facetE
0082adb2   ti_sysbios_knl_Swi_Module__loggerDefined__C
0082adb4   ti_sysbios_family_c64p_Hwi_Module__loggerFxn8__C
0082adb8   _ZTSSt13runtime_error
0082adca   ti_sysbios_knl_Task_Module__id__C
0082adcc   ti_sysbios_family_c64p_Hwi_Module__loggerObj__C
0082add0   _ZTSSt12codecvt_base
0082ade2   ti_sysbios_knl_Task_Module__loggerDefined__C
0082ade4   ti_sysbios_gates_GateMutex_A_badContext__C
0082ade8   _ZTSSt12length_error
0082adfa   ti_sysbios_knl_Task_initStackFlag__C
0082adfc   ti_sysbios_gates_GateMutex_Instance_State_sem__O
0082ae00   _ZTSSt12out_of_range
0082ae12   ti_sysbios_timers_timer64_Timer_Module__id__C
0082ae14   _ZTIN10__cxxabiv117__class_type_infoE
0082ae32   ti_sysbios_timers_timer64_Timer_startupNeeded__C
0082ae44   ti_sysbios_gates_GateMutex_Module__diagsEnabled__C
0082ae48   _ZTSSt11logic_error
0082ae58   _ZTSSt7codecvtIcciE
0082ae68   _ZTSSt7codecvtIwciE
0082ae78   _ZTVN10__cxxabiv117__class_type_infoE
0082ae88   _ZTVN10__cxxabiv120__si_class_type_infoE
0082ae98   _ZTVN10__cxxabiv121__vmi_class_type_infoE
0082aea8   _ZTVNSt6locale5facetE
0082aeb8   _ZTVNSt6locale7_LocimpE
0082aec8   _ZTVSt10ctype_base
0082aed8   _ZTVSt8ios_base
0082aee8   _ZTVSt9basic_iosIcSt11char_traitsIcEE
0082aef8   _ZTVSt9basic_iosIwSt11char_traitsIwEE
0082af08   _ZTSSt10ctype_base
0082af18   _ZTSSt8numpunctIcE
0082af28   _ZTSSt9exception
0082af36   ti_sysbios_timers_timer64_Timer_useTimer64pRegMap__C
0082af38   _ZTSSt9type_info
0082af46   xdc_runtime_Core_Module__id__C
0082af48   _ZTIN10__cxxabiv120__si_class_type_infoE
0082af54   _ZTIN10__cxxabiv121__vmi_class_type_infoE
0082af60   _ZTINSt6locale7_LocimpE
0082af6c   _ZTINSt8ios_base7failureE
0082af78   _ZTISt10ctype_base
0082af84   _ZTISt11logic_error
0082af90   _ZTISt12codecvt_base
0082af9c   _ZTISt12length_error
0082afa8   _ZTISt12out_of_range
0082afb4   _ZTISt13basic_filebufIcSt11char_traitsIcEE
0082afc0   _ZTISt13basic_filebufIwSt11char_traitsIwEE
0082afcc   _ZTISt13runtime_error
0082afd8   _ZTISt5ctypeIcE
0082afe4   _ZTISt5ctypeIwE
0082aff0   _ZTISt7codecvtIcciE
0082affc   _ZTISt7codecvtIwciE
0082b008   _ZTISt7num_putIcSt19ostreambuf_iteratorIcSt11char_traitsIcEEE
0082b014   _ZTISt8ios_base
0082b020   _ZTISt8numpunctIcE
0082b02c   _ZTISt9basic_iosIcSt11char_traitsIcEE
0082b038   _ZTISt9basic_iosIwSt11char_traitsIwEE
0082b044   ti_sysbios_gates_GateMutex_Module__diagsIncluded__C
0082b048   _ZTSSt5_IosbIiE
0082b054   ti_sysbios_gates_GateMutex_Module__diagsMask__C
0082b058   _ZTSSt5ctypeIcE
0082b064   ti_sysbios_hal_Hwi_E_stackOverflow__C
0082b068   _ZTSSt5ctypeIwE
0082b074   ti_sysbios_heaps_HeapMem_A_align__C
0082b078   _ZTSSt8ios_base
0082b084   ti_sysbios_family_c66_Cache_initSize__C
0082b09a   xdc_runtime_Error_Module__loggerDefined__C
0082b0ac   _ZTINSt6locale5facetE
0082b0b4   _ZTISt15basic_streambufIcSt11char_traitsIcEE
0082b0bc   _ZTISt15basic_streambufIwSt11char_traitsIwEE
0082b0c4   _ZTISt5_IosbIiE
0082b0cc   _ZTISt9exception
0082b0d4   _ZTISt9type_info
0082b0e4   ti_sysbios_knl_Idle_funcList__C
0082b0ec   ti_sysbios_heaps_HeapMem_A_heapSize__C
0082b0f0   xdc_runtime_Startup_firstFxns__A
0082b0f8   xdc_runtime_Startup_firstFxns__C
0082b100   xdc_runtime_Startup_lastFxns__C
0082b108   _ZZNKSt8_Locinfo9_GetfalseEvEs
0082b10e   xdc_runtime_Error_maxDepth__C
0082b110   _ZZNKSt8_Locinfo8_GettrueEvEs
0082b116   xdc_runtime_LoggerBuf_Module__id__C
0082b118   ti_sysbios_heaps_HeapMem_A_invalidFree__C
0082b11c   ti_sysbios_heaps_HeapMem_A_zeroBlock__C
0082b120   ti_sysbios_heaps_HeapMem_E_memory__C
0082b124   ti_sysbios_heaps_HeapMem_Module__diagsEnabled__C
0082b128   ti_sysbios_heaps_HeapMem_Module__diagsIncluded__C
0082b12c   ti_sysbios_heaps_HeapMem_Module__diagsMask__C
0082b130   ti_sysbios_heaps_HeapMem_Module__gateObj__C
0082b134   ti_sysbios_heaps_HeapMem_Object__count__C
0082b138   ti_sysbios_heaps_HeapMem_reqAlign__C
0082b13c   ti_sysbios_knl_Clock_LM_begin__C
0082b140   ti_sysbios_knl_Clock_LM_tick__C
0082b144   ti_sysbios_knl_Clock_LW_delayed__C
0082b148   ti_sysbios_knl_Clock_Module_State_clockQ__O
0082b14c   ti_sysbios_knl_Clock_Module__diagsEnabled__C
0082b150   ti_sysbios_knl_Clock_Module__diagsIncluded__C
0082b154   ti_sysbios_knl_Clock_Module__diagsMask__C
0082b158   ti_sysbios_knl_Clock_Module__loggerFxn1__C
0082b15c   ti_sysbios_knl_Clock_Module__loggerFxn2__C
0082b160   ti_sysbios_knl_Clock_Module__loggerObj__C
0082b164   ti_sysbios_knl_Semaphore_A_badContext__C
0082b168   ti_sysbios_knl_Idle_funcList__A
0082b16c   ti_sysbios_knl_Semaphore_A_noEvents__C
0082b170   ti_sysbios_knl_Semaphore_A_overflow__C
0082b174   ti_sysbios_knl_Semaphore_A_pendTaskDisabled__C
0082b178   ti_sysbios_knl_Semaphore_Instance_State_pendQ__O
0082b17c   ti_sysbios_knl_Semaphore_LM_pend__C
0082b180   ti_sysbios_knl_Semaphore_LM_post__C
0082b184   ti_sysbios_knl_Semaphore_Module__diagsEnabled__C
0082b188   ti_sysbios_knl_Semaphore_Module__diagsIncluded__C
0082b18c   ti_sysbios_knl_Semaphore_Module__diagsMask__C
0082b190   ti_sysbios_knl_Semaphore_Module__loggerFxn2__C
0082b194   ti_sysbios_knl_Semaphore_Module__loggerFxn4__C
0082b198   ti_sysbios_knl_Semaphore_Module__loggerObj__C
0082b19c   ti_sysbios_knl_Swi_LD_end__C
0082b1a0   ti_sysbios_knl_Swi_LM_begin__C
0082b1a4   ti_sysbios_knl_Swi_LM_post__C
0082b1a8   ti_sysbios_knl_Swi_Module__diagsEnabled__C
0082b1ac   ti_sysbios_knl_Swi_Module__diagsIncluded__C
0082b1b0   ti_sysbios_knl_Swi_Module__diagsMask__C
0082b1b4   ti_sysbios_knl_Swi_Module__loggerFxn1__C
0082b1b8   ti_sysbios_knl_Swi_Module__loggerFxn4__C
0082b1bc   ti_sysbios_knl_Swi_Module__loggerObj__C
0082b1c0   ti_sysbios_knl_Swi_Object__count__C
0082b1c4   ti_sysbios_knl_Task_E_spOutOfBounds__C
0082b1c8   ti_sysbios_knl_Task_E_stackOverflow__C
0082b1cc   ti_sysbios_knl_Task_LD_block__C
0082b1d0   ti_sysbios_knl_Task_LD_exit__C
0082b1d4   ti_sysbios_knl_Task_LD_ready__C
0082b1d8   ti_sysbios_knl_Task_LM_switch__C
0082b1dc   ti_sysbios_knl_Task_Module_State_inactiveQ__O
0082b1e0   ti_sysbios_knl_Task_Module__diagsEnabled__C
0082b1e4   ti_sysbios_knl_Task_Module__diagsIncluded__C
0082b1e8   ti_sysbios_knl_Task_Module__diagsMask__C
0082b1ec   ti_sysbios_knl_Task_Module__loggerFxn2__C
0082b1f0   ti_sysbios_knl_Task_Module__loggerFxn4__C
0082b1f4   ti_sysbios_knl_Task_Module__loggerObj__C
0082b1f8   ti_sysbios_knl_Task_Object__count__C
0082b1fc   ti_sysbios_knl_Task_allBlockedFunc__C
0082b200   ti_sysbios_knl_Task_numConstructedTasks__C
0082b204   ti_sysbios_timers_timer64_Timer_A_notAvailable__C
0082b208   ti_sysbios_timers_timer64_Timer_E_cannotSupport__C
0082b20c   ti_sysbios_timers_timer64_Timer_Module__diagsEnabled__C
0082b210   ti_sysbios_timers_timer64_Timer_Module__diagsIncluded__C
0082b214   ti_sysbios_timers_timer64_Timer_Module__diagsMask__C
0082b218   ti_sysbios_timers_timer64_Timer_anyMaskHigh__C
0082b21c   ti_sysbios_timers_timer64_Timer_anyMask__C
0082b220   ti_sysbios_timers_timer64_Timer_freqDivisor__C
0082b224   ti_sysbios_timers_timer64_Timer_numLocalTimers__C
0082b228   ti_sysbios_timers_timer64_Timer_numTimerDevices__C
0082b22c   xdc_runtime_Assert_E_assertFailed__C
0082b230   xdc_runtime_Core_A_initializedParams__C
0082b234   xdc_runtime_Core_Module__diagsEnabled__C
0082b238   xdc_runtime_Core_Module__diagsIncluded__C
0082b23c   xdc_runtime_Core_Module__diagsMask__C
0082b240   xdc_runtime_Error_E_memory__C
0082b244   xdc_runtime_Error_Module__diagsEnabled__C
0082b248   xdc_runtime_Error_Module__diagsIncluded__C
0082b24c   xdc_runtime_Error_Module__diagsMask__C
0082b250   xdc_runtime_Error_Module__loggerFxn8__C
0082b254   xdc_runtime_Error_Module__loggerObj__C
0082b258   xdc_runtime_Error_policyFxn__C
0082b25c   xdc_runtime_Error_policy__C
0082b260   xdc_runtime_Error_raiseHook__C
0082b264   xdc_runtime_IFilterLogger_Interface__BASE__C
0082b268   xdc_runtime_IGateProvider_Interface__BASE__C
0082b26c   xdc_runtime_IHeap_Interface__BASE__C
0082b270   xdc_runtime_ILogger_Interface__BASE__C
0082b274   xdc_runtime_IModule_Interface__BASE__C
0082b278   xdc_runtime_Log_L_error__C
0082b27c   xdc_runtime_LoggerBuf_E_badLevel__C
0082b280   xdc_runtime_LoggerBuf_Module__gateObj__C
0082b284   xdc_runtime_LoggerBuf_Object__count__C
0082b288   xdc_runtime_LoggerBuf_statusLogger__C
0082b28c   xdc_runtime_Memory_defaultHeapInstance__C
0082b290   xdc_runtime_Startup_execImpl__C
0082b294   xdc_runtime_Startup_maxPasses__C
0082b298   xdc_runtime_Startup_sfxnRts__C
0082b29c   xdc_runtime_Startup_sfxnTab__C
0082b2a0   xdc_runtime_SysMin_bufSize__C
0082b2a4   xdc_runtime_SysMin_outputFunc__C
0082b2a8   xdc_runtime_System_Module__gateObj__C
0082b2ac   xdc_runtime_System_abortFxn__C
0082b2b0   xdc_runtime_System_exitFxn__C
0082b2b4   xdc_runtime_System_extendFxn__C
0082b2b8   xdc_runtime_System_maxAtexitHandlers__C
0082b2bc   xdc_runtime_Text_charTab__C
0082b2c0   xdc_runtime_Text_nameEmpty__C
0082b2c4   xdc_runtime_Text_nameStatic__C
0082b2c8   xdc_runtime_Text_nameUnknown__C
0082b2cc   xdc_runtime_Text_nodeTab__C
0082b2d0   xdc_runtime_Text_visitRopeFxn__C
0082b2d4   xdc_runtime_LoggerBuf_filterByLevel__C
0082b2d6   xdc_runtime_Memory_Module__id__C
0082b2d8   _ZZNKSt7num_putIcSt19ostreambuf_iteratorIcSt11char_traitsIcEEE6do_putES3_RSt8ios_basecPKvEs
0082b2dc   xdc_runtime_SysMin_flushAtExit__C
0082b2de   xdc_runtime_Text_charCnt__C
0082b2e0   _ZZNKSt7num_putIcSt19ostreambuf_iteratorIcSt11char_traitsIcEEE6do_putES3_RSt8ios_baseclEs
0082b2e4   xdc_runtime_Text_isLoaded__C
0082b2e6   xdc_runtime_Text_registryModsLastId__C
0082b2e8   _ZZNKSt7num_putIcSt19ostreambuf_iteratorIcSt11char_traitsIcEEE6do_putES3_RSt8ios_basecmEs
0082b2ec   xdc_runtime_Text_unnamedModsLastId__C
0082b2f0   _ZZNKSt7num_putIcSt19ostreambuf_iteratorIcSt11char_traitsIcEEE6do_putES3_RSt8ios_basecxEs
0082b2f8   _ZZNKSt7num_putIcSt19ostreambuf_iteratorIcSt11char_traitsIcEEE6do_putES3_RSt8ios_basecyEs
0082b300   _ZTSSi
0082b308   _ZTSSo
0082b310   _ZZNKSt7num_putIcSt19ostreambuf_iteratorIcSt11char_traitsIcEEE5_FputES3_RSt8ios_basecPKcjjjjEs
0082b318   _ZZNKSt7num_putIcSt19ostreambuf_iteratorIcSt11char_traitsIcEEE5_FputES3_RSt8ios_basecPKcjjjjEs_0
0082b320   ti_sysbios_knl_Task_Instance_State_0_stack__A
0082bb20   ti_sysbios_knl_Task_Instance_State_1_stack__A
0082c320   ti_sysbios_knl_Task_Instance_State_2_stack__A
0082cb20   xdc_runtime_LoggerBuf_Instance_State_0_entryArr__A
0082cd20   xdc_runtime_SysMin_Module_State_0_outbuf__A
0082d014   _ZSt4wcin
0082d050   _ZSt5wcout
0082d088   _ZSt5wcerr
0082d0c0   _ZSt5wclog
0082d198   _ZSt3cin
0082d1d4   _ZSt4cout
0082d25c   _ZSt4cerr
0082d294   _ZSt4clog
0082d2cc   dlConfig
0082d450   sysConfig
0082d460   __TI_tmpnams
0082d5a0   _ZNSt7codecvtIwciE2idE
0082d5a4   _ZNSt5ctypeIcE2idE
0082d5ac   _ZNSt10moneypunctIwLb0EE2idE
0082d5b8   _ZGVNSt10moneypunctIwLb0EE2idE
0082d5c0   _ZGVNSt10moneypunctIwLb1EE2idE
0082d5c8   _ZGVNSt7codecvtIcciE2idE
0082d5d0   _ZGVNSt7collateIwE2idE
0082d5d8   _ZGVNSt7num_getIwSt19istreambuf_iteratorIwSt11char_traitsIwEEE2idE
0082d5e0   _ZGVNSt7num_putIwSt19ostreambuf_iteratorIwSt11char_traitsIwEEE2idE
0082d5e8   _ZGVNSt8messagesIwE2idE
0082d5f0   _ZGVNSt8numpunctIwE2idE
0082d5f8   _ZGVNSt8time_getIwSt19istreambuf_iteratorIwSt11char_traitsIwEEE2idE
0082d600   _ZGVNSt9money_getIwSt19istreambuf_iteratorIwSt11char_traitsIwEEE2idE
0082d608   _ZGVNSt9money_putIwSt19ostreambuf_iteratorIwSt11char_traitsIwEEE2idE
0082d610   _ZNSt10moneypunctIwLb1EE2idE
0082d614   _ZNSt13basic_filebufIcSt11char_traitsIcEE7_StinitE
0082d618   _ZNSt13basic_filebufIwSt11char_traitsIwEE7_StinitE
0082d61c   _ZNSt4fposIiE4_StzE
0082d620   _ZNSt7codecvtIcciE2idE
0082d624   _ZNSt7collateIwE2idE
0082d628   _ZNSt7num_getIwSt19istreambuf_iteratorIwSt11char_traitsIwEEE2idE
0082d62c   _ZNSt7num_putIcSt19ostreambuf_iteratorIcSt11char_traitsIcEEE2idE
0082d630   _ZNSt7num_putIwSt19ostreambuf_iteratorIwSt11char_traitsIwEEE2idE
0082d634   _ZNSt8messagesIwE2idE
0082d638   _ZNSt8numpunctIcE2idE
0082d63c   _ZNSt8numpunctIwE2idE
0082d640   _ZNSt8time_getIwSt19istreambuf_iteratorIwSt11char_traitsIwEEE2idE
0082d644   _ZNSt8time_putIwSt19ostreambuf_iteratorIwSt11char_traitsIwEEE2idE
0082d648   _ZNSt9money_getIwSt19istreambuf_iteratorIwSt11char_traitsIwEEE2idE
0082d64c   _ZNSt9money_putIwSt19ostreambuf_iteratorIwSt11char_traitsIwEEE2idE
0082d650   _ZNSt5ctypeIwE2idE
0082d670   _stack
0082f670   __TI_STACK_END
0082f670   ti_sysbios_BIOS_Module__state__V
0082f694   ti_sysbios_family_c64p_Exception_Module__state__V
0082f6c4   ti_sysbios_family_c64p_Hwi_Module__root__V
0082f6cc   ti_sysbios_family_c64p_Hwi_Module__state__V
0082f734   ti_sysbios_gates_GateHwi_Module__root__V
0082f73c   ti_sysbios_gates_GateMutex_Module__root__V
0082f744   ti_sysbios_hal_Hwi_Module__root__V
0082f74c   ti_sysbios_heaps_HeapMem_Module__root__V
0082f754   ti_sysbios_knl_Clock_Module__root__V
0082f75c   ti_sysbios_knl_Clock_Module__state__V
0082f788   ti_sysbios_knl_Queue_Module__root__V
0082f790   ti_sysbios_knl_Semaphore_Module__root__V
0082f798   ti_sysbios_knl_Swi_Module__root__V
0082f7a0   ti_sysbios_knl_Swi_Module__state__V
0082f7bc   ti_sysbios_knl_Task_Module__root__V
0082f7c4   ti_sysbios_knl_Task_Module__state__V
0082f808   ti_sysbios_timers_timer64_Timer_Module__root__V
0082f810   ti_sysbios_timers_timer64_Timer_Module__state__V
0082f828   xdc_runtime_Error_Module__state__V
0082f82c   xdc_runtime_LoggerBuf_Module__root__V
0082f834   xdc_runtime_LoggerBuf_Module__state__V
0082f83c   xdc_runtime_Memory_Module__state__V
0082f840   xdc_runtime_Registry_Module__state__V
0082f848   xdc_runtime_Startup_Module__state__V
0082f850   xdc_runtime_SysMin_Module__state__V
0082f85c   xdc_runtime_System_Module__state__V
0082f864   xdc_runtime_Text_Module__state__V
0082f86c   __xdc__init__addr
0082f870   _ftable
0082fa50   ti_sysbios_knl_Task_Object__table__V
0082fae8   TSK_idle
0082fb34   _ZNSt9_FacetptrISt5ctypeIcEE6_PsaveE
0082fb38   ti_sysbios_timers_timer64_Timer_Module_State_0_device__A
0082fc98   ti_sysbios_knl_Swi_Object__table__V
0082fd28   ti_sysbios_knl_Swi_Module_State_0_readyQ__A
0082fda8   ti_sysbios_knl_Task_Module_State_0_readyQ__A
0082fea0   _FDenorm
0082feb0   _FEps
0082fec0   _FInf
0082fed0   _FNan
0082fee0   _FSnan
0082fef0   _FRteps
0082ff00   _FXbig
0082ff04   _FZero
0082ff08   ti_sysbios_timers_timer64_Timer_Object__table__V
0082ff9c   _ZNSt9_FacetptrISt5ctypeIwEE6_PsaveE
0082ffa0   ti_sysbios_gates_GateMutex_Object__table__V
0082ffe0   ti_sysbios_knl_Clock_Object__table__V
00830020   ti_sysbios_timers_timer64_Timer_Module_State_0_gctrl__A
00830060   ti_sysbios_timers_timer64_Timer_Module_State_0_handles__A
008300a0   ti_sysbios_timers_timer64_Timer_Module_State_0_intFreqs__A
008300e0   C_locale
00830114   _ZNSt9_FacetptrISt7codecvtIcciEE6_PsaveE
00830118   ti_sysbios_heaps_HeapMem_Object__table__V
00830148   ti_sysbios_knl_Semaphore_Object__table__V
008301a0   xdc_runtime_LoggerBuf_Object__table__V
008301c4   _ZNSt9_FacetptrISt7codecvtIwciEE6_PsaveE
008301e8   ti_sysbios_family_c64p_Hwi_Object__table__V
00830200   _ZNSt6locale2id7_Id_cntE
00830204   _ZNSt6locale7_Locimp8_ClocptrE
00830214   _ZNSt9_FacetptrISt7num_putIcSt19ostreambuf_iteratorIcSt11char_traitsIcEEEE6_PsaveE
00830218   xdc_runtime_System_Module_State_0_atexitHandlers__A
00830234   __TI_cleanup_ptr
00830238   __TI_dtors_ptr
0083023c   __TI_enable_exit_profile_output
00830240   _ZNSt8ios_base6_IndexE
00830244   _ZNSt8ios_base5_SyncE
00830248   _ZSt4_Fpz
0083024c   _ZNSt9_FacetptrISt8numpunctIcEE6_PsaveE
0083025c   _lock
00830260   ti_sysbios_hal_Hwi_Object__table__V
0083026c   _unlock
00830270   __TI_ft_end
00830278   __errno
00830278   errno
0083027c   _ZNSt8ios_base4Init9_Init_cntE
00830280   _ZSt14_Raise_handler
00830288   _new_handler
0083028c   _ZNSt6_Winit9_Init_cntE
00830290   ti_sysbios_gates_GateHwi_Object__table__V
00830298   ti_sysbios_knl_Task_Module_State_0_idleTask__A
008302a0   __CIOBUF_
00830400   ti_sysbios_family_c64p_Hwi0
00830400   ti_sysbios_family_c64p_Hwi_int0
00830420   ti_sysbios_family_c64p_Hwi_int1
00830440   ti_sysbios_family_c64p_Hwi_int2
00830460   ti_sysbios_family_c64p_Hwi_int3
00830480   ti_sysbios_family_c64p_Hwi_int4
008304a0   ti_sysbios_family_c64p_Hwi_int5
008304c0   ti_sysbios_family_c64p_Hwi_int6
008304e0   ti_sysbios_family_c64p_Hwi_int7
00830500   ti_sysbios_family_c64p_Hwi_int8
00830520   ti_sysbios_family_c64p_Hwi_int9
00830540   ti_sysbios_family_c64p_Hwi_int10
00830560   ti_sysbios_family_c64p_Hwi_int11
00830580   ti_sysbios_family_c64p_Hwi_int12
008305a0   ti_sysbios_family_c64p_Hwi_int13
008305c0   ti_sysbios_family_c64p_Hwi_int14
008305e0   ti_sysbios_family_c64p_Hwi_int15
00830600   __TI_INITARRAY_Base
00830648   _ZGVNSt7num_putIcSt19ostreambuf_iteratorIcSt11char_traitsIcEEE2idE
00830648   __TI_INITARRAY_Limit
00830648   __TI_STATIC_BASE
00830650   _ZGVNSt8numpunctIcE2idE
00830658   dynamicMemory
0083065c   __dso_handle
00830660   g_nUsers
00830662   g_nTransmit
00830664   g_nReceive
00830666   g_nSchedBlocks
0083066c   clock0
00830670   clock1
00830674   swiHandleA
00830678   swiHandleB
0083067c   task0
00830680   reInitSystem
00830684   bufferHeap
00830688   task1
0083068c   schedDispSem
00830d1c   __TI_Handler_Table_Base
00830d28   __TI_Handler_Table_Limit
00830d48   __TI_CINIT_Base
00830d80   __TI_CINIT_Limit
0c000000   ti_sysbios_heaps_HeapMem_Instance_State_0_buf__A
0c07fff8   ti_sysbios_heaps_HeapMem_Instance_State_1_buf__A
0c0ffff0   globalChannelMatrix
ffffffff   __TI_pprof_out_hndl
ffffffff   __TI_prof_data_size
ffffffff   __TI_prof_data_start
ffffffff   __binit__
ffffffff   __c_args__
ffffffff   binit

[1326 symbols]
