******************************************************************************
               TMS320C6x Linker Unix v7.4.8                    
******************************************************************************
>> Linked Mon Jun 23 16:38:39 2014

OUTPUT FILE NAME:   <schedulerTIKernel.out>
ENTRY POINT SYMBOL: "_c_int00"  address: 008241a0


MEMORY CONFIGURATION

         name            origin    length      used     unused   attr    fill
----------------------  --------  ---------  --------  --------  ----  --------
  L2SRAM                00800000   00100000  00031d84  000ce27c  RW X
  MSMCSRAM              0c000000   00200000  00014810  001eb7f0  RW X
  DDR3                  80000000   20000000  00000000  20000000  RWIX


SEGMENT ALLOCATION MAP

run origin  load origin   length   init length attrs members
----------  ----------- ---------- ----------- ----- -------
00800000    00800000    0002af00   0002af00    r-x
  00800000    00800000    0002af00   0002af00    r-x .text
0082af00    0082af00    00002db0   00000000    rw-
  0082af00    0082af00    00002db0   00000000    rw- .far
0082dcb0    0082dcb0    0000220c   0000220c    r--
  0082dcb0    0082dcb0    0000220c   0000220c    r-- .const
0082fec0    0082fec0    00000e6c   00000e6c    rw-
  0082fec0    0082fec0    00000e6c   00000e6c    rw- .fardata
00830d2c    00830d2c    00000200   00000200    rw-
  00830d2c    00830d2c    00000200   00000200    rw- .args
00830f30    00830f30    00000320   00000000    rw-
  00830f30    00830f30    00000200   00000000    rw- .stack
  00831130    00831130    00000120   00000000    rw- .cio
00831250    00831250    00000048   00000048    r--
  00831250    00831250    00000048   00000048    r-- .init_array
00831298    00831298    00000010   00000000    rw-
  00831298    00831298    00000010   00000000    rw- .bss
008312a8    008312a8    00000010   00000010    rw-
  008312a8    008312a8    00000010   00000010    rw- .neardata
008312b8    008312b8    0000001c   0000001c    r--
  008312b8    008312b8    0000001c   0000001c    r-- .rodata
008312d4    008312d4    00000010   00000010    r--
  008312d4    008312d4    00000010   00000010    r-- .switch
00831400    00831400    00000aa8   00000aa8    r-x
  00831400    00831400    00000200   00000200    r-x .vecs
  00831600    00831600    000008a8   000008a8    r-- .cinit
0c000000    0c000000    0000c800   00000000    rw-
  0c000000    0c000000    0000c800   00000000    rw- .bigmem
0c00c800    0c00c800    00008010   00008010    rw-
  0c00c800    0c00c800    00008010   00008010    rw- .memHeap


SECTION ALLOCATION MAP

 output                                  attributes/
section   page    origin      length       input sections
--------  ----  ----------  ----------   ----------------
xdc.meta   0    00800000    00000100     COPY SECTION
                  00800000    00000100     app_pe66.oe66 (xdc.meta)

xdc.noload 
*          0    00800000    00002050     COPY SECTION
                  00800000    00002050     app_pe66.oe66 (xdc.noload)

.text      0    00800000    0002af00     
                  00800000    00001ae0     blasFunctions.obj (.text)
                  00801ae0    000013a0     dynamicMemory.obj (.text)
                  00802e80    00001120     lapackFunctions.obj (.text)
                  00803fa0    00000f80     dynamicMemory.obj (.text:_ZNKSt7num_putIcSt19ostreambuf_iteratorIcSt11char_traitsIcEEE5_FputES3_RSt8ios_basecPKcjjjj)
                  00804f20    00000e00     frameworkFunctions.obj (.text)
                  00805d20    00000920     rts6600_elf.lib : wiostrea.obj (.text:_ZNSt6_WinitC1Ev)
                  00806640    000008a0     ti.targets.rts6000.ae66 : System.oe66 (.text:xdc_runtime_System_doPrint__I)
                  00806ee0    00000840     pipdScheduling.obj (.text)
                  00807720    00000780     sysbios.ae66 : BIOS.obj (.text:ti_sysbios_family_c64p_Exception_handler__I)
                  00807ea0    00000760     rts6600_elf.lib : iostream.obj (.text:_ZNSt8ios_base4InitC1Ev)
                  00808600    00000740     sysbios.ae66 : BIOS.obj (.text:ti_sysbios_knl_Semaphore_pend__E)
                  00808d40    000006a0                  : BIOS.obj (.text:ti_sysbios_timers_timer64_Timer_Module_startup__E)
                  008093e0    00000680     rts6600_elf.lib : wiostrea.obj (.text:_ZNSt13basic_filebufIwSt11char_traitsIwEE8overflowEj)
                  00809a60    00000660     sysbios.ae66 : BIOS.obj (.text:ti_sysbios_heaps_HeapMem_alloc__E)
                  0080a0c0    00000640     rts6600_elf.lib : iostream.obj (.text:_ZNSt13basic_filebufIcSt11char_traitsIcEE8overflowEi)
                  0080a700    00000620                     : wiostrea.obj (.text:_ZNSt13basic_filebufIwSt11char_traitsIwEE5uflowEv)
                  0080ad20    000005e0                     : iostream.obj (.text:_ZNSt13basic_filebufIcSt11char_traitsIcEE5uflowEv)
                  0080b300    000005e0                     : powf.obj (.text:powf)
                  0080b8e0    000005e0     sysbios.ae66 : BIOS.obj (.text:ti_sysbios_heaps_HeapMem_free__E)
                  0080bec0    000005c0     dynamicMemory.obj (.text:_ZNKSt7num_putIcSt19ostreambuf_iteratorIcSt11char_traitsIcEEE5_IputES3_RSt8ios_basecPcj)
                  0080c480    000005c0     rts6600_elf.lib : divd.obj (.text:__c6xabi_divd)
                  0080ca40    000005c0                     : _printfi.obj (.text:_getarg_diouxp)
                  0080d000    000005a0     succprojScheduling.obj (.text)
                  0080d5a0    00000580     dynamicMemory.obj (.text:_ZNKSt7num_putIcSt19ostreambuf_iteratorIcSt11char_traitsIcEEE6do_putES3_RSt8ios_basecb)
                  0080db20    00000560     displayFunctions.obj (.text)
                  0080e080    00000540     rts6600_elf.lib : iostream.obj (.text:_ZNSt13basic_filebufIcSt11char_traitsIcEE9_EndwriteEv)
                  0080e5c0    00000540                     : wiostrea.obj (.text:_ZNSt13basic_filebufIwSt11char_traitsIwEE9_EndwriteEv)
                  0080eb00    00000520                     : _printfi.obj (.text:_setfield)
                  0080f020    00000500                     : ios.obj (.text:_ZNSt8ios_base5clearENSt5_IosbIiE8_IostateEb)
                  0080f520    000004c0                     : fwrite.obj (.text:fwrite)
                  0080f9e0    000004a0     frameworkFunctions.obj (.text:_ZSt4endlIcSt11char_traitsIcEERSt13basic_ostreamIT_T0_ES6_)
                  0080fe80    00000480     sysbios.ae66 : BIOS.obj (.text:ti_sysbios_knl_Task_Module_startup__E)
                  00810300    00000460     dynamicMemory.obj (.text:_ZStlsISt11char_traitsIcEERSt13basic_ostreamIcT_ES5_PKc)
                  00810760    00000460     rts6600_elf.lib : _printfi.obj (.text:_printfi)
                  00810bc0    00000400                     : wlocale.obj (.text:__sti___11_wlocale_cpp_5e80b67f)
                  00810fc0    000003a0                     : fputs.obj (.text:fputs)
                  00811360    000003a0     supportingFunctions.obj (.text)
                  00811700    00000320     rts6600_elf.lib : _printfi.obj (.text:_pproc_fge)
                  00811a20    00000300     greedyScheduling.obj (.text)
                  00811d20    00000300     sysbios.ae66 : BIOS.obj (.text:ti_sysbios_knl_Swi_runLoop__I)
                  00812020    000002e0     dynamicMemory.obj (.text:_ZNSs6appendEPKcj)
                  00812300    000002e0     rts6600_elf.lib : _printfi.obj (.text:_pproc_fwp)
                  008125e0    000002e0     sysbios.ae66 : BIOS.obj (.text:ti_sysbios_heaps_HeapMem_Instance_init__E)
                  008128c0    000002e0                  : BIOS.obj (.text:ti_sysbios_timers_timer64_Timer_deviceConfig__I)
                  00812ba0    000002c0     ti.uia.runtime.ae66 : LoggerStopMode.oe66 (.text:ti_uia_runtime_LoggerStopMode_write8__E)
                  00812e60    000002a0     dynamicMemory.obj (.text:_ZNKSt7num_putIcSt19ostreambuf_iteratorIcSt11char_traitsIcEEE6do_putES3_RSt8ios_basecd)
                  00813100    000002a0     dynamicMemory.obj (.text:_ZNKSt7num_putIcSt19ostreambuf_iteratorIcSt11char_traitsIcEEE6do_putES3_RSt8ios_basece)
                  008133a0    000002a0     rts6600_elf.lib : _printfi.obj (.text:fcvt)
                  00813640    000002a0     sysbios.ae66 : BIOS.obj (.text:ti_sysbios_knl_Clock_workFunc__E)
                  008138e0    000002a0                  : BIOS.obj (.text:ti_sysbios_utils_Load_logLoads__I)
                  00813b80    00000280     dynamicMemory.obj (.text:_ZNSolsEj)
                  00813e00    00000280     rts6600_elf.lib : divf.obj (.text:__c6xabi_divf)
                  00814080    00000280                     : _printfi.obj (.text:ecvt)
                  00814300    00000280     ti.uia.runtime.ae66 : LoggerStopMode.oe66 (.text:ti_uia_runtime_LoggerStopMode_writeMemoryRange__E)
                  00814580    00000260     rts6600_elf.lib : wiostrea.obj (.text:_ZNSt6_WinitD1Ev)
                  008147e0    00000260                     : iostream.obj (.text:__sti___12_iostream_cpp_3a72482d)
                  00814a40    00000260                     : wiostrea.obj (.text:__sti___12_wiostrea_cpp_5e80b67f)
                  00814ca0    00000260     sysbios.ae66 : BIOS.obj (.text:ti_sysbios_family_c64p_Hwi_dispatchCore__I)
                  00814f00    00000260     ti.targets.rts6000.ae66 : Startup.oe66 (.text:xdc_runtime_Startup_startMods__I)
                  00815160    00000260     app_pe66.oe66 (.text:xdc_runtime_System_printfExtend__I)
                  008153c0    00000240     rts6600_elf.lib : iostream.obj (.text:_ZNSt13basic_filebufIcSt11char_traitsIcEE5imbueERKSt6locale)
                  00815600    00000240                     : wiostrea.obj (.text:_ZNSt13basic_filebufIwSt11char_traitsIwEE5imbueERKSt6locale)
                  00815840    00000240                     : imath64.obj (.text:__c6xabi_divull)
                  00815a80    00000240                     : _printfi.obj (.text:_pconv_e)
                  00815cc0    00000240                     : _printfi.obj (.text:_pproc_diouxp)
                  00815f00    00000240     lteSystem.obj (.text)
                  00816140    00000240     sysbios.ae66 : BIOS.obj (.text:ti_sysbios_family_c64p_Exception_internalHandler__I)
                  00816380    00000240                  : BIOS.obj (.text:ti_sysbios_knl_Semaphore_post__E)
                  008165c0    00000240                  : BIOS.obj (.text:ti_sysbios_utils_Load_updateThreadContexts__E)
                  00816800    00000240     ti.uia.runtime.ae66 : LoggerStopMode.oe66 (.text:ti_uia_runtime_LoggerStopMode_write4__E)
                  00816a40    00000240     ti.targets.rts6000.ae66 : Core-mem.oe66 (.text:xdc_runtime_Core_createObject__I)
                  00816c80    00000240                             : LoggerBuf.oe66 (.text:xdc_runtime_LoggerBuf_write8__E)
                  00816ec0    00000220     dynamicMemory.obj (.text:_ZNSs6assignERKSsjj)
                  008170e0    00000220     rts6600_elf.lib : _printfi.obj (.text:_pproc_str)
                  00817300    00000220                     : fputc.obj (.text:fputc)
                  00817520    00000220     sysbios.ae66 : BIOS.obj (.text:ti_sysbios_knl_Swi_run__I)
                  00817740    00000220                  : BIOS.obj (.text:ti_sysbios_knl_Task_schedule__I)
                  00817960    00000220                  : BIOS.obj (.text:ti_sysbios_timers_timer64_Timer_setPeriodMicroSecs__E)
                  00817b80    00000200     rts6600_elf.lib : _printfi.obj (.text:_pconv_g)
                  00817d80    00000200     sysbios.ae66 : c64p_Hwi_disp_always.obj (.text:_ti_sysbios_family_c64p_Hwi_dispatchAlways)
                  00817f80    00000200     rts6600_elf.lib : setvbuf.obj (.text:setvbuf)
                  00818180    00000200     sysbios.ae66 : BIOS.obj (.text:ti_sysbios_knl_Task_startCore__E)
                  00818380    00000200                  : BIOS.obj (.text:ti_sysbios_utils_Load_updateLoads__E)
                  00818580    00000200     ti.targets.rts6000.ae66 : Error.oe66 (.text:xdc_runtime_Error_policyDefault__E)
                  00818780    00000200                             : Log.oe66 (.text:xdc_runtime_Log_doPrint__E)
                  00818980    000001e0     sysbios.ae66 : BIOS.obj (.text:ti_sysbios_knl_Task_exit__E)
                  00818b60    000001e0                  : BIOS.obj (.text:ti_sysbios_timers_timer64_Timer_getFreq__E)
                  00818d40    000001e0                  : BIOS.obj (.text:ti_sysbios_utils_Load_idleFxn__E)
                  00818f20    000001e0     ti.targets.rts6000.ae66 : LoggerBuf.oe66 (.text:xdc_runtime_LoggerBuf_getNextEntry__E)
                  00819100    000001c0     rts6600_elf.lib : string.obj (.text:_ZNKSt12_String_base5_XranEv)
                  008192c0    000001c0     dynamicMemory.obj (.text:_ZNKSt8numpunctIcE11do_groupingEv)
                  00819480    000001c0     dynamicMemory.obj (.text:_ZNKSt8numpunctIcE11do_truenameEv)
                  00819640    000001c0     dynamicMemory.obj (.text:_ZNKSt8numpunctIcE12do_falsenameEv)
                  00819800    000001c0     dynamicMemory.obj (.text:_ZNSs6insertEjjc)
                  008199c0    000001c0     rts6600_elf.lib : iostream.obj (.text:_ZNSt8ios_base4InitD1Ev)
                  00819b80    000001c0                     : _printfi.obj (.text:_mcpy)
                  00819d40    000001c0     randomScheduling.obj (.text)
                  00819f00    000001c0     sysbios.ae66 : BIOS.obj (.text:ti_sysbios_knl_Task_checkStacks__E)
                  0081a0c0    000001c0     ti.targets.rts6000.ae66 : Text.oe66 (.text:xdc_runtime_Text_putSite__E)
                  0081a280    000001a0     rts6600_elf.lib : trgdrv.obj (.text:HOSTrename)
                  0081a420    000001a0                     : xlocinfo.obj (.text:_Getctyptab)
                  0081a5c0    000001a0                     : vec_newdel.obj (.text:_Z17array_new_generalPvjjjS_PFYS_S_ES1_PFYS_jEPFYvS_Eii)
                  0081a760    000001a0                     : wiostrea.obj (.text:_ZNKSt7codecvtIwciE5do_inERiPKcS3_RS3_PwS5_RS5_)
                  0081a900    000001a0     dynamicMemory.obj (.text:_ZNKSt7num_putIcSt19ostreambuf_iteratorIcSt11char_traitsIcEEE11_PutgroupedES3_PKcjc)
                  0081aaa0    000001a0     rts6600_elf.lib : iostream.obj (.text:_ZNSt13basic_filebufIcSt11char_traitsIcEE7seekoffElNSt5_IosbIiE8_SeekdirENS4_9_OpenmodeE)
                  0081ac40    000001a0                     : wiostrea.obj (.text:_ZNSt13basic_filebufIwSt11char_traitsIwEE7seekoffElNSt5_IosbIiE8_SeekdirENS4_9_OpenmodeE)
                  0081ade0    000001a0     dynamicMemory.obj (.text:_ZNSt8numpunctIcE5_InitERKSt8_Locinfo)
                  0081af80    000001a0     rts6600_elf.lib : imath40.obj (.text:__c6xabi_divul)
                  0081b120    000001a0     sysbios.ae66 : BIOS.obj (.text:ti_sysbios_gates_GateMutex_enter__E)
                  0081b2c0    000001a0                  : BIOS.obj (.text:ti_sysbios_knl_Task_unblockI__E)
                  0081b460    000001a0                  : BIOS.obj (.text:ti_sysbios_timers_timer64_Timer_start__E)
                  0081b600    000001a0     ti.targets.rts6000.ae66 : LoggerBuf.oe66 (.text:xdc_runtime_LoggerBuf_write4__E)
                  0081b7a0    00000180     rts6600_elf.lib : wiostrea.obj (.text:_ZNKSt5ctypeIwE10do_toupperEPwPKw)
                  0081b920    00000180                     : wiostrea.obj (.text:_ZNKSt7codecvtIwciE6do_outERiPKwS3_RS3_PcS5_RS5_)
                  0081baa0    00000180     frameworkFunctions.obj (.text:_ZNSo6sentryC1ERSo)
                  0081bc20    00000180     rts6600_elf.lib : iostream.obj (.text:_ZNSt13basic_filebufIcSt11char_traitsIcEE7seekposESt4fposIiENSt5_IosbIiE9_OpenmodeE)
                  0081bda0    00000180                     : wiostrea.obj (.text:_ZNSt13basic_filebufIwSt11char_traitsIwEE7seekposESt4fposIiENSt5_IosbIiE9_OpenmodeE)
                  0081bf20    00000180                     : wiostrea.obj (.text:_ZSt9use_facetISt5ctypeIwEERKT_RKSt6locale)
                  0081c0a0    00000180                     : copy_decompress_rle.obj (.text:__TI_decompress_rle_core)
                  0081c220    00000180     sysbios.ae66 : c64p_Exception_asm.obj (.text)
                  0081c3a0    00000180                  : BIOS.obj (.text:ti_sysbios_utils_Load_taskCreateHook__E)
                  0081c520    00000180     ti.targets.rts6000.ae66 : Core-smem.oe66 (.text:xdc_runtime_Core_constructObject__I)
                  0081c6a0    00000160     rts6600_elf.lib : string.obj (.text:_ZNKSt12_String_base5_XlenEv)
                  0081c800    00000160                     : ios.obj (.text:_ZNSs6assignEPKcj)
                  0081c960    00000160                     : iostream.obj (.text:_ZNSt13basic_filebufIcSt11char_traitsIcEE9pbackfailEi)
                  0081cac0    00000160                     : iostream.obj (.text:_ZNSt13basic_filebufIcSt11char_traitsIcEED0Ev)
                  0081cc20    00000160                     : wiostrea.obj (.text:_ZNSt13basic_filebufIwSt11char_traitsIwEE9pbackfailEj)
                  0081cd80    00000160                     : wiostrea.obj (.text:_ZNSt13basic_filebufIwSt11char_traitsIwEED0Ev)
                  0081cee0    00000160                     : iostream.obj (.text:_ZNSt9basic_iosIcSt11char_traitsIcEE4initEPSt15basic_streambufIcS1_Eb)
                  0081d040    00000160                     : wiostrea.obj (.text:_ZNSt9basic_iosIwSt11char_traitsIwEE4initEPSt15basic_streambufIwS1_Eb)
                  0081d1a0    00000160                     : iostream.obj (.text:_ZSt9use_facetISt5ctypeIcEERKT_RKSt6locale)
                  0081d300    00000160                     : frexpf.obj (.text:frexpf)
                  0081d460    00000160                     : ldexpf.obj (.text:ldexpf)
                  0081d5c0    00000140     dynamicMemory.obj (.text:_ZNSs5_CopyEjj)
                  0081d700    00000140     rts6600_elf.lib : iostream.obj (.text:_ZNSt13basic_filebufIcSt11char_traitsIcEE6setbufEPci)
                  0081d840    00000140                     : iostream.obj (.text:_ZNSt13basic_filebufIcSt11char_traitsIcEED1Ev)
                  0081d980    00000140                     : wiostrea.obj (.text:_ZNSt13basic_filebufIwSt11char_traitsIwEED1Ev)
                  0081dac0    00000140                     : locale0.obj (.text:_ZNSt6locale5_InitEv)
                  0081dc00    00000140                     : locale0.obj (.text:_ZNSt6locale7_LocimpD1Ev)
                  0081dd40    00000140                     : locale0.obj (.text:_ZNSt8_LocinfoC1EPKc)
                  0081de80    00000140     dynamicMemory.obj (.text:_ZSt9use_facetISt7num_putIcSt19ostreambuf_iteratorIcSt11char_traitsIcEEEERKT_RKSt6locale)
                  0081dfc0    00000140     dynamicMemory.obj (.text:_ZSt9use_facetISt8numpunctIcEERKT_RKSt6locale)
                  0081e100    00000140     boot.ae66 : autoinit.oe66 (.text:_auto_init_elf)
                  0081e240    00000140     rts6600_elf.lib : _printfi.obj (.text:_pproc_fflags)
                  0081e380    00000140                     : fgetc.obj (.text:fgetc)
                  0081e4c0    00000140                     : lowlev.obj (.text:getdevice)
                  0081e600    00000140     schedulingAlgorithms.obj (.text)
                  0081e740    00000140     sysbios.ae66 : BIOS.obj (.text:ti_sysbios_family_c64p_Hwi_Module_startup__E)
                  0081e880    00000140                  : BIOS.obj (.text:ti_sysbios_family_c66_Cache_Module_startup__E)
                  0081e9c0    00000140                  : BIOS.obj (.text:ti_sysbios_knl_Semaphore_Instance_init__E)
                  0081eb00    00000140                  : BIOS.obj (.text:ti_sysbios_knl_Swi_post__E)
                  0081ec40    00000140                  : BIOS.obj (.text:ti_sysbios_knl_Task_blockI__E)
                  0081ed80    00000140     rts6600_elf.lib : ungetc.obj (.text:ungetc)
                  0081eec0    00000140     ti.targets.rts6000.ae66 : Text.oe66 (.text:xdc_runtime_Text_putLab__E)
                  0081f000    00000120     rts6600_elf.lib : wiostrea.obj (.text:_ZNKSt5ctypeIwE5do_isEPKwS2_Ps)
                  0081f120    00000120                     : wiostrea.obj (.text:_ZNKSt5ctypeIwE9do_narrowEPKwS2_cPc)
                  0081f240    00000120                     : wiostrea.obj (.text:_ZNKSt7codecvtIwciE9do_lengthERKiPKcS4_j)
                  0081f360    00000120                     : wiostrea.obj (.text:_ZNSt13basic_filebufIwSt11char_traitsIwEE6setbufEPwi)
                  0081f480    00000120                     : wiostrea.obj (.text:_ZNSt15basic_streambufIwSt11char_traitsIwEE6xsgetnEPwi)
                  0081f5a0    00000120                     : locale0.obj (.text:_ZNSt8_LocinfoD1Ev)
                  0081f6c0    00000120                     : _bufread.obj (.text:_buff_read)
                  0081f7e0    00000120                     : fclose.obj (.text:_closefile)
                  0081f900    00000120                     : _printfi.obj (.text:_ltostr)
                  0081fa20    00000120                     : fseek.obj (.text:fseek)
                  0081fb40    00000120                     : ftell.obj (.text:ftell)
                  0081fc60    00000120                     : sqrtf.obj (.text:sqrtf)
                  0081fd80    00000120     sysbios.ae66 : BIOS.obj (.text:ti_sysbios_utils_Load_taskDeleteHook__E)
                  0081fea0    00000120                  : BIOS.obj (.text:ti_sysbios_utils_Load_updateCurrentThreadTime__E)
                  0081ffc0    00000120     ti.uia.runtime.ae66 : LoggerStopMode.oe66 (.text:ti_uia_runtime_LoggerStopMode_setFilterLevel__E)
                  008200e0    00000120                         : QueueDescriptor.oe66 (.text:ti_uia_runtime_QueueDescriptor_addToList__E)
                  00820200    00000120     ti.targets.rts6000.ae66 : LoggerBuf.oe66 (.text:xdc_runtime_LoggerBuf_setFilterLevel__E)
                  00820320    00000120                             : Text.oe66 (.text:xdc_runtime_Text_putMod__E)
                  00820440    00000100     rts6600_elf.lib : trgdrv.obj (.text:HOSTlseek)
                  00820540    00000100                     : iostream.obj (.text:_ZNSt15basic_streambufIcSt11char_traitsIcEE6xsgetnEPci)
                  00820640    00000100                     : iostream.obj (.text:_ZNSt15basic_streambufIcSt11char_traitsIcEE6xsputnEPKci)
                  00820740    00000100                     : wiostrea.obj (.text:_ZNSt15basic_streambufIwSt11char_traitsIwEE6xsputnEPKwi)
                  00820840    00000100                     : _io_perm.obj (.text:_wrt_ok)
                  00820940    00000100     memoryManagement.obj (.text)
                  00820a40    00000100     sysbios.ae66 : BIOS.obj (.text:ti_sysbios_knl_Swi_restoreHwi__E)
                  00820b40    00000100                  : BIOS.obj (.text:ti_sysbios_timers_timer64_Timer_initDevice__I)
                  00820c40    00000100     ti.uia.runtime.ae66 : LoggerStopMode.oe66 (.text:ti_uia_runtime_LoggerStopMode_getContents__E)
                  00820d40    00000100                         : LoggerStopMode.oe66 (.text:ti_uia_runtime_LoggerStopMode_getFilterLevel__E)
                  00820e40    00000100     ti.targets.rts6000.ae66 : Core-mem.oe66 (.text:xdc_runtime_Core_deleteObject__I)
                  00820f40    00000100                             : LoggerBuf.oe66 (.text:xdc_runtime_LoggerBuf_getFilterLevel__E)
                  00821040    00000100                             : Startup.oe66 (.text:xdc_runtime_Startup_exec__E)
                  00821140    000000e0     rts6600_elf.lib : trgdrv.obj (.text:HOSTopen)
                  00821220    000000e0                     : trgdrv.obj (.text:HOSTread)
                  00821300    000000e0                     : locale0.obj (.text:_Fac_tidy)
                  008213e0    000000e0     dynamicMemory.obj (.text:_ZNSs5eraseEjj)
                  008214c0    000000e0     rts6600_elf.lib : divi.obj (.text:__divi)
                  008215a0    000000e0                     : _printfi.obj (.text:_div)
                  00821680    000000e0                     : atoi.obj (.text:atoi)
                  00821760    000000e0                     : lowlev.obj (.text:close)
                  00821840    000000e0                     : copy_zero_init.obj (.text:decompress:ZI:__TI_zero_init)
                  00821920    000000e0                     : fflush.obj (.text:fflush)
                  00821a00    000000e0                     : ltoa.obj (.text:ltoa)
                  00821ae0    000000e0                     : memset.obj (.text:memset)
                  00821bc0    000000e0                     : printf.obj (.text:printf)
                  00821ca0    000000e0     sysbios.ae66 : BIOS.obj (.text:ti_sysbios_timers_timer64_Timer_startup__E)
                  00821d80    000000e0     ti.uia.runtime.ae66 : LoggerStopMode.oe66 (.text:ti_uia_runtime_LoggerStopMode_writeBlockOfMemory__I)
                  00821e60    000000e0                         : QueueDescriptor.oe66 (.text:ti_uia_runtime_QueueDescriptor_removeFromList__E)
                  00821f40    000000e0     ti.targets.rts6000.ae66 : Error.oe66 (.text:xdc_runtime_Error_print__E)
                  00822020    000000e0                             : LoggerBuf.oe66 (.text:xdc_runtime_LoggerBuf_flushAll__E)
                  00822100    000000e0                             : Memory.oe66 (.text:xdc_runtime_Memory_alloc__E)
                  008221e0    000000c0     rts6600_elf.lib : trgdrv.obj (.text:HOSTunlink)
                  008222a0    000000c0                     : trgdrv.obj (.text:HOSTwrite)
                  00822360    000000c0                     : dtor_list.obj (.text:_Z11__TI_atexitPFYvPvES_S_)
                  00822420    000000c0                     : wiostrea.obj (.text:_ZNKSt5ctypeIwE10do_tolowerEPwPKw)
                  008224e0    000000c0                     : wiostrea.obj (.text:_ZNKSt7codecvtIwciE10do_unshiftERiPcS2_RS2_)
                  008225a0    000000c0     dynamicMemory.obj (.text:_ZNKSt7num_putIcSt19ostreambuf_iteratorIcSt11char_traitsIcEEE6do_putES3_RSt8ios_basecPKv)
                  00822660    000000c0     dynamicMemory.obj (.text:_ZNSo5flushEv)
                  00822720    000000c0     rts6600_elf.lib : iostream.obj (.text:_ZNSt13basic_filebufIcSt11char_traitsIcEE5_InitEPSt4FILENS2_7_InitflE)
                  008227e0    000000c0                     : locale0.obj (.text:_ZNSt6locale7_LocimpC1Eb)
                  008228a0    000000c0                     : ios.obj (.text:_ZNSt8ios_baseD1Ev)
                  00822960    000000c0                     : dtor_list.obj (.text:__cxa_finalize)
                  00822a20    000000c0                     : divu.obj (.text:__divu)
                  00822ae0    000000c0                     : remi.obj (.text:__remi)
                  00822ba0    000000c0                     : fflush.obj (.text:_doflush)
                  00822c60    000000c0                     : _io_perm.obj (.text:_rd_ok)
                  00822d20    000000c0                     : exit.obj (.text:exit)
                  00822de0    000000c0     sysbios.ae66 : BIOS.obj (.text:ti_sysbios_heaps_HeapMem_getStats__E)
                  00822ea0    000000c0                  : BIOS.obj (.text:ti_sysbios_knl_Clock_logTick__E)
                  00822f60    000000c0                  : BIOS.obj (.text:ti_sysbios_knl_Swi_schedule__I)
                  00823020    000000c0                  : BIOS.obj (.text:ti_sysbios_knl_Task_allBlockedFunction__I)
                  008230e0    000000c0                  : BIOS.obj (.text:ti_sysbios_timers_timer64_Timer_stop__E)
                  008231a0    000000c0                  : BIOS.obj (.text:ti_sysbios_utils_Load_taskSwitchHook__E)
                  00823260    000000c0     ti.uia.runtime.ae66 : LoggerStopMode.oe66 (.text:ti_uia_runtime_LoggerStopMode_Instance_init__F)
                  00823320    000000c0                         : LoggerStopMode.oe66 (.text:ti_uia_runtime_LoggerStopMode_Module_startup__F)
                  008233e0    000000c0     app_pe66.oe66 (.text:ti_uia_runtime_LoggerStopMode_Object__create__S)
                  008234a0    000000c0     ti.targets.rts6000.ae66 : Error.oe66 (.text:xdc_runtime_Error_setX__E)
                  00823560    000000c0                             : LoggerBuf.oe66 (.text:xdc_runtime_LoggerBuf_Instance_init__E)
                  00823620    000000c0     app_pe66.oe66 (.text:xdc_runtime_LoggerBuf_Object__create__S)
                  008236e0    000000c0     ti.targets.rts6000.ae66 : System.oe66 (.text:xdc_runtime_System_formatNum__I)
                  008237a0    000000a0     rts6600_elf.lib : trgdrv.obj (.text:HOSTclose)
                  00823840    000000a0                     : locale0.obj (.text:_Setgloballocale)
                  008238e0    000000a0                     : wiostrea.obj (.text:_ZNKSt5ctypeIwE8do_widenEPKcS2_Pw)
                  00823980    000000a0     dynamicMemory.obj (.text:_ZNKSt7num_putIcSt19ostreambuf_iteratorIcSt11char_traitsIcEEE5_IfmtEPcPKcNSt5_IosbIiE9_FmtflagsE)
                  00823a20    000000a0     rts6600_elf.lib : string.obj (.text:_ZNSt11logic_errorD1Ev)
                  00823ac0    000000a0                     : string.obj (.text:_ZNSt12length_errorD1Ev)
                  00823b60    000000a0                     : string.obj (.text:_ZNSt12out_of_rangeC1ERKSs)
                  00823c00    000000a0                     : string.obj (.text:_ZNSt12out_of_rangeD1Ev)
                  00823ca0    000000a0                     : iostream.obj (.text:_ZNSt13basic_filebufIcSt11char_traitsIcEE9underflowEv)
                  00823d40    000000a0                     : wiostrea.obj (.text:_ZNSt13basic_filebufIwSt11char_traitsIwEE9underflowEv)
                  00823de0    000000a0                     : ios.obj (.text:_ZNSt13runtime_errorD1Ev)
                  00823e80    000000a0                     : ios.obj (.text:_ZNSt8ios_base5_InitEv)
                  00823f20    000000a0                     : ios.obj (.text:_ZNSt8ios_base5_TidyEv)
                  00823fc0    000000a0                     : ios.obj (.text:_ZNSt8ios_base7failureD1Ev)
                  00824060    000000a0                     : new_.obj (.text:_Znwj)
                  00824100    000000a0                     : remu.obj (.text:__remu)
                  008241a0    000000a0     boot.ae66 : boot.oe66 (.text:_c_int00)
                  00824240    000000a0     rts6600_elf.lib : fopen.obj (.text:_cleanup)
                  008242e0    000000a0                     : _printfi.obj (.text:_ecpy)
                  00824380    000000a0                     : _printfi.obj (.text:_fcpy)
                  00824420    000000a0                     : _printfi.obj (.text:_pconv_f)
                  008244c0    000000a0                     : lowlev.obj (.text:finddevice)
                  00824560    000000a0     globalDeclarations.obj (.text)
                  00824600    000000a0     rts6600_elf.lib : lowlev.obj (.text:lseek)
                  008246a0    000000a0                     : memcpy64.obj (.text:memcpy)
                  00824740    000000a0                     : lowlev.obj (.text:read)
                  008247e0    000000a0     sysMainLTE.obj (.text)
                  00824880    000000a0     sysbios.ae66 : BIOS.obj (.text:ti_sysbios_family_c64p_Exception_Module_startup__E)
                  00824920    000000a0                  : BIOS.obj (.text:ti_sysbios_heaps_HeapMem_init__I)
                  008249c0    000000a0     ti.uia.runtime.ae66 : LoggerStopMode.oe66 (.text:ti_uia_runtime_LoggerStopMode_readBlockOfMemory__I)
                  00824a60    000000a0     rts6600_elf.lib : lowlev.obj (.text:write)
                  00824b00    000000a0     ti.targets.rts6000.ae66 : Assert.oe66 (.text:xdc_runtime_Assert_raise__I)
                  00824ba0    000000a0                             : LoggerBuf.oe66 (.text:xdc_runtime_LoggerBuf_Module_startup__E)
                  00824c40    000000a0                             : SysMin.oe66 (.text:xdc_runtime_SysMin_abort__E)
                  00824ce0    000000a0                             : SysMin.oe66 (.text:xdc_runtime_SysMin_flush__E)
                  00824d80    000000a0                             : SysMin.oe66 (.text:xdc_runtime_SysMin_putch__E)
                  00824e20    000000a0                             : Text.oe66 (.text:xdc_runtime_Text_xprintf__I)
                  00824ec0    00000080     rts6600_elf.lib : wiostrea.obj (.text:_ZNKSt5ctypeIwE10do_scan_isEsPKwS2_)
                  00824f40    00000080                     : wiostrea.obj (.text:_ZNKSt5ctypeIwE10do_tolowerEw)
                  00824fc0    00000080                     : wiostrea.obj (.text:_ZNKSt5ctypeIwE11do_scan_notEsPKwS2_)
                  00825040    00000080                     : locale0.obj (.text:_ZNKSt6locale9_GetfacetEj)
                  008250c0    00000080     dynamicMemory.obj (.text:_ZNKSt7num_putIcSt19ostreambuf_iteratorIcSt11char_traitsIcEEE6do_putES3_RSt8ios_basecl)
                  00825140    00000080     dynamicMemory.obj (.text:_ZNKSt7num_putIcSt19ostreambuf_iteratorIcSt11char_traitsIcEEE6do_putES3_RSt8ios_basecm)
                  008251c0    00000080     dynamicMemory.obj (.text:_ZNKSt7num_putIcSt19ostreambuf_iteratorIcSt11char_traitsIcEEE6do_putES3_RSt8ios_basecx)
                  00825240    00000080     dynamicMemory.obj (.text:_ZNKSt7num_putIcSt19ostreambuf_iteratorIcSt11char_traitsIcEEE6do_putES3_RSt8ios_basecy)
                  008252c0    00000080     rts6600_elf.lib : ios.obj (.text:_ZNKSt9exception6_RaiseEv)
                  00825340    00000080                     : string.obj (.text:_ZNSsC1EPKc)
                  008253c0    00000080                     : string.obj (.text:_ZNSt11logic_errorC2ERKSs)
                  00825440    00000080                     : string.obj (.text:_ZNSt11logic_errorD0Ev)
                  008254c0    00000080                     : string.obj (.text:_ZNSt12length_errorD0Ev)
                  00825540    00000080                     : string.obj (.text:_ZNSt12out_of_rangeD0Ev)
                  008255c0    00000080                     : iostream.obj (.text:_ZNSt13basic_filebufIcSt11char_traitsIcEE4syncEv)
                  00825640    00000080                     : wiostrea.obj (.text:_ZNSt13basic_filebufIwSt11char_traitsIwEE4syncEv)
                  008256c0    00000080                     : ios.obj (.text:_ZNSt13runtime_errorD0Ev)
                  00825740    00000080     dynamicMemory.obj (.text:_ZNSt15basic_streambufIcSt11char_traitsIcEE5sputcEc)
                  008257c0    00000080     frameworkFunctions.obj (.text:_ZNSt5ctypeIcED0Ev)
                  00825840    00000080     frameworkFunctions.obj (.text:_ZNSt5ctypeIcED1Ev)
                  008258c0    00000080     rts6600_elf.lib : locale0.obj (.text:_ZNSt6locale5facet9_RegisterEv)
                  00825940    00000080     dynamicMemory.obj (.text:_ZNSt6localeD1Ev)
                  008259c0    00000080     rts6600_elf.lib : ios.obj (.text:_ZNSt8ios_base7_AddstdEv)
                  00825a40    00000080                     : ios.obj (.text:_ZNSt8ios_base7failureD0Ev)
                  00825ac0    00000080                     : ios.obj (.text:_ZNSt8ios_base8_CallfnsENS_5eventE)
                  00825b40    00000080     dynamicMemory.obj (.text:_ZNSt8numpunctIcED0Ev)
                  00825bc0    00000080     rts6600_elf.lib : throw.obj (.text:_ZSt14_Debug_messagePKcS0_)
                  00825c40    00000080                     : fixfu.obj (.text:__c6xabi_fixfu)
                  00825cc0    00000080                     : llshift.obj (.text:__c6xabi_llshl)
                  00825d40    00000080                     : roundf.obj (.text:__c6xabi_roundf)
                  00825dc0    00000080     sysbios.ae66 : c62_TaskSupport_asm.obj (.text:_ti_sysbios_family_c62_TaskSupport_swap__E)
                  00825e40    00000080     app_pe66.oe66 (.text:malloc)
                  00825ec0    00000080     rts6600_elf.lib : rand.obj (.text:rand)
                  00825f40    00000080                     : trgmsg.obj (.text:readmsg)
                  00825fc0    00000080     sysbios.ae66 : BIOS.obj (.text:ti_sysbios_family_c62_TaskSupport_start__E)
                  00826040    00000080                  : BIOS.obj (.text:ti_sysbios_family_c64p_Hwi_dispatchC__I)
                  008260c0    00000080                  : BIOS.obj (.text:ti_sysbios_family_c64p_Hwi_getStackInfo__E)
                  00826140    00000080                  : BIOS.obj (.text:ti_sysbios_hal_Hwi_checkStack)
                  008261c0    00000080                  : BIOS.obj (.text:ti_sysbios_hal_Hwi_initStack)
                  00826240    00000080                  : BIOS.obj (.text:ti_sysbios_knl_Idle_run__E)
                  008262c0    00000080                  : BIOS.obj (.text:ti_sysbios_knl_Swi_startup__E)
                  00826340    00000080                  : BIOS.obj (.text:ti_sysbios_knl_Task_restore__E)
                  008263c0    00000080     ti.uia.runtime.ae66 : LoggerStopMode.oe66 (.text:ti_uia_runtime_LoggerStopMode_disable__E)
                  00826440    00000080                         : LoggerStopMode.oe66 (.text:ti_uia_runtime_LoggerStopMode_enable__E)
                  008264c0    00000080                         : LoggerStopMode.oe66 (.text:ti_uia_runtime_LoggerStopMode_filterOutEvent__I)
                  00826540    00000080                         : LoggerStopMode.oe66 (.text:ti_uia_runtime_LoggerStopMode_reset__F)
                  008265c0    00000080     rts6600_elf.lib : lowlev.obj (.text:unlink)
                  00826640    00000080                     : wchar.obj (.text:wmemcpy)
                  008266c0    00000080     ti.targets.rts6000.ae66 : Core-label.oe66 (.text:xdc_runtime_Core_assignLabel__I)
                  00826740    00000080                             : Core-params.oe66 (.text:xdc_runtime_Core_assignParams__I)
                  008267c0    00000080                             : LoggerBuf.oe66 (.text:xdc_runtime_LoggerBuf_filterOutEvent__I)
                  00826840    00000080                             : LoggerBuf.oe66 (.text:xdc_runtime_LoggerBuf_flush__E)
                  008268c0    00000080                             : System.oe66 (.text:xdc_runtime_System_atexit__E)
                  00826940    00000080                             : System.oe66 (.text:xdc_runtime_System_processAtExit__E)
                  008269c0    00000080                             : System.oe66 (.text:xdc_runtime_System_putchar__I)
                  00826a40    00000080                             : Text.oe66 (.text:xdc_runtime_Text_printVisFxn__I)
                  00826ac0    00000060     rts6600_elf.lib : locale0.obj (.text:_Deletegloballocale)
                  00826b20    00000060                     : xfdtest.obj (.text:_FDtest)
                  00826b80    00000060     frameworkFunctions.obj (.text:_ZNKSt5ctypeIcE10do_tolowerEPcPKc)
                  00826be0    00000060     frameworkFunctions.obj (.text:_ZNKSt5ctypeIcE10do_toupperEPcPKc)
                  00826c40    00000060     rts6600_elf.lib : wiostrea.obj (.text:_ZNKSt5ctypeIwE10do_toupperEw)
                  00826ca0    00000060                     : iostream.obj (.text:_ZNSiD0Ev)
                  00826d00    00000060                     : iostream.obj (.text:_ZNSoD0Ev)
                  00826d60    00000060                     : wiostrea.obj (.text:_ZNSt13basic_istreamIwSt11char_traitsIwEED0Ev)
                  00826dc0    00000060                     : wiostrea.obj (.text:_ZNSt13basic_ostreamIwSt11char_traitsIwEED0Ev)
                  00826e20    00000060                     : iostream.obj (.text:_ZNSt15basic_streambufIcSt11char_traitsIcEE5_InitEv)
                  00826e80    00000060                     : iostream.obj (.text:_ZNSt15basic_streambufIcSt11char_traitsIcEE5uflowEv)
                  00826ee0    00000060                     : iostream.obj (.text:_ZNSt15basic_streambufIcSt11char_traitsIcEE7seekoffElNSt5_IosbIiE8_SeekdirENS4_9_OpenmodeE)
                  00826f40    00000060                     : iostream.obj (.text:_ZNSt15basic_streambufIcSt11char_traitsIcEE7seekposESt4fposIiENSt5_IosbIiE9_OpenmodeE)
                  00826fa0    00000060                     : iostream.obj (.text:_ZNSt15basic_streambufIcSt11char_traitsIcEED0Ev)
                  00827000    00000060                     : iostream.obj (.text:_ZNSt15basic_streambufIcSt11char_traitsIcEED1Ev)
                  00827060    00000060                     : wiostrea.obj (.text:_ZNSt15basic_streambufIwSt11char_traitsIwEE5_InitEv)
                  008270c0    00000060                     : wiostrea.obj (.text:_ZNSt15basic_streambufIwSt11char_traitsIwEE5uflowEv)
                  00827120    00000060                     : wiostrea.obj (.text:_ZNSt15basic_streambufIwSt11char_traitsIwEE7seekoffElNSt5_IosbIiE8_SeekdirENS4_9_OpenmodeE)
                  00827180    00000060                     : wiostrea.obj (.text:_ZNSt15basic_streambufIwSt11char_traitsIwEE7seekposESt4fposIiENSt5_IosbIiE9_OpenmodeE)
                  008271e0    00000060                     : wiostrea.obj (.text:_ZNSt15basic_streambufIwSt11char_traitsIwEED0Ev)
                  00827240    00000060                     : wiostrea.obj (.text:_ZNSt15basic_streambufIwSt11char_traitsIwEED1Ev)
                  008272a0    00000060                     : wiostrea.obj (.text:_ZNSt5ctypeIwED0Ev)
                  00827300    00000060                     : wiostrea.obj (.text:_ZNSt5ctypeIwED1Ev)
                  00827360    00000060                     : locale0.obj (.text:_ZNSt6locale7_LocimpD0Ev)
                  008273c0    00000060                     : locale0.obj (.text:_ZNSt6localeC1Ev)
                  00827420    00000060                     : ios.obj (.text:_ZNSt8ios_baseD0Ev)
                  00827480    00000060     dynamicMemory.obj (.text:_ZNSt8numpunctIcED1Ev)
                  008274e0    00000060     rts6600_elf.lib : iostream.obj (.text:_ZNSt9basic_iosIcSt11char_traitsIcEED0Ev)
                  00827540    00000060                     : wiostrea.obj (.text:_ZNSt9basic_iosIwSt11char_traitsIwEED0Ev)
                  008275a0    00000060                     : iostream.obj (.text:_ZTv0_n12_NSiD0Ev)
                  00827600    00000060                     : iostream.obj (.text:_ZTv0_n12_NSoD0Ev)
                  00827660    00000060                     : wiostrea.obj (.text:_ZTv0_n12_NSt13basic_istreamIwSt11char_traitsIwEED0Ev)
                  008276c0    00000060                     : wiostrea.obj (.text:_ZTv0_n12_NSt13basic_ostreamIwSt11char_traitsIwEED0Ev)
                  00827720    00000060                     : frcmpyd_div.obj (.text:__c6xabi_frcmpyd_div)
                  00827780    00000060                     : llshift.obj (.text:__c6xabi_llshru)
                  008277e0    00000060                     : vec_newdel.obj (.text:__cxa_vec_ctor)
                  00827840    00000060                     : vec_newdel.obj (.text:__cxa_vec_new)
                  008278a0    00000060                     : imath64.obj (.text:_subcull)
                  00827900    00000060     sysbios.ae66 : c64p_Hwi_asm_switch.obj (.text:_ti_sysbios_family_c64p_Hwi_switchAndDispatch__I)
                  00827960    00000060                  : c64p_Hwi_asm_switch.obj (.text:_ti_sysbios_family_xxx_Hwi_switchAndRunFunc)
                  008279c0    00000060     app_pe66.oe66 (.text:calloc)
                  00827a20    00000060     rts6600_elf.lib : fclose.obj (.text:fclose)
                  00827a80    00000060                     : fgetpos.obj (.text:fgetpos)
                  00827ae0    00000060                     : memccpy.obj (.text:memccpy)
                  00827b40    00000060                     : memmov.obj (.text:memmove)
                  00827ba0    00000060                     : modff.obj (.text:modff)
                  00827c00    00000060                     : setlocale.obj (.text:setlocale)
                  00827c60    00000060                     : sprintf.obj (.text:sprintf)
                  00827cc0    00000060                     : strcspn.obj (.text:strcspn)
                  00827d20    00000060     app_pe66.oe66 (.text:ti_sysbios_BIOS_atExitFunc__I)
                  00827d80    00000060     app_pe66.oe66 (.text:ti_sysbios_BIOS_errorRaiseHook__I)
                  00827de0    00000060     app_pe66.oe66 (.text:ti_sysbios_BIOS_registerRTSLock__I)
                  00827e40    00000060     app_pe66.oe66 (.text:ti_sysbios_BIOS_removeRTSLock__I)
                  00827ea0    00000060     app_pe66.oe66 (.text:ti_sysbios_BIOS_rtsUnlock__I)
                  00827f00    00000060     app_pe66.oe66 (.text:ti_sysbios_gates_GateHwi_Object__create__S)
                  00827f60    00000060     app_pe66.oe66 (.text:ti_sysbios_gates_GateMutex_Object__create__S)
                  00827fc0    00000060     app_pe66.oe66 (.text:ti_sysbios_heaps_HeapMem_Object__create__S)
                  00828020    00000060     sysbios.ae66 : BIOS.obj (.text:ti_sysbios_knl_Clock_Module_startup__E)
                  00828080    00000060     app_pe66.oe66 (.text:ti_sysbios_knl_Clock_doTick__I)
                  008280e0    00000060     app_pe66.oe66 (.text:ti_sysbios_knl_Queue_construct)
                  00828140    00000060     app_pe66.oe66 (.text:ti_sysbios_knl_Semaphore_construct)
                  008281a0    00000060     sysbios.ae66 : BIOS.obj (.text:ti_sysbios_knl_Semaphore_pendTimeout__I)
                  00828200    00000060                  : BIOS.obj (.text:ti_sysbios_knl_Swi_Module_startup__E)
                  00828260    00000060                  : BIOS.obj (.text:ti_sysbios_knl_Task_enter__I)
                  008282c0    00000060     ti.uia.runtime.ae66 : LogSync.oe66 (.text:ti_uia_runtime_LogSync_Module_startup__F)
                  00828320    00000060                         : LoggerStopMode.oe66 (.text:ti_uia_runtime_LoggerStopMode_Instance_finalize__F)
                  00828380    00000060     rts6600_elf.lib : wchar.obj (.text:ungetwc)
                  008283e0    00000060                     : trgmsg.obj (.text:writemsg)
                  00828440    00000060     ti.targets.rts6000.ae66 : Memory.oe66 (.text:xdc_runtime_Memory_calloc__E)
                  008284a0    00000060                             : SysMin.oe66 (.text:xdc_runtime_SysMin_Module_startup__E)
                  00828500    00000060                             : SysMin.oe66 (.text:xdc_runtime_SysMin_exit__E)
                  00828560    00000060     app_pe66.oe66 (.text:xdc_runtime_SysMin_output__I)
                  008285c0    00000060     ti.targets.rts6000.ae66 : System.oe66 (.text:xdc_runtime_System_avprintf__E)
                  00828620    00000060                             : System.oe66 (.text:xdc_runtime_System_vprintf__E)
                  00828680    00000060                             : Text.oe66 (.text:xdc_runtime_Text_cordText__E)
                  008286e0    00000040     frameworkFunctions.obj (.text:_ZNKSt5ctypeIcE10do_tolowerEc)
                  00828720    00000040     frameworkFunctions.obj (.text:_ZNKSt5ctypeIcE10do_toupperEc)
                  00828760    00000040     frameworkFunctions.obj (.text:_ZNKSt5ctypeIcE8do_widenEPKcS2_Pc)
                  008287a0    00000040     frameworkFunctions.obj (.text:_ZNKSt5ctypeIcE9do_narrowEPKcS2_cPc)
                  008287e0    00000040     rts6600_elf.lib : wiostrea.obj (.text:_ZNKSt5ctypeIwE5do_isEsw)
                  00828820    00000040                     : wiostrea.obj (.text:_ZNKSt5ctypeIwE8do_widenEc)
                  00828860    00000040                     : wiostrea.obj (.text:_ZNKSt5ctypeIwE9do_narrowEwc)
                  008288a0    00000040                     : iostream.obj (.text:_ZNSiD1Ev)
                  008288e0    00000040                     : iostream.obj (.text:_ZNSoD1Ev)
                  00828920    00000040                     : wiostrea.obj (.text:_ZNSt13basic_istreamIwSt11char_traitsIwEED1Ev)
                  00828960    00000040                     : wiostrea.obj (.text:_ZNSt13basic_ostreamIwSt11char_traitsIwEED1Ev)
                  008289a0    00000040                     : ios.obj (.text:_ZNSt6locale5facet7_DecrefEv)
                  008289e0    00000040                     : throw.obj (.text:_ZSt6_ThrowRKSt9exception)
                  00828a20    00000040                     : iostream.obj (.text:_ZTv0_n12_NSiD1Ev)
                  00828a60    00000040                     : iostream.obj (.text:_ZTv0_n12_NSoD1Ev)
                  00828aa0    00000040                     : wiostrea.obj (.text:_ZTv0_n12_NSt13basic_istreamIwSt11char_traitsIwEED1Ev)
                  00828ae0    00000040                     : wiostrea.obj (.text:_ZTv0_n12_NSt13basic_ostreamIwSt11char_traitsIwEED1Ev)
                  00828b20    00000040                     : isinf.obj (.text:__c6xabi_isinf)
                  00828b60    00000040                     : _printfi.obj (.text:__c6xabi_isnan)
                  00828ba0    00000040                     : locale0.obj (.text:__sti___11_locale0_cpp_36e19383)
                  00828be0    00000040                     : args_main.obj (.text:_args_main)
                  00828c20    00000040                     : sprintf.obj (.text:_outs)
                  00828c60    00000040     sysbios.ae66 : c62_TaskSupport_asm.obj (.text:_ti_sysbios_family_c62_TaskSupport_buildTaskStack)
                  00828ca0    00000040     app_pe66.oe66 (.text:free)
                  00828ce0    00000040     rts6600_elf.lib : wchar.obj (.text:mbrtowc)
                  00828d20    00000040                     : multibyte.obj (.text:mbtowc)
                  00828d60    00000040                     : strcmp.obj (.text:strcmp)
                  00828da0    00000040     app_pe66.oe66 (.text:ti_sysbios_BIOS_exitFunc__I)
                  00828de0    00000040     app_pe66.oe66 (.text:ti_sysbios_BIOS_rtsLock__I)
                  00828e20    00000040     app_pe66.oe66 (.text:ti_sysbios_BIOS_startFunc__I)
                  00828e60    00000040     app_pe66.oe66 (.text:ti_sysbios_family_c64p_Hwi_Module__startupDone__F)
                  00828ea0    00000040     sysbios.ae66 : BIOS.obj (.text:ti_sysbios_family_c64p_Hwi_disableInterrupt__E)
                  00828ee0    00000040                  : BIOS.obj (.text:ti_sysbios_family_c64p_Hwi_enableInterrupt__E)
                  00828f20    00000040     app_pe66.oe66 (.text:ti_sysbios_gates_GateHwi_Handle__label__S)
                  00828f60    00000040     app_pe66.oe66 (.text:ti_sysbios_gates_GateHwi_Object__delete__S)
                  00828fa0    00000040     app_pe66.oe66 (.text:ti_sysbios_gates_GateMutex_Handle__label__S)
                  00828fe0    00000040     sysbios.ae66 : BIOS.obj (.text:ti_sysbios_gates_GateMutex_Instance_init__E)
                  00829020    00000040     app_pe66.oe66 (.text:ti_sysbios_gates_GateMutex_Object__delete__S)
                  00829060    00000040     sysbios.ae66 : BIOS.obj (.text:ti_sysbios_gates_GateMutex_leave__E)
                  008290a0    00000040     app_pe66.oe66 (.text:ti_sysbios_heaps_HeapMem_Handle__label__S)
                  008290e0    00000040     app_pe66.oe66 (.text:ti_sysbios_heaps_HeapMem_Object__delete__S)
                  00829120    00000040     app_pe66.oe66 (.text:ti_sysbios_heaps_HeapMem_Object__get__S)
                  00829160    00000040     app_pe66.oe66 (.text:ti_sysbios_knl_Queue_Object__destruct__S)
                  008291a0    00000040     app_pe66.oe66 (.text:ti_sysbios_knl_Semaphore_Object__destruct__S)
                  008291e0    00000040     app_pe66.oe66 (.text:ti_sysbios_knl_Swi_Object__get__S)
                  00829220    00000040     app_pe66.oe66 (.text:ti_sysbios_knl_Task_Object__get__S)
                  00829260    00000040     app_pe66.oe66 (.text:ti_sysbios_timers_timer64_Timer_Module__startupDone__F)
                  008292a0    00000040     app_pe66.oe66 (.text:ti_uia_family_c66_TimestampC66XGlobal_Module__startupDone__F)
                  008292e0    00000040     app_pe66.oe66 (.text:ti_uia_runtime_LoggerStopMode_Handle__label__S)
                  00829320    00000040     app_pe66.oe66 (.text:ti_uia_runtime_LoggerStopMode_Object__delete__S)
                  00829360    00000040     app_pe66.oe66 (.text:ti_uia_runtime_LoggerStopMode_Object__get__S)
                  008293a0    00000040     ti.uia.runtime.ae66 : LoggerStopMode.oe66 (.text:ti_uia_runtime_LoggerStopMode_write0__E)
                  008293e0    00000040                         : LoggerStopMode.oe66 (.text:ti_uia_runtime_LoggerStopMode_write1__E)
                  00829420    00000040                         : LoggerStopMode.oe66 (.text:ti_uia_runtime_LoggerStopMode_write2__E)
                  00829460    00000040                         : QueueDescriptor.oe66 (.text:ti_uia_runtime_QueueDescriptor_initHeader__E)
                  008294a0    00000040     rts6600_elf.lib : wchar.obj (.text:wcrtomb)
                  008294e0    00000040     ti.targets.rts6000.ae66 : Error.oe66 (.text:xdc_runtime_Error_check__E)
                  00829520    00000040                             : Error.oe66 (.text:xdc_runtime_Error_init__E)
                  00829560    00000040                             : Error.oe66 (.text:xdc_runtime_Error_raiseX__E)
                  008295a0    00000040                             : Gate.oe66 (.text:xdc_runtime_Gate_leaveSystem__E)
                  008295e0    00000040     app_pe66.oe66 (.text:xdc_runtime_LoggerBuf_Handle__label__S)
                  00829620    00000040     ti.targets.rts6000.ae66 : LoggerBuf.oe66 (.text:xdc_runtime_LoggerBuf_Instance_finalize__E)
                  00829660    00000040     app_pe66.oe66 (.text:xdc_runtime_LoggerBuf_Object__delete__S)
                  008296a0    00000040     app_pe66.oe66 (.text:xdc_runtime_LoggerBuf_Object__get__S)
                  008296e0    00000040     ti.targets.rts6000.ae66 : LoggerBuf.oe66 (.text:xdc_runtime_LoggerBuf_write0__E)
                  00829720    00000040                             : LoggerBuf.oe66 (.text:xdc_runtime_LoggerBuf_write1__E)
                  00829760    00000040                             : LoggerBuf.oe66 (.text:xdc_runtime_LoggerBuf_write2__E)
                  008297a0    00000040                             : Memory.oe66 (.text:xdc_runtime_Memory_free__E)
                  008297e0    00000040                             : Registry.oe66 (.text:xdc_runtime_Registry_findById__E)
                  00829820    00000040                             : System.oe66 (.text:xdc_runtime_System_abort__E)
                  00829860    00000040     app_pe66.oe66 (.text:xdc_runtime_System_aprintf__E)
                  008298a0    00000040     ti.targets.rts6000.ae66 : System.oe66 (.text:xdc_runtime_System_exit__E)
                  008298e0    00000040     app_pe66.oe66 (.text:xdc_runtime_System_printf__E)
                  00829920    00000040     ti.targets.rts6000.ae66 : System.oe66 (.text:xdc_runtime_System_putch__E)
                  00829960    00000040                             : Text.oe66 (.text:xdc_runtime_Text_ropeText__E)
                  008299a0    00000020     rts6600_elf.lib : xatexit.obj (.text:_Atexit)
                  008299c0    00000020                     : locale0.obj (.text:_Getgloballocale)
                  008299e0    00000020                     : newhandler.obj (.text:_Z21__default_new_handlerv)
                  00829a00    00000020                     : typeinfo_.obj (.text:_ZN10__cxxabiv117__class_type_infoD0Ev)
                  00829a20    00000020                     : typeinfo_.obj (.text:_ZN10__cxxabiv117__class_type_infoD1Ev)
                  00829a40    00000020                     : typeinfo_.obj (.text:_ZN10__cxxabiv120__si_class_type_infoD0Ev)
                  00829a60    00000020                     : typeinfo_.obj (.text:_ZN10__cxxabiv120__si_class_type_infoD1Ev)
                  00829a80    00000020                     : typeinfo_.obj (.text:_ZN10__cxxabiv121__vmi_class_type_infoD0Ev)
                  00829aa0    00000020                     : typeinfo_.obj (.text:_ZN10__cxxabiv121__vmi_class_type_infoD1Ev)
                  00829ac0    00000020                     : string.obj (.text:_ZNKSt11logic_error4whatEv)
                  00829ae0    00000020                     : string.obj (.text:_ZNKSt11logic_error8_DoraiseEv)
                  00829b00    00000020                     : iostream.obj (.text:_ZNKSt12codecvt_base11do_encodingEv)
                  00829b20    00000020                     : iostream.obj (.text:_ZNKSt12codecvt_base13do_max_lengthEv)
                  00829b40    00000020                     : iostream.obj (.text:_ZNKSt12codecvt_base16do_always_noconvEv)
                  00829b60    00000020                     : string.obj (.text:_ZNKSt12length_error8_DoraiseEv)
                  00829b80    00000020                     : string.obj (.text:_ZNKSt12out_of_range8_DoraiseEv)
                  00829ba0    00000020                     : ios.obj (.text:_ZNKSt13runtime_error4whatEv)
                  00829bc0    00000020                     : ios.obj (.text:_ZNKSt13runtime_error8_DoraiseEv)
                  00829be0    00000020     frameworkFunctions.obj (.text:_ZNKSt5ctypeIcE8do_widenEc)
                  00829c00    00000020     frameworkFunctions.obj (.text:_ZNKSt5ctypeIcE9do_narrowEcc)
                  00829c20    00000020     rts6600_elf.lib : wiostrea.obj (.text:_ZNKSt5ctypeIwE2isEsw)
                  00829c40    00000020                     : wiostrea.obj (.text:_ZNKSt5ctypeIwE5widenEc)
                  00829c60    00000020                     : wiostrea.obj (.text:_ZNKSt5ctypeIwE6narrowEwc)
                  00829c80    00000020                     : iostream.obj (.text:_ZNKSt7codecvtIcciE10do_unshiftERiPcS2_RS2_)
                  00829ca0    00000020                     : iostream.obj (.text:_ZNKSt7codecvtIcciE5do_inERiPKcS3_RS3_PcS5_RS5_)
                  00829cc0    00000020                     : iostream.obj (.text:_ZNKSt7codecvtIcciE6do_outERiPKcS3_RS3_PcS5_RS5_)
                  00829ce0    00000020                     : iostream.obj (.text:_ZNKSt7codecvtIcciE9do_lengthERKiPKcS4_j)
                  00829d00    00000020                     : wiostrea.obj (.text:_ZNKSt7codecvtIwciE11do_encodingEv)
                  00829d20    00000020                     : wiostrea.obj (.text:_ZNKSt7codecvtIwciE13do_max_lengthEv)
                  00829d40    00000020                     : wiostrea.obj (.text:_ZNKSt7codecvtIwciE16do_always_noconvEv)
                  00829d60    00000020                     : ios.obj (.text:_ZNKSt8ios_base7failure8_DoraiseEv)
                  00829d80    00000020     dynamicMemory.obj (.text:_ZNKSt8numpunctIcE16do_decimal_pointEv)
                  00829da0    00000020     dynamicMemory.obj (.text:_ZNKSt8numpunctIcE16do_thousands_sepEv)
                  00829dc0    00000020     rts6600_elf.lib : ios.obj (.text:_ZNKSt9exception4whatEv)
                  00829de0    00000020                     : ios.obj (.text:_ZNKSt9exception8_DoraiseEv)
                  00829e00    00000020     frameworkFunctions.obj (.text:_ZNSt10ctype_baseD0Ev)
                  00829e20    00000020     frameworkFunctions.obj (.text:_ZNSt10ctype_baseD1Ev)
                  00829e40    00000020     rts6600_elf.lib : iostream.obj (.text:_ZNSt12codecvt_baseD0Ev)
                  00829e60    00000020                     : iostream.obj (.text:_ZNSt12codecvt_baseD1Ev)
                  00829e80    00000020                     : iostream.obj (.text:_ZNSt15basic_streambufIcSt11char_traitsIcEE4syncEv)
                  00829ea0    00000020                     : iostream.obj (.text:_ZNSt15basic_streambufIcSt11char_traitsIcEE5_LockEv)
                  00829ec0    00000020                     : iostream.obj (.text:_ZNSt15basic_streambufIcSt11char_traitsIcEE5imbueERKSt6locale)
                  00829ee0    00000020                     : iostream.obj (.text:_ZNSt15basic_streambufIcSt11char_traitsIcEE6setbufEPci)
                  00829f00    00000020                     : iostream.obj (.text:_ZNSt15basic_streambufIcSt11char_traitsIcEE7_UnlockEv)
                  00829f20    00000020                     : iostream.obj (.text:_ZNSt15basic_streambufIcSt11char_traitsIcEE8overflowEi)
                  00829f40    00000020                     : iostream.obj (.text:_ZNSt15basic_streambufIcSt11char_traitsIcEE9pbackfailEi)
                  00829f60    00000020                     : iostream.obj (.text:_ZNSt15basic_streambufIcSt11char_traitsIcEE9showmanycEv)
                  00829f80    00000020                     : iostream.obj (.text:_ZNSt15basic_streambufIcSt11char_traitsIcEE9underflowEv)
                  00829fa0    00000020                     : wiostrea.obj (.text:_ZNSt15basic_streambufIwSt11char_traitsIwEE4syncEv)
                  00829fc0    00000020                     : wiostrea.obj (.text:_ZNSt15basic_streambufIwSt11char_traitsIwEE5_LockEv)
                  00829fe0    00000020                     : wiostrea.obj (.text:_ZNSt15basic_streambufIwSt11char_traitsIwEE5imbueERKSt6locale)
                  0082a000    00000020                     : wiostrea.obj (.text:_ZNSt15basic_streambufIwSt11char_traitsIwEE6setbufEPwi)
                  0082a020    00000020                     : wiostrea.obj (.text:_ZNSt15basic_streambufIwSt11char_traitsIwEE7_UnlockEv)
                  0082a040    00000020                     : wiostrea.obj (.text:_ZNSt15basic_streambufIwSt11char_traitsIwEE8overflowEj)
                  0082a060    00000020                     : wiostrea.obj (.text:_ZNSt15basic_streambufIwSt11char_traitsIwEE9pbackfailEj)
                  0082a080    00000020                     : wiostrea.obj (.text:_ZNSt15basic_streambufIwSt11char_traitsIwEE9showmanycEv)
                  0082a0a0    00000020                     : wiostrea.obj (.text:_ZNSt15basic_streambufIwSt11char_traitsIwEE9underflowEv)
                  0082a0c0    00000020     frameworkFunctions.obj (.text:_ZNSt6locale5facetD0Ev)
                  0082a0e0    00000020     frameworkFunctions.obj (.text:_ZNSt6locale5facetD1Ev)
                  0082a100    00000020     rts6600_elf.lib : iostream.obj (.text:_ZNSt7codecvtIcciED0Ev)
                  0082a120    00000020                     : iostream.obj (.text:_ZNSt7codecvtIcciED1Ev)
                  0082a140    00000020                     : wiostrea.obj (.text:_ZNSt7codecvtIwciED0Ev)
                  0082a160    00000020                     : wiostrea.obj (.text:_ZNSt7codecvtIwciED1Ev)
                  0082a180    00000020     dynamicMemory.obj (.text:_ZNSt7num_putIcSt19ostreambuf_iteratorIcSt11char_traitsIcEEED0Ev)
                  0082a1a0    00000020     dynamicMemory.obj (.text:_ZNSt7num_putIcSt19ostreambuf_iteratorIcSt11char_traitsIcEEED1Ev)
                  0082a1c0    00000020     rts6600_elf.lib : iostream.obj (.text:_ZNSt9basic_iosIcSt11char_traitsIcEED1Ev)
                  0082a1e0    00000020                     : wiostrea.obj (.text:_ZNSt9basic_iosIwSt11char_traitsIwEED1Ev)
                  0082a200    00000020                     : ios.obj (.text:_ZNSt9exceptionD0Ev)
                  0082a220    00000020                     : ios.obj (.text:_ZNSt9exceptionD1Ev)
                  0082a240    00000020                     : locale0.obj (.text:_ZSt11tidy_globalv)
                  0082a260    00000020                     : delete.obj (.text:_ZdlPv)
                  0082a280    00000020                     : placenew.obj (.text:_ZnwjPv)
                  0082a2a0    00000020                     : errno.obj (.text:__c6xabi_errno_addr)
                  0082a2c0    00000020                     : negll.obj (.text:__c6xabi_negll)
                  0082a2e0    00000020                     : truncf.obj (.text:__c6xabi_truncf)
                  0082a300    00000020                     : dtor_list.obj (.text:__cxa_atexit)
                  0082a320    00000020                     : guard.obj (.text:__cxa_guard_acquire)
                  0082a340    00000020                     : guard.obj (.text:__cxa_guard_release)
                  0082a360    00000020                     : dtor_list.obj (.text:__cxa_ia64_exit)
                  0082a380    00000020                     : memzero.obj (.text:__memzero)
                  0082a3a0    00000020     ti.targets.rts6000.ae66 : xdc_noinit.oe66 (.text:__xdc__init)
                  0082a3c0    00000020     rts6600_elf.lib : _lock.obj (.text:_nop)
                  0082a3e0    00000020                     : printf.obj (.text:_outc)
                  0082a400    00000020                     : sprintf.obj (.text:_outc)
                  0082a420    00000020                     : printf.obj (.text:_outs)
                  0082a440    00000020                     : _lock.obj (.text:_register_lock)
                  0082a460    00000020                     : _lock.obj (.text:_register_unlock)
                  0082a480    00000020     sysbios.ae66 : c62_TaskSupport_asm.obj (.text:_ti_sysbios_family_c62_TaskSupport_glue)
                  0082a4a0    00000020     rts6600_elf.lib : exit.obj (.text:abort)
                  0082a4c0    00000020                     : dtor_list.obj (.text:atexit)
                  0082a4e0    00000020                     : copy_decompress_none.obj (.text:decompress:none:__TI_decompress_none)
                  0082a500    00000020                     : copy_decompress_rle.obj (.text:decompress:rle24:__TI_decompress_rle24)
                  0082a520    00000020                     : wchar.obj (.text:fgetwc)
                  0082a540    00000020                     : wchar.obj (.text:fputwc)
                  0082a560    00000020                     : fsetpos.obj (.text:fsetpos)
                  0082a580    00000020                     : setlocale.obj (.text:localeconv)
                  0082a5a0    00000020     app_pe66.oe66 (.text:ti_sysbios_BIOS_RtsGateProxy_enter__E)
                  0082a5c0    00000020     app_pe66.oe66 (.text:ti_sysbios_BIOS_RtsGateProxy_leave__E)
                  0082a5e0    00000020     sysbios.ae66 : BIOS.obj (.text:ti_sysbios_BIOS_getCpuFreq__E)
                  0082a600    00000020     app_pe66.oe66 (.text:ti_sysbios_BIOS_nullFunc__I)
                  0082a620    00000020     sysbios.ae66 : BIOS.obj (.text:ti_sysbios_BIOS_setThreadType__E)
                  0082a640    00000020                  : BIOS.obj (.text:ti_sysbios_BIOS_start__E)
                  0082a660    00000020     app_pe66.oe66 (.text:ti_sysbios_family_c62_TaskSupport_Module__startupDone__S)
                  0082a680    00000020     sysbios.ae66 : BIOS.obj (.text:ti_sysbios_family_c62_TaskSupport_checkStack__E)
                  0082a6a0    00000020                  : BIOS.obj (.text:ti_sysbios_family_c64p_Hwi_clearInterrupt__E)
                  0082a6c0    00000020                  : BIOS.obj (.text:ti_sysbios_family_c64p_Hwi_startup__E)
                  0082a6e0    00000020                  : BIOS.obj (.text:ti_sysbios_family_c64p_Hwi_switchFromBootStack__E)
                  0082a700    00000020                  : BIOS.obj (.text:ti_sysbios_family_c64p_TimestampProvider_Module_startup__E)
                  0082a720    00000020                  : BIOS.obj (.text:ti_sysbios_family_c64p_TimestampProvider_get32__E)
                  0082a740    00000020                  : BIOS.obj (.text:ti_sysbios_family_c64p_TimestampProvider_get64__E)
                  0082a760    00000020                  : BIOS.obj (.text:ti_sysbios_family_c64p_tci6488_TimerSupport_enable__E)
                  0082a780    00000020                  : BIOS.obj (.text:ti_sysbios_gates_GateHwi_Instance_init__E)
                  0082a7a0    00000020                  : BIOS.obj (.text:ti_sysbios_gates_GateHwi_enter__E)
                  0082a7c0    00000020                  : BIOS.obj (.text:ti_sysbios_gates_GateHwi_leave__E)
                  0082a7e0    00000020                  : BIOS.obj (.text:ti_sysbios_gates_GateHwi_query__E)
                  0082a800    00000020                  : BIOS.obj (.text:ti_sysbios_gates_GateMutex_Instance_finalize__E)
                  0082a820    00000020                  : BIOS.obj (.text:ti_sysbios_gates_GateMutex_query__E)
                  0082a840    00000020     app_pe66.oe66 (.text:ti_sysbios_hal_Hwi_HwiProxy_Module__startupDone__S)
                  0082a860    00000020     sysbios.ae66 : BIOS.obj (.text:ti_sysbios_hal_Hwi_Module_startup__E)
                  0082a880    00000020     app_pe66.oe66 (.text:ti_sysbios_heaps_HeapMem_Module_GateProxy_enter__E)
                  0082a8a0    00000020     app_pe66.oe66 (.text:ti_sysbios_heaps_HeapMem_Module_GateProxy_leave__E)
                  0082a8c0    00000020     sysbios.ae66 : BIOS.obj (.text:ti_sysbios_heaps_HeapMem_isBlocking__E)
                  0082a8e0    00000020     app_pe66.oe66 (.text:ti_sysbios_knl_Clock_TimerProxy_Module__startupDone__S)
                  0082a900    00000020     app_pe66.oe66 (.text:ti_sysbios_knl_Clock_TimerProxy_getMaxTicks__E)
                  0082a920    00000020     sysbios.ae66 : BIOS.obj (.text:ti_sysbios_knl_Clock_getTicks__E)
                  0082a940    00000020                  : BIOS.obj (.text:ti_sysbios_knl_Idle_loop__E)
                  0082a960    00000020                  : BIOS.obj (.text:ti_sysbios_knl_Queue_Instance_init__E)
                  0082a980    00000020     app_pe66.oe66 (.text:ti_sysbios_knl_Queue_Object__get__S)
                  0082a9a0    00000020     app_pe66.oe66 (.text:ti_sysbios_knl_Queue_destruct)
                  0082a9c0    00000020     sysbios.ae66 : BIOS.obj (.text:ti_sysbios_knl_Queue_empty__E)
                  0082a9e0    00000020                  : BIOS.obj (.text:ti_sysbios_knl_Semaphore_Instance_finalize__E)
                  0082aa00    00000020     app_pe66.oe66 (.text:ti_sysbios_knl_Semaphore_destruct)
                  0082aa20    00000020     sysbios.ae66 : BIOS.obj (.text:ti_sysbios_knl_Swi_disable__E)
                  0082aa40    00000020     app_pe66.oe66 (.text:ti_sysbios_knl_Task_SupportProxy_Module__startupDone__S)
                  0082aa60    00000020     sysbios.ae66 : BIOS.obj (.text:ti_sysbios_knl_Task_disable__E)
                  0082aa80    00000020                  : BIOS.obj (.text:ti_sysbios_knl_Task_startup__E)
                  0082aaa0    00000020                  : BIOS.obj (.text:ti_sysbios_timers_timer64_Timer_getMaxTicks__E)
                  0082aac0    00000020                  : BIOS.obj (.text:ti_sysbios_utils_Load_taskRegHook__E)
                  0082aae0    00000020     ti.uia.family.c66.ae66 : TimestampC66XGlobal.oe66 (.text:ti_uia_family_c66_TimestampC66XGlobal_Module_startup__F)
                  0082ab00    00000020     app_pe66.oe66 (.text:ti_uia_runtime_LogSync_CpuTimestampProxy_Module__startupDone__S)
                  0082ab20    00000020     app_pe66.oe66 (.text:ti_uia_runtime_LogSync_GlobalTimestampProxy_Module__startupDone__S)
                  0082ab40    00000020     ti.uia.runtime.ae66 : LoggerStopMode.oe66 (.text:ti_uia_runtime_LoggerStopMode_getFreeSize__E)
                  0082ab60    00000020                         : LoggerStopMode.oe66 (.text:ti_uia_runtime_LoggerStopMode_getInstanceId__E)
                  0082ab80    00000020                         : LoggerStopMode.oe66 (.text:ti_uia_runtime_LoggerStopMode_getMaxLength__E)
                  0082aba0    00000020                         : LoggerStopMode.oe66 (.text:ti_uia_runtime_LoggerStopMode_getPriority__E)
                  0082abc0    00000020                         : LoggerStopMode.oe66 (.text:ti_uia_runtime_LoggerStopMode_getTransferType__F)
                  0082abe0    00000020                         : LoggerStopMode.oe66 (.text:ti_uia_runtime_LoggerStopMode_getUnreadSize__E)
                  0082ac00    00000020                         : LoggerStopMode.oe66 (.text:ti_uia_runtime_LoggerStopMode_isEmpty__E)
                  0082ac20    00000020                         : LoggerStopMode.oe66 (.text:ti_uia_runtime_LoggerStopMode_setPriority__E)
                  0082ac40    00000020     rts6600_elf.lib : multibyte.obj (.text:wctomb)
                  0082ac60    00000020     ti.targets.rts6000.ae66 : Gate.oe66 (.text:xdc_runtime_Gate_enterSystem__E)
                  0082ac80    00000020     app_pe66.oe66 (.text:xdc_runtime_IHeap_alloc)
                  0082aca0    00000020     app_pe66.oe66 (.text:xdc_runtime_IHeap_free)
                  0082acc0    00000020     app_pe66.oe66 (.text:xdc_runtime_LoggerBuf_Module_GateProxy_enter__E)
                  0082ace0    00000020     app_pe66.oe66 (.text:xdc_runtime_LoggerBuf_Module_GateProxy_leave__E)
                  0082ad00    00000020     app_pe66.oe66 (.text:xdc_runtime_LoggerBuf_Object__first__S)
                  0082ad20    00000020     app_pe66.oe66 (.text:xdc_runtime_LoggerBuf_Object__next__S)
                  0082ad40    00000020     ti.targets.rts6000.ae66 : LoggerBuf.oe66 (.text:xdc_runtime_LoggerBuf_disable__E)
                  0082ad60    00000020                             : LoggerBuf.oe66 (.text:xdc_runtime_LoggerBuf_enable__E)
                  0082ad80    00000020                             : LoggerBuf.oe66 (.text:xdc_runtime_LoggerBuf_flushAllInternal__E)
                  0082ada0    00000020     app_pe66.oe66 (.text:xdc_runtime_Memory_HeapProxy_alloc__E)
                  0082adc0    00000020     app_pe66.oe66 (.text:xdc_runtime_Memory_HeapProxy_free__E)
                  0082ade0    00000020     app_pe66.oe66 (.text:xdc_runtime_Startup_exec__I)
                  0082ae00    00000020     app_pe66.oe66 (.text:xdc_runtime_Startup_reset__I)
                  0082ae20    00000020     ti.targets.rts6000.ae66 : SysMin.oe66 (.text:xdc_runtime_SysMin_ready__E)
                  0082ae40    00000020     app_pe66.oe66 (.text:xdc_runtime_System_Module_GateProxy_enter__E)
                  0082ae60    00000020     app_pe66.oe66 (.text:xdc_runtime_System_Module_GateProxy_leave__E)
                  0082ae80    00000020     ti.targets.rts6000.ae66 : System.oe66 (.text:xdc_runtime_System_Module_startup__E)
                  0082aea0    00000020                             : System.oe66 (.text:xdc_runtime_System_vsnprintf__E)
                  0082aec0    00000020     app_pe66.oe66 (.text:xdc_runtime_Text_visitRope__I)
                  0082aee0    00000020     app_pe66.oe66 (.text:xdc_runtime_Timestamp_Module__startupDone__S)

.far       0    0082af00    00002db0     UNINITIALIZED
                  0082af00    00001690     app_pe66.oe66 (.far)
                  0082c590    00001000     app_pe66.oe66 (.far:taskStackSection)
                  0082d590    000001d8     rts6600_elf.lib : wiostrea.obj (.far)
                  0082d768    000001d4                     : iostream.obj (.far)
                  0082d93c    00000192     globalDeclarations.obj (.far)
                  0082dace    00000002     blasFunctions.obj (.far)
                  0082dad0    00000140     rts6600_elf.lib : defs.obj (.far)
                  0082dc10    0000000c                     : locale0.obj (.far)
                  0082dc1c    00000004                     : wlocale.obj (.far:_ZGVNSt10moneypunctIwLb0EE2idE)
                  0082dc20    00000008                     : trgdrv.obj (.far)
                  0082dc28    00000004                     : wlocale.obj (.far:_ZGVNSt10moneypunctIwLb1EE2idE)
                  0082dc2c    00000004                     : iostream.obj (.far:_ZGVNSt7codecvtIcciE2idE)
                  0082dc30    00000004                     : wlocale.obj (.far:_ZGVNSt7collateIwE2idE)
                  0082dc34    00000004                     : wlocale.obj (.far:_ZGVNSt7num_getIwSt19istreambuf_iteratorIwSt11char_traitsIwEEE2idE)
                  0082dc38    00000004                     : wlocale.obj (.far:_ZGVNSt7num_putIwSt19ostreambuf_iteratorIwSt11char_traitsIwEEE2idE)
                  0082dc3c    00000004                     : wlocale.obj (.far:_ZGVNSt8messagesIwE2idE)
                  0082dc40    00000004                     : wlocale.obj (.far:_ZGVNSt8numpunctIwE2idE)
                  0082dc44    00000004                     : wlocale.obj (.far:_ZGVNSt8time_getIwSt19istreambuf_iteratorIwSt11char_traitsIwEEE2idE)
                  0082dc48    00000004                     : wlocale.obj (.far:_ZGVNSt9money_getIwSt19istreambuf_iteratorIwSt11char_traitsIwEEE2idE)
                  0082dc4c    00000004                     : wlocale.obj (.far:_ZGVNSt9money_putIwSt19ostreambuf_iteratorIwSt11char_traitsIwEEE2idE)
                  0082dc50    00000004                     : wlocale.obj (.far:_ZNSt10moneypunctIwLb0EE2idE)
                  0082dc54    00000004                     : wlocale.obj (.far:_ZNSt10moneypunctIwLb1EE2idE)
                  0082dc58    00000004                     : iostream.obj (.far:_ZNSt13basic_filebufIcSt11char_traitsIcEE7_StinitE)
                  0082dc5c    00000004                     : wiostrea.obj (.far:_ZNSt13basic_filebufIwSt11char_traitsIwEE7_StinitE)
                  0082dc60    00000004                     : iostream.obj (.far:_ZNSt4fposIiE4_StzE)
                  0082dc64    00000004                     : iostream.obj (.far:_ZNSt7codecvtIcciE2idE)
                  0082dc68    00000004                     : wlocale.obj (.far:_ZNSt7collateIwE2idE)
                  0082dc6c    00000004                     : wlocale.obj (.far:_ZNSt7num_getIwSt19istreambuf_iteratorIwSt11char_traitsIwEEE2idE)
                  0082dc70    00000004     dynamicMemory.obj (.far:_ZNSt7num_putIcSt19ostreambuf_iteratorIcSt11char_traitsIcEEE2idE)
                  0082dc74    00000004     rts6600_elf.lib : wlocale.obj (.far:_ZNSt7num_putIwSt19ostreambuf_iteratorIwSt11char_traitsIwEEE2idE)
                  0082dc78    00000004                     : wlocale.obj (.far:_ZNSt8messagesIwE2idE)
                  0082dc7c    00000004     dynamicMemory.obj (.far:_ZNSt8numpunctIcE2idE)
                  0082dc80    00000004     rts6600_elf.lib : wlocale.obj (.far:_ZNSt8numpunctIwE2idE)
                  0082dc84    00000004                     : wlocale.obj (.far:_ZNSt8time_getIwSt19istreambuf_iteratorIwSt11char_traitsIwEEE2idE)
                  0082dc88    00000004                     : wlocale.obj (.far:_ZNSt8time_putIwSt19ostreambuf_iteratorIwSt11char_traitsIwEEE2idE)
                  0082dc8c    00000004                     : wlocale.obj (.far:_ZNSt9money_getIwSt19istreambuf_iteratorIwSt11char_traitsIwEEE2idE)
                  0082dc90    00000004                     : wlocale.obj (.far:_ZNSt9money_putIwSt19ostreambuf_iteratorIwSt11char_traitsIwEEE2idE)
                  0082dc94    00000004                     : wlocale.obj (.far)
                  0082dc98    00000002     displayFunctions.obj (.far)
                  0082dc9a    00000002     dynamicMemory.obj (.far)
                  0082dc9c    00000002     frameworkFunctions.obj (.far)
                  0082dc9e    00000002     greedyScheduling.obj (.far)
                  0082dca0    00000002     lapackFunctions.obj (.far)
                  0082dca2    00000002     lteSystem.obj (.far)
                  0082dca4    00000002     memoryManagement.obj (.far)
                  0082dca6    00000002     pipdScheduling.obj (.far)
                  0082dca8    00000002     randomScheduling.obj (.far)
                  0082dcaa    00000002     schedulingAlgorithms.obj (.far)
                  0082dcac    00000002     succprojScheduling.obj (.far)
                  0082dcae    00000002     supportingFunctions.obj (.far)

.const     0    0082dcb0    0000220c     
                  0082dcb0    00000518     sysbios.ae66 : BIOS.obj (.const:.string)
                  0082e1c8    00000400     app_pe66.oe66 (.const:ti_sysbios_family_c66_Cache_marvalues__C)
                  0082e5c8    0000024b     dynamicMemory.obj (.const:.string)
                  0082e813    00000005     rts6600_elf.lib : setlocale.obj (.const:.string)
                  0082e818    00000202                     : xlocinfo.obj (.const:_ZSt8_Ctyptab)
                  0082ea1a    0000016a     displayFunctions.obj (.const:.string)
                  0082eb84    00000004     rts6600_elf.lib : locale0.obj (.const:.string)
                  0082eb88    00000101                     : ctype.obj (.const:.string:_ctypes_)
                  0082ec89    00000064     lteSystem.obj (.const:.string)
                  0082eced    00000002     rts6600_elf.lib : iostream.obj (.const:.string)
                  0082ecef    00000001     app_pe66.oe66 (.const:ti_sysbios_timers_timer64_Timer_localTimerBaseId__C)
                  0082ecf0    00000060     app_pe66.oe66 (.const:ti_uia_runtime_LoggerStopMode_Module__FXNS__C)
                  0082ed50    00000058     ti.targets.rts6000.ae66 : Error.oe66 (.const:.string)
                  0082eda8    00000050     app_pe66.oe66 (.const:.string)
                  0082edf8    00000048     rts6600_elf.lib : ios.obj (.const:.string)
                  0082ee40    00000048     ti.targets.rts6000.ae66 : Log.oe66 (.const:.string)
                  0082ee88    00000048     rts6600_elf.lib : iostream.obj (.const:_ZTVSt13basic_filebufIcSt11char_traitsIcEE)
                  0082eed0    00000048                     : wiostrea.obj (.const:_ZTVSt13basic_filebufIwSt11char_traitsIwEE)
                  0082ef18    00000048                     : iostream.obj (.const:_ZTVSt15basic_streambufIcSt11char_traitsIcEE)
                  0082ef60    00000048                     : wiostrea.obj (.const:_ZTVSt15basic_streambufIwSt11char_traitsIwEE)
                  0082efa8    00000040     ti.targets.rts6000.ae66 : Text.oe66 (.const:.string)
                  0082efe8    00000040     rts6600_elf.lib : wiostrea.obj (.const:_ZTVSt5ctypeIwE)
                  0082f028    0000003c     app_pe66.oe66 (.const:xdc_runtime_LoggerBuf_Module__FXNS__C)
                  0082f064    00000004     ti.targets.rts6000.ae66 : Assert.oe66 (.const:.string)
                  0082f068    0000003c     app_pe66.oe66 (.const:xdc_runtime_Startup_sfxnTab__A)
                  0082f0a4    00000004     rts6600_elf.lib : ios.obj (.const)
                  0082f0a8    0000003a     dynamicMemory.obj (.const:.string:_ZTSSt7num_putIcSt19ostreambuf_iteratorIcSt11char_traitsIcEEE)
                  0082f0e2    00000002     rts6600_elf.lib : wiostrea.obj (.const:.string)
                  0082f0e4    00000034     app_pe66.oe66 (.const:ti_uia_runtime_LoggerStopMode_Object__PARAMS__C)
                  0082f118    00000030     rts6600_elf.lib : string.obj (.const:.string)
                  0082f148    00000030                     : iostream.obj (.const:_ZTVSi)
                  0082f178    00000030                     : iostream.obj (.const:_ZTVSo)
                  0082f1a8    00000030                     : wiostrea.obj (.const:_ZTVSt13basic_istreamIwSt11char_traitsIwEE)
                  0082f1d8    00000030                     : wiostrea.obj (.const:_ZTVSt13basic_ostreamIwSt11char_traitsIwEE)
                  0082f208    00000030     frameworkFunctions.obj (.const:_ZTVSt5ctypeIcE)
                  0082f238    00000030     dynamicMemory.obj (.const:_ZTVSt7num_putIcSt19ostreambuf_iteratorIcSt11char_traitsIcEEE)
                  0082f268    0000002e     sysMainLTE.obj (.const:.string)
                  0082f296    00000002     app_pe66.oe66 (.const:ti_sysbios_family_c64p_Exception_Module__id__C)
                  0082f298    0000002c     ti.targets.rts6000.ae66 : Startup.oe66 (.const:.string)
                  0082f2c4    00000004     app_pe66.oe66 (.const:ti_sysbios_family_c64p_Exception_E_exceptionMax__C)
                  0082f2c8    0000002c     rts6600_elf.lib : iostream.obj (.const:_ZTVSt7codecvtIcciE)
                  0082f2f4    00000004     app_pe66.oe66 (.const:ti_sysbios_family_c64p_Exception_exceptionHook__C)
                  0082f2f8    0000002c     rts6600_elf.lib : wiostrea.obj (.const:_ZTVSt7codecvtIwciE)
                  0082f324    00000004     app_pe66.oe66 (.const:ti_sysbios_family_c64p_Exception_externalHook__C)
                  0082f328    00000029     rts6600_elf.lib : iostream.obj (.const:.string:_ZTSSt15basic_streambufIcSt11char_traitsIcEE)
                  0082f351    00000001     --HOLE-- [fill = 0]
                  0082f352    00000002     app_pe66.oe66 (.const:ti_sysbios_family_c64p_Exception_useInternalBuffer__C)
                  0082f354    00000004     app_pe66.oe66 (.const:ti_sysbios_family_c64p_Exception_internalHook__C)
                  0082f358    00000029     rts6600_elf.lib : wiostrea.obj (.const:.string:_ZTSSt15basic_streambufIwSt11char_traitsIwEE)
                  0082f381    00000001     --HOLE-- [fill = 0]
                  0082f382    00000002     app_pe66.oe66 (.const:ti_sysbios_family_c64p_Hwi_Module__id__C)
                  0082f384    00000028     app_pe66.oe66 (.const:ti_sysbios_heaps_HeapMem_Module__FXNS__C)
                  0082f3ac    00000028     app_pe66.oe66 (.const:xdc_runtime_LoggerBuf_Object__PARAMS__C)
                  0082f3d4    00000004     app_pe66.oe66 (.const:ti_sysbios_family_c64p_Exception_nmiHook__C)
                  0082f3d8    00000027     rts6600_elf.lib : iostream.obj (.const:.string:_ZTSSt13basic_filebufIcSt11char_traitsIcEE)
                  0082f3ff    00000001     --HOLE-- [fill = 0]
                  0082f400    00000027                     : wiostrea.obj (.const:.string:_ZTSSt13basic_filebufIwSt11char_traitsIwEE)
                  0082f427    00000001     --HOLE-- [fill = 0]
                  0082f428    00000027                     : wiostrea.obj (.const:.string:_ZTSSt13basic_istreamIwSt11char_traitsIwEE)
                  0082f44f    00000001     --HOLE-- [fill = 0]
                  0082f450    00000027                     : wiostrea.obj (.const:.string:_ZTSSt13basic_ostreamIwSt11char_traitsIwEE)
                  0082f477    00000001     --HOLE-- [fill = 0]
                  0082f478    00000026                     : typeinfo_.obj (.const:.string:_ZTSN10__cxxabiv121__vmi_class_type_infoE)
                  0082f49e    00000002     app_pe66.oe66 (.const:ti_sysbios_family_c64p_Hwi_Module__loggerDefined__C)
                  0082f4a0    00000025     rts6600_elf.lib : typeinfo_.obj (.const:.string:_ZTSN10__cxxabiv120__si_class_type_infoE)
                  0082f4c5    00000001     --HOLE-- [fill = 0]
                  0082f4c6    00000002     app_pe66.oe66 (.const:ti_sysbios_gates_GateMutex_Module__id__C)
                  0082f4c8    00000024     dynamicMemory.obj (.const:_ZTVSt8numpunctIcE)
                  0082f4ec    00000024     app_pe66.oe66 (.const:ti_sysbios_gates_GateHwi_Module__FXNS__C)
                  0082f510    00000024     app_pe66.oe66 (.const:ti_sysbios_gates_GateMutex_Module__FXNS__C)
                  0082f534    00000024     app_pe66.oe66 (.const:ti_sysbios_heaps_HeapMem_Object__PARAMS__C)
                  0082f558    00000024     app_pe66.oe66 (.const:ti_sysbios_knl_Semaphore_Object__PARAMS__C)
                  0082f57c    00000023     rts6600_elf.lib : _printfi.obj (.const:.string)
                  0082f59f    00000001     --HOLE-- [fill = 0]
                  0082f5a0    00000022                     : typeinfo_.obj (.const:.string:_ZTSN10__cxxabiv117__class_type_infoE)
                  0082f5c2    00000002     app_pe66.oe66 (.const:ti_sysbios_hal_Hwi_Module__id__C)
                  0082f5c4    00000004     app_pe66.oe66 (.const:ti_sysbios_family_c64p_Hwi_LD_end__C)
                  0082f5c8    00000022     rts6600_elf.lib : iostream.obj (.const:.string:_ZTSSt9basic_iosIcSt11char_traitsIcEE)
                  0082f5ea    00000002     app_pe66.oe66 (.const:ti_sysbios_heaps_HeapMem_Module__id__C)
                  0082f5ec    00000004     app_pe66.oe66 (.const:ti_sysbios_family_c64p_Hwi_LM_begin__C)
                  0082f5f0    00000022     rts6600_elf.lib : wiostrea.obj (.const:.string:_ZTSSt9basic_iosIwSt11char_traitsIwEE)
                  0082f612    00000020     schedulingAlgorithms.obj (.const:.string)
                  0082f632    00000002     app_pe66.oe66 (.const:ti_sysbios_knl_Clock_Module__id__C)
                  0082f634    00000020     app_pe66.oe66 (.const:ti_sysbios_gates_GateHwi_Object__DESC__C)
                  0082f654    00000020     app_pe66.oe66 (.const:ti_sysbios_gates_GateMutex_Object__DESC__C)
                  0082f674    00000020     app_pe66.oe66 (.const:ti_sysbios_heaps_HeapMem_Object__DESC__C)
                  0082f694    00000020     app_pe66.oe66 (.const:ti_sysbios_knl_Queue_Object__DESC__C)
                  0082f6b4    00000020     app_pe66.oe66 (.const:ti_sysbios_knl_Semaphore_Object__DESC__C)
                  0082f6d4    00000020     app_pe66.oe66 (.const:ti_uia_runtime_LoggerStopMode_Object__DESC__C)
                  0082f6f4    00000020     app_pe66.oe66 (.const:xdc_runtime_LoggerBuf_Object__DESC__C)
                  0082f714    00000004     app_pe66.oe66 (.const:ti_sysbios_family_c64p_Hwi_Module__diagsEnabled__C)
                  0082f718    0000001e     app_pe66.oe66 (.const:xdc_runtime_Startup_sfxnRts__A)
                  0082f736    00000002     app_pe66.oe66 (.const:ti_sysbios_knl_Clock_Module__loggerDefined__C)
                  0082f738    0000001c     rts6600_elf.lib : iostream.obj (.const:_ZTVSt12codecvt_base)
                  0082f754    00000018                     : iostream.obj (.const:_ZTISi)
                  0082f76c    00000018                     : iostream.obj (.const:_ZTISo)
                  0082f784    00000018                     : wiostrea.obj (.const:_ZTISt13basic_istreamIwSt11char_traitsIwEE)
                  0082f79c    00000018                     : wiostrea.obj (.const:_ZTISt13basic_ostreamIwSt11char_traitsIwEE)
                  0082f7b4    00000004     app_pe66.oe66 (.const:ti_sysbios_family_c64p_Hwi_Module__diagsIncluded__C)
                  0082f7b8    00000018     rts6600_elf.lib : ios.obj (.const:_ZTVNSt8ios_base7failureE)
                  0082f7d0    00000018                     : string.obj (.const:_ZTVSt11logic_error)
                  0082f7e8    00000018                     : string.obj (.const:_ZTVSt12length_error)
                  0082f800    00000018                     : string.obj (.const:_ZTVSt12out_of_range)
                  0082f818    00000018                     : ios.obj (.const:_ZTVSt13runtime_error)
                  0082f830    00000018                     : ios.obj (.const:_ZTVSt9exception)
                  0082f848    00000018     app_pe66.oe66 (.const:ti_sysbios_gates_GateHwi_Object__PARAMS__C)
                  0082f860    00000018     app_pe66.oe66 (.const:ti_sysbios_gates_GateMutex_Object__PARAMS__C)
                  0082f878    00000018     app_pe66.oe66 (.const:ti_sysbios_knl_Queue_Object__PARAMS__C)
                  0082f890    00000018     app_pe66.oe66 (.const:ti_sysbios_knl_Task_hooks__A)
                  0082f8a8    00000016     rts6600_elf.lib : ios.obj (.const:.string:_ZTSNSt8ios_base7failureE)
                  0082f8be    00000016                     : throw.obj (.const:.string)
                  0082f8d4    00000004     app_pe66.oe66 (.const:ti_sysbios_family_c64p_Hwi_Module__diagsMask__C)
                  0082f8d8    00000014     rts6600_elf.lib : locale0.obj (.const:.string:_ZTSNSt6locale7_LocimpE)
                  0082f8ec    00000004     app_pe66.oe66 (.const:ti_sysbios_family_c64p_Hwi_Module__loggerFxn1__C)
                  0082f8f0    00000012     frameworkFunctions.obj (.const:.string:_ZTSNSt6locale5facetE)
                  0082f902    00000002     app_pe66.oe66 (.const:ti_sysbios_knl_Semaphore_Module__id__C)
                  0082f904    00000004     app_pe66.oe66 (.const:ti_sysbios_family_c64p_Hwi_Module__loggerFxn8__C)
                  0082f908    00000012     rts6600_elf.lib : ios.obj (.const:.string:_ZTSSt13runtime_error)
                  0082f91a    00000002     app_pe66.oe66 (.const:ti_sysbios_knl_Semaphore_Module__loggerDefined__C)
                  0082f91c    00000004     app_pe66.oe66 (.const:ti_sysbios_family_c64p_Hwi_Module__loggerObj__C)
                  0082f920    00000011     rts6600_elf.lib : iostream.obj (.const:.string:_ZTSSt12codecvt_base)
                  0082f931    00000001     --HOLE-- [fill = 0]
                  0082f932    00000002     app_pe66.oe66 (.const:ti_sysbios_knl_Swi_Module__id__C)
                  0082f934    00000004     app_pe66.oe66 (.const:ti_sysbios_gates_GateMutex_A_badContext__C)
                  0082f938    00000011     rts6600_elf.lib : string.obj (.const:.string:_ZTSSt12length_error)
                  0082f949    00000001     --HOLE-- [fill = 0]
                  0082f94a    00000002     app_pe66.oe66 (.const:ti_sysbios_knl_Swi_Module__loggerDefined__C)
                  0082f94c    00000004     app_pe66.oe66 (.const:ti_sysbios_gates_GateMutex_Instance_State_sem__O)
                  0082f950    00000011     rts6600_elf.lib : string.obj (.const:.string:_ZTSSt12out_of_range)
                  0082f961    00000011     blasFunctions.obj (.const:.string)
                  0082f972    00000002     app_pe66.oe66 (.const:ti_sysbios_knl_Task_Module__id__C)
                  0082f974    0000000c     rts6600_elf.lib : typeinfo_.obj (.const:_ZTIN10__cxxabiv117__class_type_infoE)
                  0082f980    00000011     ti.targets.rts6000.ae66 : System.oe66 (.const:digtohex)
                  0082f991    00000001     --HOLE-- [fill = 0]
                  0082f992    00000002     app_pe66.oe66 (.const:ti_sysbios_knl_Task_Module__loggerDefined__C)
                  0082f994    00000004     app_pe66.oe66 (.const:ti_sysbios_gates_GateMutex_Module__diagsEnabled__C)
                  0082f998    00000010     rts6600_elf.lib : string.obj (.const:.string:_ZTSSt11logic_error)
                  0082f9a8    00000010                     : iostream.obj (.const:.string:_ZTSSt7codecvtIcciE)
                  0082f9b8    00000010                     : wiostrea.obj (.const:.string:_ZTSSt7codecvtIwciE)
                  0082f9c8    00000010                     : typeinfo_.obj (.const:_ZTVN10__cxxabiv117__class_type_infoE)
                  0082f9d8    00000010                     : typeinfo_.obj (.const:_ZTVN10__cxxabiv120__si_class_type_infoE)
                  0082f9e8    00000010                     : typeinfo_.obj (.const:_ZTVN10__cxxabiv121__vmi_class_type_infoE)
                  0082f9f8    00000010     frameworkFunctions.obj (.const:_ZTVNSt6locale5facetE)
                  0082fa08    00000010     rts6600_elf.lib : locale0.obj (.const:_ZTVNSt6locale7_LocimpE)
                  0082fa18    00000010     frameworkFunctions.obj (.const:_ZTVSt10ctype_base)
                  0082fa28    00000010     rts6600_elf.lib : ios.obj (.const:_ZTVSt8ios_base)
                  0082fa38    00000010                     : iostream.obj (.const:_ZTVSt9basic_iosIcSt11char_traitsIcEE)
                  0082fa48    00000010                     : wiostrea.obj (.const:_ZTVSt9basic_iosIwSt11char_traitsIwEE)
                  0082fa58    0000000f     frameworkFunctions.obj (.const:.string:_ZTSSt10ctype_base)
                  0082fa67    00000001     --HOLE-- [fill = 0]
                  0082fa68    0000000f     dynamicMemory.obj (.const:.string:_ZTSSt8numpunctIcE)
                  0082fa77    0000000f     frameworkFunctions.obj (.const:.string)
                  0082fa86    00000002     app_pe66.oe66 (.const:ti_sysbios_knl_Task_initStackFlag__C)
                  0082fa88    0000000d     rts6600_elf.lib : ios.obj (.const:.string:_ZTSSt9exception)
                  0082fa95    00000001     --HOLE-- [fill = 0]
                  0082fa96    00000002     app_pe66.oe66 (.const:ti_sysbios_timers_timer64_Timer_Module__id__C)
                  0082fa98    0000000d     rts6600_elf.lib : typeinfo_.obj (.const:.string:_ZTSSt9type_info)
                  0082faa5    00000001     --HOLE-- [fill = 0]
                  0082faa6    00000002     app_pe66.oe66 (.const:ti_sysbios_timers_timer64_Timer_startupNeeded__C)
                  0082faa8    0000000c     rts6600_elf.lib : ios.obj (.const:.string:_ZTSSt5_IosbIiE)
                  0082fab4    00000004     app_pe66.oe66 (.const:ti_sysbios_gates_GateMutex_Module__diagsIncluded__C)
                  0082fab8    0000000c     frameworkFunctions.obj (.const:.string:_ZTSSt5ctypeIcE)
                  0082fac4    00000004     app_pe66.oe66 (.const:ti_sysbios_gates_GateMutex_Module__diagsMask__C)
                  0082fac8    0000000c     rts6600_elf.lib : wiostrea.obj (.const:.string:_ZTSSt5ctypeIwE)
                  0082fad4    00000004     app_pe66.oe66 (.const:ti_sysbios_hal_Hwi_E_stackOverflow__C)
                  0082fad8    0000000c     rts6600_elf.lib : ios.obj (.const:.string:_ZTSSt8ios_base)
                  0082fae4    0000000c                     : typeinfo_.obj (.const:_ZTIN10__cxxabiv120__si_class_type_infoE)
                  0082faf0    0000000c                     : typeinfo_.obj (.const:_ZTIN10__cxxabiv121__vmi_class_type_infoE)
                  0082fafc    0000000c                     : locale0.obj (.const:_ZTINSt6locale7_LocimpE)
                  0082fb08    0000000c                     : ios.obj (.const:_ZTINSt8ios_base7failureE)
                  0082fb14    0000000c     frameworkFunctions.obj (.const:_ZTISt10ctype_base)
                  0082fb20    0000000c     rts6600_elf.lib : string.obj (.const:_ZTISt11logic_error)
                  0082fb2c    0000000c                     : iostream.obj (.const:_ZTISt12codecvt_base)
                  0082fb38    0000000c                     : string.obj (.const:_ZTISt12length_error)
                  0082fb44    0000000c                     : string.obj (.const:_ZTISt12out_of_range)
                  0082fb50    0000000c                     : iostream.obj (.const:_ZTISt13basic_filebufIcSt11char_traitsIcEE)
                  0082fb5c    0000000c                     : wiostrea.obj (.const:_ZTISt13basic_filebufIwSt11char_traitsIwEE)
                  0082fb68    0000000c                     : ios.obj (.const:_ZTISt13runtime_error)
                  0082fb74    0000000c     frameworkFunctions.obj (.const:_ZTISt5ctypeIcE)
                  0082fb80    0000000c     rts6600_elf.lib : wiostrea.obj (.const:_ZTISt5ctypeIwE)
                  0082fb8c    0000000c                     : iostream.obj (.const:_ZTISt7codecvtIcciE)
                  0082fb98    0000000c                     : wiostrea.obj (.const:_ZTISt7codecvtIwciE)
                  0082fba4    0000000c     dynamicMemory.obj (.const:_ZTISt7num_putIcSt19ostreambuf_iteratorIcSt11char_traitsIcEEE)
                  0082fbb0    0000000c     rts6600_elf.lib : ios.obj (.const:_ZTISt8ios_base)
                  0082fbbc    0000000c     dynamicMemory.obj (.const:_ZTISt8numpunctIcE)
                  0082fbc8    0000000c     rts6600_elf.lib : iostream.obj (.const:_ZTISt9basic_iosIcSt11char_traitsIcEE)
                  0082fbd4    0000000c                     : wiostrea.obj (.const:_ZTISt9basic_iosIwSt11char_traitsIwEE)
                  0082fbe0    0000000c     app_pe66.oe66 (.const:ti_sysbios_family_c66_Cache_initSize__C)
                  0082fbec    00000004     app_pe66.oe66 (.const:ti_sysbios_heaps_HeapMem_A_align__C)
                  0082fbf0    0000000c     app_pe66.oe66 (.const:ti_sysbios_knl_Idle_funcList__A)
                  0082fbfc    00000008     ti.targets.rts6000.ae66 : System.oe66 (.const:.string)
                  0082fc04    00000008     frameworkFunctions.obj (.const:_ZTINSt6locale5facetE)
                  0082fc0c    00000008     rts6600_elf.lib : iostream.obj (.const:_ZTISt15basic_streambufIcSt11char_traitsIcEE)
                  0082fc14    00000008                     : wiostrea.obj (.const:_ZTISt15basic_streambufIwSt11char_traitsIwEE)
                  0082fc1c    00000008                     : ios.obj (.const:_ZTISt5_IosbIiE)
                  0082fc24    00000008                     : ios.obj (.const:_ZTISt9exception)
                  0082fc2c    00000008                     : typeinfo_.obj (.const:_ZTISt9type_info)
                  0082fc34    00000008     app_pe66.oe66 (.const:ti_sysbios_knl_Idle_funcList__C)
                  0082fc3c    00000008     app_pe66.oe66 (.const:ti_sysbios_knl_Task_hooks__C)
                  0082fc44    00000004     app_pe66.oe66 (.const:ti_sysbios_heaps_HeapMem_A_heapSize__C)
                  0082fc48    00000008     app_pe66.oe66 (.const:xdc_runtime_Startup_firstFxns__A)
                  0082fc50    00000008     app_pe66.oe66 (.const:xdc_runtime_Startup_firstFxns__C)
                  0082fc58    00000008     app_pe66.oe66 (.const:xdc_runtime_Startup_lastFxns__C)
                  0082fc60    00000006     dynamicMemory.obj (.const:.string:_ZZNKSt8_Locinfo9_GetfalseEvEs)
                  0082fc66    00000002     app_pe66.oe66 (.const:ti_sysbios_timers_timer64_Timer_useTimer64pRegMap__C)
                  0082fc68    00000005     dynamicMemory.obj (.const:.string:_ZZNKSt8_Locinfo8_GettrueEvEs)
                  0082fc6d    00000001     --HOLE-- [fill = 0]
                  0082fc6e    00000002     app_pe66.oe66 (.const:ti_sysbios_utils_Load_Module__id__C)
                  0082fc70    00000004     app_pe66.oe66 (.const:ti_sysbios_heaps_HeapMem_A_invalidFree__C)
                  0082fc74    00000004     app_pe66.oe66 (.const:ti_sysbios_heaps_HeapMem_A_zeroBlock__C)
                  0082fc78    00000004     app_pe66.oe66 (.const:ti_sysbios_heaps_HeapMem_E_memory__C)
                  0082fc7c    00000004     app_pe66.oe66 (.const:ti_sysbios_heaps_HeapMem_Module__diagsEnabled__C)
                  0082fc80    00000004     app_pe66.oe66 (.const:ti_sysbios_heaps_HeapMem_Module__diagsIncluded__C)
                  0082fc84    00000004     app_pe66.oe66 (.const:ti_sysbios_heaps_HeapMem_Module__diagsMask__C)
                  0082fc88    00000004     app_pe66.oe66 (.const:ti_sysbios_heaps_HeapMem_Module__gateObj__C)
                  0082fc8c    00000004     app_pe66.oe66 (.const:ti_sysbios_heaps_HeapMem_Object__count__C)
                  0082fc90    00000004     app_pe66.oe66 (.const:ti_sysbios_heaps_HeapMem_reqAlign__C)
                  0082fc94    00000004     app_pe66.oe66 (.const:ti_sysbios_knl_Clock_LM_begin__C)
                  0082fc98    00000004     app_pe66.oe66 (.const:ti_sysbios_knl_Clock_LM_tick__C)
                  0082fc9c    00000004     app_pe66.oe66 (.const:ti_sysbios_knl_Clock_LW_delayed__C)
                  0082fca0    00000004     app_pe66.oe66 (.const:ti_sysbios_knl_Clock_Module_State_clockQ__O)
                  0082fca4    00000004     app_pe66.oe66 (.const:ti_sysbios_knl_Clock_Module__diagsEnabled__C)
                  0082fca8    00000004     app_pe66.oe66 (.const:ti_sysbios_knl_Clock_Module__diagsIncluded__C)
                  0082fcac    00000004     app_pe66.oe66 (.const:ti_sysbios_knl_Clock_Module__diagsMask__C)
                  0082fcb0    00000004     app_pe66.oe66 (.const:ti_sysbios_knl_Clock_Module__loggerFxn1__C)
                  0082fcb4    00000004     app_pe66.oe66 (.const:ti_sysbios_knl_Clock_Module__loggerFxn2__C)
                  0082fcb8    00000004     app_pe66.oe66 (.const:ti_sysbios_knl_Clock_Module__loggerObj__C)
                  0082fcbc    00000004     app_pe66.oe66 (.const:ti_sysbios_knl_Semaphore_A_badContext__C)
                  0082fcc0    00000004     app_pe66.oe66 (.const:ti_sysbios_knl_Semaphore_A_noEvents__C)
                  0082fcc4    00000004     app_pe66.oe66 (.const:ti_sysbios_knl_Semaphore_A_overflow__C)
                  0082fcc8    00000004     app_pe66.oe66 (.const:ti_sysbios_knl_Semaphore_A_pendTaskDisabled__C)
                  0082fccc    00000004     app_pe66.oe66 (.const:ti_sysbios_knl_Semaphore_Instance_State_pendQ__O)
                  0082fcd0    00000004     app_pe66.oe66 (.const:ti_sysbios_knl_Semaphore_LM_pend__C)
                  0082fcd4    00000004     app_pe66.oe66 (.const:ti_sysbios_knl_Semaphore_LM_post__C)
                  0082fcd8    00000004     app_pe66.oe66 (.const:ti_sysbios_knl_Semaphore_Module__diagsEnabled__C)
                  0082fcdc    00000004     app_pe66.oe66 (.const:ti_sysbios_knl_Semaphore_Module__diagsIncluded__C)
                  0082fce0    00000004     app_pe66.oe66 (.const:ti_sysbios_knl_Semaphore_Module__diagsMask__C)
                  0082fce4    00000004     app_pe66.oe66 (.const:ti_sysbios_knl_Semaphore_Module__loggerFxn2__C)
                  0082fce8    00000004     app_pe66.oe66 (.const:ti_sysbios_knl_Semaphore_Module__loggerFxn4__C)
                  0082fcec    00000004     app_pe66.oe66 (.const:ti_sysbios_knl_Semaphore_Module__loggerObj__C)
                  0082fcf0    00000004     app_pe66.oe66 (.const:ti_sysbios_knl_Swi_LD_end__C)
                  0082fcf4    00000004     app_pe66.oe66 (.const:ti_sysbios_knl_Swi_LM_begin__C)
                  0082fcf8    00000004     app_pe66.oe66 (.const:ti_sysbios_knl_Swi_LM_post__C)
                  0082fcfc    00000004     app_pe66.oe66 (.const:ti_sysbios_knl_Swi_Module__diagsEnabled__C)
                  0082fd00    00000004     app_pe66.oe66 (.const:ti_sysbios_knl_Swi_Module__diagsIncluded__C)
                  0082fd04    00000004     app_pe66.oe66 (.const:ti_sysbios_knl_Swi_Module__diagsMask__C)
                  0082fd08    00000004     app_pe66.oe66 (.const:ti_sysbios_knl_Swi_Module__loggerFxn1__C)
                  0082fd0c    00000004     app_pe66.oe66 (.const:ti_sysbios_knl_Swi_Module__loggerFxn4__C)
                  0082fd10    00000004     app_pe66.oe66 (.const:ti_sysbios_knl_Swi_Module__loggerObj__C)
                  0082fd14    00000004     app_pe66.oe66 (.const:ti_sysbios_knl_Swi_Object__count__C)
                  0082fd18    00000004     app_pe66.oe66 (.const:ti_sysbios_knl_Task_E_spOutOfBounds__C)
                  0082fd1c    00000004     app_pe66.oe66 (.const:ti_sysbios_knl_Task_E_stackOverflow__C)
                  0082fd20    00000004     app_pe66.oe66 (.const:ti_sysbios_knl_Task_LD_block__C)
                  0082fd24    00000004     app_pe66.oe66 (.const:ti_sysbios_knl_Task_LD_exit__C)
                  0082fd28    00000004     app_pe66.oe66 (.const:ti_sysbios_knl_Task_LD_ready__C)
                  0082fd2c    00000004     app_pe66.oe66 (.const:ti_sysbios_knl_Task_LM_switch__C)
                  0082fd30    00000004     app_pe66.oe66 (.const:ti_sysbios_knl_Task_Module_State_inactiveQ__O)
                  0082fd34    00000004     app_pe66.oe66 (.const:ti_sysbios_knl_Task_Module__diagsEnabled__C)
                  0082fd38    00000004     app_pe66.oe66 (.const:ti_sysbios_knl_Task_Module__diagsIncluded__C)
                  0082fd3c    00000004     app_pe66.oe66 (.const:ti_sysbios_knl_Task_Module__diagsMask__C)
                  0082fd40    00000004     app_pe66.oe66 (.const:ti_sysbios_knl_Task_Module__loggerFxn2__C)
                  0082fd44    00000004     app_pe66.oe66 (.const:ti_sysbios_knl_Task_Module__loggerFxn4__C)
                  0082fd48    00000004     app_pe66.oe66 (.const:ti_sysbios_knl_Task_Module__loggerObj__C)
                  0082fd4c    00000004     app_pe66.oe66 (.const:ti_sysbios_knl_Task_Object__count__C)
                  0082fd50    00000004     app_pe66.oe66 (.const:ti_sysbios_knl_Task_Object__heap__C)
                  0082fd54    00000004     app_pe66.oe66 (.const:ti_sysbios_knl_Task_allBlockedFunc__C)
                  0082fd58    00000004     app_pe66.oe66 (.const:ti_sysbios_knl_Task_numConstructedTasks__C)
                  0082fd5c    00000004     app_pe66.oe66 (.const:ti_sysbios_timers_timer64_Timer_A_notAvailable__C)
                  0082fd60    00000004     app_pe66.oe66 (.const:ti_sysbios_timers_timer64_Timer_E_cannotSupport__C)
                  0082fd64    00000004     app_pe66.oe66 (.const:ti_sysbios_timers_timer64_Timer_Module__diagsEnabled__C)
                  0082fd68    00000004     app_pe66.oe66 (.const:ti_sysbios_timers_timer64_Timer_Module__diagsIncluded__C)
                  0082fd6c    00000004     app_pe66.oe66 (.const:ti_sysbios_timers_timer64_Timer_Module__diagsMask__C)
                  0082fd70    00000004     app_pe66.oe66 (.const:ti_sysbios_timers_timer64_Timer_anyMaskHigh__C)
                  0082fd74    00000004     app_pe66.oe66 (.const:ti_sysbios_timers_timer64_Timer_anyMask__C)
                  0082fd78    00000004     app_pe66.oe66 (.const:ti_sysbios_timers_timer64_Timer_freqDivisor__C)
                  0082fd7c    00000004     app_pe66.oe66 (.const:ti_sysbios_timers_timer64_Timer_numLocalTimers__C)
                  0082fd80    00000004     app_pe66.oe66 (.const:ti_sysbios_timers_timer64_Timer_numTimerDevices__C)
                  0082fd84    00000004     app_pe66.oe66 (.const:ti_sysbios_utils_Load_LS_cpuLoad__C)
                  0082fd88    00000004     app_pe66.oe66 (.const:ti_sysbios_utils_Load_LS_hwiLoad__C)
                  0082fd8c    00000004     app_pe66.oe66 (.const:ti_sysbios_utils_Load_LS_taskLoad__C)
                  0082fd90    00000004     app_pe66.oe66 (.const:ti_sysbios_utils_Load_Module_State_taskList__O)
                  0082fd94    00000004     app_pe66.oe66 (.const:ti_sysbios_utils_Load_Module__diagsEnabled__C)
                  0082fd98    00000004     app_pe66.oe66 (.const:ti_sysbios_utils_Load_Module__diagsIncluded__C)
                  0082fd9c    00000004     app_pe66.oe66 (.const:ti_sysbios_utils_Load_Module__diagsMask__C)
                  0082fda0    00000004     app_pe66.oe66 (.const:ti_sysbios_utils_Load_Module__loggerFxn1__C)
                  0082fda4    00000004     app_pe66.oe66 (.const:ti_sysbios_utils_Load_Module__loggerFxn2__C)
                  0082fda8    00000004     app_pe66.oe66 (.const:ti_sysbios_utils_Load_Module__loggerFxn4__C)
                  0082fdac    00000004     app_pe66.oe66 (.const:ti_sysbios_utils_Load_Module__loggerObj__C)
                  0082fdb0    00000004     app_pe66.oe66 (.const:ti_sysbios_utils_Load_postUpdate__C)
                  0082fdb4    00000004     app_pe66.oe66 (.const:ti_sysbios_utils_Load_windowInMs__C)
                  0082fdb8    00000004     app_pe66.oe66 (.const:ti_uia_family_c66_TimestampC66XGlobal_timerBaseAdrs__C)
                  0082fdbc    00000004     app_pe66.oe66 (.const:ti_uia_runtime_ILoggerSnapshot_Interface__BASE__C)
                  0082fdc0    00000004     app_pe66.oe66 (.const:ti_uia_runtime_IUIATransfer_Interface__BASE__C)
                  0082fdc4    00000004     app_pe66.oe66 (.const:ti_uia_runtime_LoggerStopMode_E_badLevel__C)
                  0082fdc8    00000004     app_pe66.oe66 (.const:ti_uia_runtime_LoggerStopMode_Object__count__C)
                  0082fdcc    00000004     app_pe66.oe66 (.const:ti_uia_runtime_LoggerStopMode_overflowLogger__C)
                  0082fdd0    00000004     app_pe66.oe66 (.const:ti_uia_runtime_LoggerStopMode_statusLogger__C)
                  0082fdd4    00000004     app_pe66.oe66 (.const:xdc_runtime_Assert_E_assertFailed__C)
                  0082fdd8    00000004     app_pe66.oe66 (.const:xdc_runtime_Core_A_initializedParams__C)
                  0082fddc    00000004     app_pe66.oe66 (.const:xdc_runtime_Core_Module__diagsEnabled__C)
                  0082fde0    00000004     app_pe66.oe66 (.const:xdc_runtime_Core_Module__diagsIncluded__C)
                  0082fde4    00000004     app_pe66.oe66 (.const:xdc_runtime_Core_Module__diagsMask__C)
                  0082fde8    00000004     app_pe66.oe66 (.const:xdc_runtime_Error_E_memory__C)
                  0082fdec    00000004     app_pe66.oe66 (.const:xdc_runtime_Error_Module__diagsEnabled__C)
                  0082fdf0    00000004     app_pe66.oe66 (.const:xdc_runtime_Error_Module__diagsIncluded__C)
                  0082fdf4    00000004     app_pe66.oe66 (.const:xdc_runtime_Error_Module__diagsMask__C)
                  0082fdf8    00000004     app_pe66.oe66 (.const:xdc_runtime_Error_Module__loggerFxn8__C)
                  0082fdfc    00000004     app_pe66.oe66 (.const:xdc_runtime_Error_Module__loggerObj__C)
                  0082fe00    00000004     app_pe66.oe66 (.const:xdc_runtime_Error_policyFxn__C)
                  0082fe04    00000004     app_pe66.oe66 (.const:xdc_runtime_Error_policy__C)
                  0082fe08    00000004     app_pe66.oe66 (.const:xdc_runtime_Error_raiseHook__C)
                  0082fe0c    00000004     app_pe66.oe66 (.const:xdc_runtime_IFilterLogger_Interface__BASE__C)
                  0082fe10    00000004     app_pe66.oe66 (.const:xdc_runtime_IGateProvider_Interface__BASE__C)
                  0082fe14    00000004     app_pe66.oe66 (.const:xdc_runtime_IHeap_Interface__BASE__C)
                  0082fe18    00000004     app_pe66.oe66 (.const:xdc_runtime_ILogger_Interface__BASE__C)
                  0082fe1c    00000004     app_pe66.oe66 (.const:xdc_runtime_IModule_Interface__BASE__C)
                  0082fe20    00000004     app_pe66.oe66 (.const:xdc_runtime_Log_L_error__C)
                  0082fe24    00000004     app_pe66.oe66 (.const:xdc_runtime_LoggerBuf_E_badLevel__C)
                  0082fe28    00000004     app_pe66.oe66 (.const:xdc_runtime_LoggerBuf_Module__gateObj__C)
                  0082fe2c    00000004     app_pe66.oe66 (.const:xdc_runtime_LoggerBuf_Object__count__C)
                  0082fe30    00000004     app_pe66.oe66 (.const:xdc_runtime_LoggerBuf_statusLogger__C)
                  0082fe34    00000004     app_pe66.oe66 (.const:xdc_runtime_Memory_defaultHeapInstance__C)
                  0082fe38    00000004     app_pe66.oe66 (.const:xdc_runtime_Startup_execImpl__C)
                  0082fe3c    00000004     app_pe66.oe66 (.const:xdc_runtime_Startup_maxPasses__C)
                  0082fe40    00000004     app_pe66.oe66 (.const:xdc_runtime_Startup_sfxnRts__C)
                  0082fe44    00000004     app_pe66.oe66 (.const:xdc_runtime_Startup_sfxnTab__C)
                  0082fe48    00000004     app_pe66.oe66 (.const:xdc_runtime_SysMin_bufSize__C)
                  0082fe4c    00000004     app_pe66.oe66 (.const:xdc_runtime_SysMin_outputFunc__C)
                  0082fe50    00000004     app_pe66.oe66 (.const:xdc_runtime_System_Module__gateObj__C)
                  0082fe54    00000004     app_pe66.oe66 (.const:xdc_runtime_System_abortFxn__C)
                  0082fe58    00000004     app_pe66.oe66 (.const:xdc_runtime_System_exitFxn__C)
                  0082fe5c    00000004     app_pe66.oe66 (.const:xdc_runtime_System_extendFxn__C)
                  0082fe60    00000004     app_pe66.oe66 (.const:xdc_runtime_System_maxAtexitHandlers__C)
                  0082fe64    00000004     app_pe66.oe66 (.const:xdc_runtime_Text_charTab__C)
                  0082fe68    00000004     app_pe66.oe66 (.const:xdc_runtime_Text_nameEmpty__C)
                  0082fe6c    00000004     app_pe66.oe66 (.const:xdc_runtime_Text_nameStatic__C)
                  0082fe70    00000004     app_pe66.oe66 (.const:xdc_runtime_Text_nameUnknown__C)
                  0082fe74    00000004     app_pe66.oe66 (.const:xdc_runtime_Text_visitRopeFxn__C)
                  0082fe78    00000003     rts6600_elf.lib : iostream.obj (.const:.string:_ZTSSi)
                  0082fe7b    00000001     --HOLE-- [fill = 0]
                  0082fe7c    00000002     app_pe66.oe66 (.const:ti_sysbios_utils_Load_Module__loggerDefined__C)
                  0082fe7e    00000002     app_pe66.oe66 (.const:ti_sysbios_utils_Load_autoAddTasks__C)
                  0082fe80    00000003     rts6600_elf.lib : iostream.obj (.const:.string:_ZTSSo)
                  0082fe83    00000001     --HOLE-- [fill = 0]
                  0082fe84    00000002     app_pe66.oe66 (.const:ti_sysbios_utils_Load_hwiEnabled__C)
                  0082fe86    00000002     app_pe66.oe66 (.const:ti_sysbios_utils_Load_updateInIdle__C)
                  0082fe88    00000003     dynamicMemory.obj (.const:.string:_ZZNKSt7num_putIcSt19ostreambuf_iteratorIcSt11char_traitsIcEEE6do_putES3_RSt8ios_basecPKvEs)
                  0082fe8b    00000001     --HOLE-- [fill = 0]
                  0082fe8c    00000002     app_pe66.oe66 (.const:ti_uia_runtime_LoggerStopMode_Module__id__C)
                  0082fe8e    00000002     app_pe66.oe66 (.const:ti_uia_runtime_LoggerStopMode_filterByLevel__C)
                  0082fe90    00000003     dynamicMemory.obj (.const:.string:_ZZNKSt7num_putIcSt19ostreambuf_iteratorIcSt11char_traitsIcEEE6do_putES3_RSt8ios_baseclEs)
                  0082fe93    00000001     --HOLE-- [fill = 0]
                  0082fe94    00000002     app_pe66.oe66 (.const:ti_uia_runtime_LoggerStopMode_isTimestampEnabled__C)
                  0082fe96    00000002     app_pe66.oe66 (.const:xdc_runtime_Core_Module__id__C)
                  0082fe98    00000003     dynamicMemory.obj (.const:.string:_ZZNKSt7num_putIcSt19ostreambuf_iteratorIcSt11char_traitsIcEEE6do_putES3_RSt8ios_basecmEs)
                  0082fe9b    00000001     --HOLE-- [fill = 0]
                  0082fe9c    00000002     app_pe66.oe66 (.const:xdc_runtime_Error_Module__loggerDefined__C)
                  0082fe9e    00000002     app_pe66.oe66 (.const:xdc_runtime_Error_maxDepth__C)
                  0082fea0    00000003     dynamicMemory.obj (.const:.string:_ZZNKSt7num_putIcSt19ostreambuf_iteratorIcSt11char_traitsIcEEE6do_putES3_RSt8ios_basecxEs)
                  0082fea3    00000001     --HOLE-- [fill = 0]
                  0082fea4    00000002     app_pe66.oe66 (.const:xdc_runtime_LoggerBuf_Module__id__C)
                  0082fea6    00000002     app_pe66.oe66 (.const:xdc_runtime_LoggerBuf_filterByLevel__C)
                  0082fea8    00000003     dynamicMemory.obj (.const:.string:_ZZNKSt7num_putIcSt19ostreambuf_iteratorIcSt11char_traitsIcEEE6do_putES3_RSt8ios_basecyEs)
                  0082feab    00000001     --HOLE-- [fill = 0]
                  0082feac    00000002     app_pe66.oe66 (.const:xdc_runtime_Memory_Module__id__C)
                  0082feae    00000002     app_pe66.oe66 (.const:xdc_runtime_SysMin_flushAtExit__C)
                  0082feb0    00000002     dynamicMemory.obj (.const:.string:_ZZNKSt7num_putIcSt19ostreambuf_iteratorIcSt11char_traitsIcEEE5_FputES3_RSt8ios_basecPKcjjjjEs)
                  0082feb2    00000002     app_pe66.oe66 (.const:xdc_runtime_Text_charCnt__C)
                  0082feb4    00000002     app_pe66.oe66 (.const:xdc_runtime_Text_isLoaded__C)
                  0082feb6    00000002     app_pe66.oe66 (.const:xdc_runtime_Text_registryModsLastId__C)
                  0082feb8    00000002     dynamicMemory.obj (.const:.string:_ZZNKSt7num_putIcSt19ostreambuf_iteratorIcSt11char_traitsIcEEE5_FputES3_RSt8ios_basecPKcjjjjEs_0)
                  0082feba    00000002     app_pe66.oe66 (.const:xdc_runtime_Text_unnamedModsLastId__C)

.fardata   0    0082fec0    00000e6c     
                  0082fec0    000002f8     app_pe66.oe66 (.fardata)
                  008301b8    000001e0     rts6600_elf.lib : defs.obj (.fardata:_ftable)
                  00830398    00000170     app_pe66.oe66 (.fardata:ti_uia_runtime_LoggerStopMode_Object__table__V)
                  00830508    000000c0     app_pe66.oe66 (.fardata:ti_sysbios_timers_timer64_Timer_Module_State_0_device__A)
                  008305c8    000000a0     rts6600_elf.lib : lowlev.obj (.fardata:_stream)
                  00830668    000000a0     app_pe66.oe66 (.fardata:ti_sysbios_knl_Task_Object__table__V)
                  00830708    00000090     app_pe66.oe66 (.fardata:ti_sysbios_knl_Swi_Object__table__V)
                  00830798    00000080     app_pe66.oe66 (.fardata:ti_sysbios_knl_Swi_Module_State_0_readyQ__A)
                  00830818    00000080     app_pe66.oe66 (.fardata:ti_sysbios_knl_Task_Module_State_0_readyQ__A)
                  00830898    00000078     rts6600_elf.lib : lowlev.obj (.fardata:_device)
                  00830910    00000068                     : xfvalues.obj (.fardata)
                  00830978    00000050     app_pe66.oe66 (.fardata:ti_sysbios_timers_timer64_Timer_Object__table__V)
                  008309c8    00000044     rts6600_elf.lib : powf.obj (.fardata:A1$1)
                  00830a0c    00000004     frameworkFunctions.obj (.fardata:_ZNSt9_FacetptrISt5ctypeIcEE6_PsaveE)
                  00830a10    00000040     app_pe66.oe66 (.fardata:ti_sysbios_gates_GateMutex_Object__table__V)
                  00830a50    00000040     app_pe66.oe66 (.fardata:ti_sysbios_knl_Clock_Object__table__V)
                  00830a90    00000040     app_pe66.oe66 (.fardata:ti_sysbios_timers_timer64_Timer_Module_State_0_gctrl__A)
                  00830ad0    00000040     app_pe66.oe66 (.fardata:ti_sysbios_timers_timer64_Timer_Module_State_0_handles__A)
                  00830b10    00000040     app_pe66.oe66 (.fardata:ti_sysbios_timers_timer64_Timer_Module_State_0_intFreqs__A)
                  00830b50    00000038     app_pe66.oe66 (.fardata:ti_sysbios_utils_Load_Module_State_0_taskEnv__A)
                  00830b88    00000034     rts6600_elf.lib : setlocale.obj (.fardata)
                  00830bbc    00000004                     : wiostrea.obj (.fardata:_ZNSt9_FacetptrISt5ctypeIwEE6_PsaveE)
                  00830bc0    0000002c     app_pe66.oe66 (.fardata:xdc_runtime_System_Module_State_0_atexitHandlers__A)
                  00830bec    00000004     rts6600_elf.lib : iostream.obj (.fardata:_ZNSt9_FacetptrISt7codecvtIcciEE6_PsaveE)
                  00830bf0    00000028                     : ios.obj (.fardata:_ZSt6stdstr)
                  00830c18    00000024     app_pe66.oe66 (.fardata:xdc_runtime_LoggerBuf_Object__table__V)
                  00830c3c    00000004     rts6600_elf.lib : wiostrea.obj (.fardata:_ZNSt9_FacetptrISt7codecvtIwciEE6_PsaveE)
                  00830c40    00000020                     : powf.obj (.fardata:A2$2)
                  00830c60    00000018     app_pe66.oe66 (.fardata:ti_sysbios_family_c64p_Hwi_Object__table__V)
                  00830c78    00000018     app_pe66.oe66 (.fardata:ti_sysbios_knl_Semaphore_Object__table__V)
                  00830c90    00000011     rts6600_elf.lib : locale0.obj (.fardata)
                  00830ca1    00000003     --HOLE--
                  00830ca4    00000004     dynamicMemory.obj (.fardata:_ZNSt9_FacetptrISt7num_putIcSt19ostreambuf_iteratorIcSt11char_traitsIcEEEE6_PsaveE)
                  00830ca8    0000000c     rts6600_elf.lib : powf.obj (.fardata:Q$4)
                  00830cb4    0000000c                     : exit.obj (.fardata)
                  00830cc0    0000000c                     : ios.obj (.fardata)
                  00830ccc    00000004     dynamicMemory.obj (.fardata:_ZNSt9_FacetptrISt8numpunctIcEE6_PsaveE)
                  00830cd0    0000000a     rts6600_elf.lib : ios.obj (.fardata:_ZSt8stdopens)
                  00830cda    00000002     --HOLE--
                  00830cdc    00000008                     : _lock.obj (.fardata)
                  00830ce4    00000004                     : defs.obj (.fardata)
                  00830ce8    00000008     app_pe66.oe66 (.fardata:ti_sysbios_hal_Hwi_Object__table__V)
                  00830cf0    00000004     rts6600_elf.lib : powf.obj (.fardata:P$3)
                  00830cf4    00000004                     : dtor_list.obj (.fardata)
                  00830cf8    00000004                     : errno.obj (.fardata)
                  00830cfc    00000004                     : iostream.obj (.fardata)
                  00830d00    00000004                     : raisehan.obj (.fardata)
                  00830d04    00000004                     : rand.obj (.fardata)
                  00830d08    00000004                     : vars.obj (.fardata)
                  00830d0c    00000004                     : wiostrea.obj (.fardata)
                  00830d10    00000004     app_pe66.oe66 (.fardata:ti_sysbios_gates_GateHwi_Object__table__V)
                  00830d14    00000004     --HOLE--
                  00830d18    00000004     app_pe66.oe66 (.fardata:ti_sysbios_knl_Task_Module_State_0_idleTask__A)
                  00830d1c    00000004     --HOLE--
                  00830d20    00000004     app_pe66.oe66 (.fardata:ti_sysbios_utils_Load_Module_State_0_runningTask__A)
                  00830d24    00000004     --HOLE--
                  00830d28    00000004     app_pe66.oe66 (.fardata:ti_sysbios_utils_Load_Module_State_0_taskStartTime__A)

.args      0    00830d2c    00000200     
                  00830d2c    00000200     --HOLE-- [fill = 0]

.stack     0    00830f30    00000200     UNINITIALIZED
                  00830f30    00000008     boot.ae66 : boot.oe66 (.stack)
                  00830f38    000001f8     --HOLE--

.cio       0    00831130    00000120     UNINITIALIZED
                  00831130    00000120     rts6600_elf.lib : trgmsg.obj (.cio)

.init_array 
*          0    00831250    00000048     
                  00831250    00000004     blasFunctions.obj (.init_array)
                  00831254    00000004     displayFunctions.obj (.init_array)
                  00831258    00000004     dynamicMemory.obj (.init_array)
                  0083125c    00000004     frameworkFunctions.obj (.init_array)
                  00831260    00000004     globalDeclarations.obj (.init_array)
                  00831264    00000004     greedyScheduling.obj (.init_array)
                  00831268    00000004     lapackFunctions.obj (.init_array)
                  0083126c    00000004     lteSystem.obj (.init_array)
                  00831270    00000004     memoryManagement.obj (.init_array)
                  00831274    00000004     pipdScheduling.obj (.init_array)
                  00831278    00000004     randomScheduling.obj (.init_array)
                  0083127c    00000004     rts6600_elf.lib : iostream.obj (.init_array)
                  00831280    00000004                     : locale0.obj (.init_array)
                  00831284    00000004                     : wiostrea.obj (.init_array)
                  00831288    00000004                     : wlocale.obj (.init_array)
                  0083128c    00000004     schedulingAlgorithms.obj (.init_array)
                  00831290    00000004     succprojScheduling.obj (.init_array)
                  00831294    00000004     supportingFunctions.obj (.init_array)

.bss       0    00831298    00000010     UNINITIALIZED
                  00831298    00000004     dynamicMemory.obj (.bss:_ZGVNSt7num_putIcSt19ostreambuf_iteratorIcSt11char_traitsIcEEE2idE)
                  0083129c    00000004     dynamicMemory.obj (.bss:_ZGVNSt8numpunctIcE2idE)
                  008312a0    00000004     globalDeclarations.obj (.bss)
                  008312a4    00000004     rts6600_elf.lib : dtor_list.obj (.bss)

.neardata 
*          0    008312a8    00000010     
                  008312a8    00000008     lteSystem.obj (.neardata)
                  008312b0    00000008     ti.uia.runtime.ae66 : QueueDescriptor.oe66 (.neardata)

.rodata    0    008312b8    0000001c     
                  008312b8    0000001c     app_pe66.oe66 (.rodata)

.switch    0    008312d4    00000010     
                  008312d4    00000010     schedulingAlgorithms.obj (.switch:_Z21performUserSchedulingP14systemConfig_tP16downlinkConfig_t)

.vecs      0    00831400    00000200     
                  00831400    00000200     app_pe66.oe66 (.vecs)

.cinit     0    00831600    000008a8     
                  00831600    000007f3     (.cinit..fardata.load) [load image, compression = rle]
                  00831df3    00000001     --HOLE-- [fill = 0]
                  00831df4    00000022     (.cinit..rodata.load) [load image, compression = rle]
                  00831e16    00000002     --HOLE-- [fill = 0]
                  00831e18    00000021     (.cinit..memHeap.load) [load image, compression = rle]
                  00831e39    00000003     --HOLE-- [fill = 0]
                  00831e3c    00000010     (.cinit..neardata.load) [load image, compression = rle]
                  00831e4c    0000000c     (__TI_handler_table)
                  00831e58    00000008     (.cinit..bigmem.load) [load image, compression = zero_init]
                  00831e60    00000008     (.cinit..bss.load) [load image, compression = zero_init]
                  00831e68    00000008     (.cinit..far.load) [load image, compression = zero_init]
                  00831e70    00000038     (__TI_cinit_table)

.bigmem    0    0c000000    0000c800     UNINITIALIZED
                  0c000000    0000c800     globalDeclarations.obj (.bigmem)

.memHeap   0    0c00c800    00008010     
                  0c00c800    00007ff8     app_pe66.oe66 (.memHeap:uninit) [fill = 0]
                  0c0147f8    00000018     app_pe66.oe66 (.memHeap:init)


LINKER GENERATED COPY TABLES

__TI_cinit_table @ 00831e70 records: 7, size/record: 8, table size: 56
	.fardata: load addr=00831600, load size=000007f3 bytes, run addr=0082fec0, run size=00000e6c bytes, compression=rle
	.rodata: load addr=00831df4, load size=00000022 bytes, run addr=008312b8, run size=0000001c bytes, compression=rle
	.memHeap: load addr=00831e18, load size=00000021 bytes, run addr=0c00c800, run size=00008010 bytes, compression=rle
	.neardata: load addr=00831e3c, load size=00000010 bytes, run addr=008312a8, run size=00000010 bytes, compression=rle
	.bigmem: load addr=00831e58, load size=00000008 bytes, run addr=0c000000, run size=0000c800 bytes, compression=zero_init
	.bss: load addr=00831e60, load size=00000008 bytes, run addr=00831298, run size=00000010 bytes, compression=zero_init
	.far: load addr=00831e68, load size=00000008 bytes, run addr=0082af00, run size=00002db0 bytes, compression=zero_init


LINKER GENERATED HANDLER TABLE

__TI_handler_table @ 00831e4c records: 3, size/record: 4, table size: 12
	index: 0, handler: __TI_zero_init
	index: 1, handler: __TI_decompress_rle24
	index: 2, handler: __TI_decompress_none


GLOBAL SYMBOLS: SORTED ALPHABETICALLY BY Name 

address    name
--------   ----
0082a4a0   C$$EXIT
00828438   C$$IO$$
00830b88   C_locale
008237a0   HOSTclose
00820440   HOSTlseek
00821140   HOSTopen
00821220   HOSTread
0081a280   HOSTrename
008221e0   HOSTunlink
008222a0   HOSTwrite
008306b8   TSK_idle
008299a0   _Atexit
00826ac0   _Deletegloballocale
00830910   _FDenorm
00826b20   _FDtest
00830920   _FEps
00830930   _FInf
00830940   _FNan
00830960   _FRteps
00830950   _FSnan
00830970   _FXbig
00830974   _FZero
00821300   _Fac_tidy
0081a420   _Getctyptab
008299c0   _Getgloballocale
00823840   _Setgloballocale
00820a18   _Z10freeMatrixP9cmatrix_t
00820a0c   _Z10freeMemoryPvj
00801244   _Z10matrixCopyP9cmatrix_tS0_15CBLAS_TRANSPOSEb
00800bcc   _Z10matrixMultP9cmatrix_tS0_S0_15CBLAS_TRANSPOSES1_b
00800b04   _Z11dotProductVPSt7complexIfES1_t
008009f4   _Z11matrixMultVP9cmatrix_tPSt7complexIfES3_b
00800970   _Z12cblas_isamaxjPvj
008006a8   _Z12cblas_scnrm2jPvj
00805ca8   _Z12cleanupUsersP16downlinkConfig_t
008209f4   _Z12createMatrixP9cmatrix_ttt
0080dccc   _Z13displayMatrixP9cmatrix_t
0080df68   _Z13displayMatrixR9cmatrix_t
00803e6c   _Z13getNullMatrixP9cmatrix_tS0_
008005d4   _Z13outerProductVPSt7complexIfES1_P9cmatrix_tS0_
008209e0   _Z13reshapeMatrixP9cmatrix_ttt
008209d0   _Z14allocateMemoryj
00800474   _Z15matrixHermitianP9cmatrix_t
00800310   _Z15matrixMultSafeAP9cmatrix_tS0_
008001ac   _Z15matrixMultSafeBP9cmatrix_tS0_
00800064   _Z15matrixTransposeP9cmatrix_t
008209b8   _Z16createZeroMatrixP9cmatrix_ttt
00803828   _Z16getMatrixInverseP9cmatrix_tS0_St7complexIfE
00805c30   _Z16initializeSystemP16downlinkConfig_tP14systemConfig_tttttt
0080dee0   _Z17displaySystemInfov
00805bb0   _Z17updateUserChannelP12userConfig_t
0080542c   _Z18clearDLConfig_UserP16downlinkConfig_tt
00802f8c   _Z18getQRDecompositionP9cmatrix_tS0_S0_
00816110   _Z18lteSystemTerminatejj
008054b8   _Z19updateDLConfig_UserP16downlinkConfig_tP12userConfig_t
0080dde0   _Z20displayUserStructureP12userConfig_t
008209a4   _Z20reshapeAndCopyMatrixP9cmatrix_ttt
008299e0   _Z21__default_new_handlerv
0080db84   _Z21displayScheduledUsersP14systemConfig_tP16downlinkConfig_t
00806f44   _Z21performPIPDSchedulingP14systemConfig_tP16downlinkConfig_t
0081e664   _Z21performUserSchedulingP14systemConfig_tP16downlinkConfig_t
0080526c   _Z22createNewUserStructurettt
00805084   _Z22randomizeChannelMatrixP9cmatrix_tb
00811a84   _Z23performGreedySchedulingP14systemConfig_tP16downlinkConfig_t
00819da4   _Z23performRandomSchedulingP14systemConfig_tP16downlinkConfig_t
008113e8   _Z24decomposeChannelMatricesP14systemConfig_tP16downlinkConfig_t
008113c4   _Z28clearSchedulerConfigurationsP14systemConfig_tP16downlinkConfig_t
0080d064   _Z28performSuccessiveProjectionsP14systemConfig_tP16downlinkConfig_t
00803690   _Z6getSVDP9cmatrix_tS0_S0_S0_c
00804f84   _Z8freeUserP12userConfig_t
00802ee4   _Z9eyeMatrixP9cmatrix_t
0082dc1c   _ZGVNSt10moneypunctIwLb0EE2idE
0082dc28   _ZGVNSt10moneypunctIwLb1EE2idE
0082dc2c   _ZGVNSt7codecvtIcciE2idE
0082dc30   _ZGVNSt7collateIwE2idE
0082dc34   _ZGVNSt7num_getIwSt19istreambuf_iteratorIwSt11char_traitsIwEEE2idE
00831298   _ZGVNSt7num_putIcSt19ostreambuf_iteratorIcSt11char_traitsIcEEE2idE
0082dc38   _ZGVNSt7num_putIwSt19ostreambuf_iteratorIwSt11char_traitsIwEEE2idE
0082dc3c   _ZGVNSt8messagesIwE2idE
0083129c   _ZGVNSt8numpunctIcE2idE
0082dc40   _ZGVNSt8numpunctIwE2idE
0082dc44   _ZGVNSt8time_getIwSt19istreambuf_iteratorIwSt11char_traitsIwEEE2idE
0082dc48   _ZGVNSt9money_getIwSt19istreambuf_iteratorIwSt11char_traitsIwEEE2idE
0082dc4c   _ZGVNSt9money_putIwSt19ostreambuf_iteratorIwSt11char_traitsIwEEE2idE
00829a00   _ZN10__cxxabiv117__class_type_infoD0Ev
00829a20   _ZN10__cxxabiv117__class_type_infoD1Ev
00829a20   _ZN10__cxxabiv117__class_type_infoD2Ev
00829a40   _ZN10__cxxabiv120__si_class_type_infoD0Ev
00829a60   _ZN10__cxxabiv120__si_class_type_infoD1Ev
00829a60   _ZN10__cxxabiv120__si_class_type_infoD2Ev
00829a80   _ZN10__cxxabiv121__vmi_class_type_infoD0Ev
00829aa0   _ZN10__cxxabiv121__vmi_class_type_infoD1Ev
00829aa0   _ZN10__cxxabiv121__vmi_class_type_infoD2Ev
00801be4   _ZN13DynamicMemory10clearListsEv
00802cec   _ZN13DynamicMemory10getMatrixREP9cmatrix_ttt
00802be4   _ZN13DynamicMemory10getMatrixZEtt
00802bd0   _ZN13DynamicMemory10resetQInfoEv
00802b44   _ZN13DynamicMemory12displayQInfoEv
00801d60   _ZN13DynamicMemory12getEmptyListEj
00802acc   _ZN13DynamicMemory12updateMatrixEP9cmatrix_ttt
008029ec   _ZN13DynamicMemory13reshapeMatrixEP9cmatrix_ttt
008028f4   _ZN13DynamicMemory13updateMatrixZEP9cmatrix_ttt
00802818   _ZN13DynamicMemory15displayDMStatusEv
00802428   _ZN13DynamicMemory16freeMatrixMemoryEP9cmatrix_t
00801bd8   _ZN13DynamicMemory16freeMemoryBufferEPvj
00801c8c   _ZN13DynamicMemory18obtainMemoryBufferEj
00802464   _ZN13DynamicMemory20reshapeMatrixAndCopyEP9cmatrix_ttt
00802060   _ZN13DynamicMemory23displayDMCompleteStatusEv
00801fc0   _ZN13DynamicMemory9getMatrixEtt
00801ce4   _ZN13DynamicMemoryC1Ev
00801ce4   _ZN13DynamicMemoryC2Ev
00801c48   _ZN13DynamicMemoryD1Ev
00801c48   _ZN13DynamicMemoryD2Ev
00829ac0   _ZNKSt11logic_error4whatEv
00829ae0   _ZNKSt11logic_error8_DoraiseEv
0081c6a0   _ZNKSt12_String_base5_XlenEv
00819100   _ZNKSt12_String_base5_XranEv
00829b00   _ZNKSt12codecvt_base11do_encodingEv
00829b20   _ZNKSt12codecvt_base13do_max_lengthEv
00829b40   _ZNKSt12codecvt_base16do_always_noconvEv
00829b60   _ZNKSt12length_error8_DoraiseEv
00829b80   _ZNKSt12out_of_range8_DoraiseEv
00829ba0   _ZNKSt13runtime_error4whatEv
00829bc0   _ZNKSt13runtime_error8_DoraiseEv
00826b80   _ZNKSt5ctypeIcE10do_tolowerEPcPKc
008286e0   _ZNKSt5ctypeIcE10do_tolowerEc
00826be0   _ZNKSt5ctypeIcE10do_toupperEPcPKc
00828720   _ZNKSt5ctypeIcE10do_toupperEc
00828760   _ZNKSt5ctypeIcE8do_widenEPKcS2_Pc
00829be0   _ZNKSt5ctypeIcE8do_widenEc
008287a0   _ZNKSt5ctypeIcE9do_narrowEPKcS2_cPc
00829c00   _ZNKSt5ctypeIcE9do_narrowEcc
00824ec0   _ZNKSt5ctypeIwE10do_scan_isEsPKwS2_
00822420   _ZNKSt5ctypeIwE10do_tolowerEPwPKw
00824f40   _ZNKSt5ctypeIwE10do_tolowerEw
0081b7a0   _ZNKSt5ctypeIwE10do_toupperEPwPKw
00826c40   _ZNKSt5ctypeIwE10do_toupperEw
00824fc0   _ZNKSt5ctypeIwE11do_scan_notEsPKwS2_
00829c20   _ZNKSt5ctypeIwE2isEsw
0081f000   _ZNKSt5ctypeIwE5do_isEPKwS2_Ps
008287e0   _ZNKSt5ctypeIwE5do_isEsw
00829c40   _ZNKSt5ctypeIwE5widenEc
00829c60   _ZNKSt5ctypeIwE6narrowEwc
008238e0   _ZNKSt5ctypeIwE8do_widenEPKcS2_Pw
00828820   _ZNKSt5ctypeIwE8do_widenEc
0081f120   _ZNKSt5ctypeIwE9do_narrowEPKwS2_cPc
00828860   _ZNKSt5ctypeIwE9do_narrowEwc
00825040   _ZNKSt6locale9_GetfacetEj
00829c80   _ZNKSt7codecvtIcciE10do_unshiftERiPcS2_RS2_
00829ca0   _ZNKSt7codecvtIcciE5do_inERiPKcS3_RS3_PcS5_RS5_
00829cc0   _ZNKSt7codecvtIcciE6do_outERiPKcS3_RS3_PcS5_RS5_
00829ce0   _ZNKSt7codecvtIcciE9do_lengthERKiPKcS4_j
008224e0   _ZNKSt7codecvtIwciE10do_unshiftERiPcS2_RS2_
00829d00   _ZNKSt7codecvtIwciE11do_encodingEv
00829d20   _ZNKSt7codecvtIwciE13do_max_lengthEv
00829d40   _ZNKSt7codecvtIwciE16do_always_noconvEv
0081a760   _ZNKSt7codecvtIwciE5do_inERiPKcS3_RS3_PwS5_RS5_
0081b920   _ZNKSt7codecvtIwciE6do_outERiPKwS3_RS3_PcS5_RS5_
0081f240   _ZNKSt7codecvtIwciE9do_lengthERKiPKcS4_j
0081a900   _ZNKSt7num_putIcSt19ostreambuf_iteratorIcSt11char_traitsIcEEE11_PutgroupedES3_PKcjc
00803fa0   _ZNKSt7num_putIcSt19ostreambuf_iteratorIcSt11char_traitsIcEEE5_FputES3_RSt8ios_basecPKcjjjj
00823980   _ZNKSt7num_putIcSt19ostreambuf_iteratorIcSt11char_traitsIcEEE5_IfmtEPcPKcNSt5_IosbIiE9_FmtflagsE
0080bec0   _ZNKSt7num_putIcSt19ostreambuf_iteratorIcSt11char_traitsIcEEE5_IputES3_RSt8ios_basecPcj
008225a0   _ZNKSt7num_putIcSt19ostreambuf_iteratorIcSt11char_traitsIcEEE6do_putES3_RSt8ios_basecPKv
0080d5a0   _ZNKSt7num_putIcSt19ostreambuf_iteratorIcSt11char_traitsIcEEE6do_putES3_RSt8ios_basecb
00812e60   _ZNKSt7num_putIcSt19ostreambuf_iteratorIcSt11char_traitsIcEEE6do_putES3_RSt8ios_basecd
00813100   _ZNKSt7num_putIcSt19ostreambuf_iteratorIcSt11char_traitsIcEEE6do_putES3_RSt8ios_basece
008250c0   _ZNKSt7num_putIcSt19ostreambuf_iteratorIcSt11char_traitsIcEEE6do_putES3_RSt8ios_basecl
00825140   _ZNKSt7num_putIcSt19ostreambuf_iteratorIcSt11char_traitsIcEEE6do_putES3_RSt8ios_basecm
008251c0   _ZNKSt7num_putIcSt19ostreambuf_iteratorIcSt11char_traitsIcEEE6do_putES3_RSt8ios_basecx
00825240   _ZNKSt7num_putIcSt19ostreambuf_iteratorIcSt11char_traitsIcEEE6do_putES3_RSt8ios_basecy
00829d60   _ZNKSt8ios_base7failure8_DoraiseEv
008192c0   _ZNKSt8numpunctIcE11do_groupingEv
00819480   _ZNKSt8numpunctIcE11do_truenameEv
00819640   _ZNKSt8numpunctIcE12do_falsenameEv
00829d80   _ZNKSt8numpunctIcE16do_decimal_pointEv
00829da0   _ZNKSt8numpunctIcE16do_thousands_sepEv
00829dc0   _ZNKSt9exception4whatEv
008252c0   _ZNKSt9exception6_RaiseEv
00829de0   _ZNKSt9exception8_DoraiseEv
00826ca0   _ZNSiD0Ev
008288a0   _ZNSiD1Ev
00822660   _ZNSo5flushEv
0081baa0   _ZNSo6sentryC1ERSo
00826d00   _ZNSoD0Ev
008288e0   _ZNSoD1Ev
00813b80   _ZNSolsEj
0081d5c0   _ZNSs5_CopyEjj
008213e0   _ZNSs5eraseEjj
00812020   _ZNSs6appendEPKcj
0081c800   _ZNSs6assignEPKcj
00816ec0   _ZNSs6assignERKSsjj
00819800   _ZNSs6insertEjjc
00825340   _ZNSsC1EPKc
00829e00   _ZNSt10ctype_baseD0Ev
00829e20   _ZNSt10ctype_baseD1Ev
0082dc50   _ZNSt10moneypunctIwLb0EE2idE
0082dc54   _ZNSt10moneypunctIwLb1EE2idE
008253c0   _ZNSt11logic_errorC2ERKSs
00825440   _ZNSt11logic_errorD0Ev
00823a20   _ZNSt11logic_errorD1Ev
00829e40   _ZNSt12codecvt_baseD0Ev
00829e60   _ZNSt12codecvt_baseD1Ev
008254c0   _ZNSt12length_errorD0Ev
00823ac0   _ZNSt12length_errorD1Ev
00823b60   _ZNSt12out_of_rangeC1ERKSs
00825540   _ZNSt12out_of_rangeD0Ev
00823c00   _ZNSt12out_of_rangeD1Ev
008255c0   _ZNSt13basic_filebufIcSt11char_traitsIcEE4syncEv
00822720   _ZNSt13basic_filebufIcSt11char_traitsIcEE5_InitEPSt4FILENS2_7_InitflE
008153c0   _ZNSt13basic_filebufIcSt11char_traitsIcEE5imbueERKSt6locale
0080ad20   _ZNSt13basic_filebufIcSt11char_traitsIcEE5uflowEv
0081d700   _ZNSt13basic_filebufIcSt11char_traitsIcEE6setbufEPci
0082dc58   _ZNSt13basic_filebufIcSt11char_traitsIcEE7_StinitE
0081aaa0   _ZNSt13basic_filebufIcSt11char_traitsIcEE7seekoffElNSt5_IosbIiE8_SeekdirENS4_9_OpenmodeE
0081bc20   _ZNSt13basic_filebufIcSt11char_traitsIcEE7seekposESt4fposIiENSt5_IosbIiE9_OpenmodeE
0080a0c0   _ZNSt13basic_filebufIcSt11char_traitsIcEE8overflowEi
0080e080   _ZNSt13basic_filebufIcSt11char_traitsIcEE9_EndwriteEv
0081c960   _ZNSt13basic_filebufIcSt11char_traitsIcEE9pbackfailEi
00823ca0   _ZNSt13basic_filebufIcSt11char_traitsIcEE9underflowEv
0081cac0   _ZNSt13basic_filebufIcSt11char_traitsIcEED0Ev
0081d840   _ZNSt13basic_filebufIcSt11char_traitsIcEED1Ev
00825640   _ZNSt13basic_filebufIwSt11char_traitsIwEE4syncEv
00815600   _ZNSt13basic_filebufIwSt11char_traitsIwEE5imbueERKSt6locale
0080a700   _ZNSt13basic_filebufIwSt11char_traitsIwEE5uflowEv
0081f360   _ZNSt13basic_filebufIwSt11char_traitsIwEE6setbufEPwi
0082dc5c   _ZNSt13basic_filebufIwSt11char_traitsIwEE7_StinitE
0081ac40   _ZNSt13basic_filebufIwSt11char_traitsIwEE7seekoffElNSt5_IosbIiE8_SeekdirENS4_9_OpenmodeE
0081bda0   _ZNSt13basic_filebufIwSt11char_traitsIwEE7seekposESt4fposIiENSt5_IosbIiE9_OpenmodeE
008093e0   _ZNSt13basic_filebufIwSt11char_traitsIwEE8overflowEj
0080e5c0   _ZNSt13basic_filebufIwSt11char_traitsIwEE9_EndwriteEv
0081cc20   _ZNSt13basic_filebufIwSt11char_traitsIwEE9pbackfailEj
00823d40   _ZNSt13basic_filebufIwSt11char_traitsIwEE9underflowEv
0081cd80   _ZNSt13basic_filebufIwSt11char_traitsIwEED0Ev
0081d980   _ZNSt13basic_filebufIwSt11char_traitsIwEED1Ev
00826d60   _ZNSt13basic_istreamIwSt11char_traitsIwEED0Ev
00828920   _ZNSt13basic_istreamIwSt11char_traitsIwEED1Ev
00826dc0   _ZNSt13basic_ostreamIwSt11char_traitsIwEED0Ev
00828960   _ZNSt13basic_ostreamIwSt11char_traitsIwEED1Ev
008256c0   _ZNSt13runtime_errorD0Ev
00823de0   _ZNSt13runtime_errorD1Ev
00829e80   _ZNSt15basic_streambufIcSt11char_traitsIcEE4syncEv
00826e20   _ZNSt15basic_streambufIcSt11char_traitsIcEE5_InitEv
00829ea0   _ZNSt15basic_streambufIcSt11char_traitsIcEE5_LockEv
00829ec0   _ZNSt15basic_streambufIcSt11char_traitsIcEE5imbueERKSt6locale
00825740   _ZNSt15basic_streambufIcSt11char_traitsIcEE5sputcEc
00826e80   _ZNSt15basic_streambufIcSt11char_traitsIcEE5uflowEv
00829ee0   _ZNSt15basic_streambufIcSt11char_traitsIcEE6setbufEPci
00820540   _ZNSt15basic_streambufIcSt11char_traitsIcEE6xsgetnEPci
00820640   _ZNSt15basic_streambufIcSt11char_traitsIcEE6xsputnEPKci
00829f00   _ZNSt15basic_streambufIcSt11char_traitsIcEE7_UnlockEv
00826ee0   _ZNSt15basic_streambufIcSt11char_traitsIcEE7seekoffElNSt5_IosbIiE8_SeekdirENS4_9_OpenmodeE
00826f40   _ZNSt15basic_streambufIcSt11char_traitsIcEE7seekposESt4fposIiENSt5_IosbIiE9_OpenmodeE
00829f20   _ZNSt15basic_streambufIcSt11char_traitsIcEE8overflowEi
00829f40   _ZNSt15basic_streambufIcSt11char_traitsIcEE9pbackfailEi
00829f60   _ZNSt15basic_streambufIcSt11char_traitsIcEE9showmanycEv
00829f80   _ZNSt15basic_streambufIcSt11char_traitsIcEE9underflowEv
00826fa0   _ZNSt15basic_streambufIcSt11char_traitsIcEED0Ev
00827000   _ZNSt15basic_streambufIcSt11char_traitsIcEED1Ev
00829fa0   _ZNSt15basic_streambufIwSt11char_traitsIwEE4syncEv
00827060   _ZNSt15basic_streambufIwSt11char_traitsIwEE5_InitEv
00829fc0   _ZNSt15basic_streambufIwSt11char_traitsIwEE5_LockEv
00829fe0   _ZNSt15basic_streambufIwSt11char_traitsIwEE5imbueERKSt6locale
008270c0   _ZNSt15basic_streambufIwSt11char_traitsIwEE5uflowEv
0082a000   _ZNSt15basic_streambufIwSt11char_traitsIwEE6setbufEPwi
0081f480   _ZNSt15basic_streambufIwSt11char_traitsIwEE6xsgetnEPwi
00820740   _ZNSt15basic_streambufIwSt11char_traitsIwEE6xsputnEPKwi
0082a020   _ZNSt15basic_streambufIwSt11char_traitsIwEE7_UnlockEv
00827120   _ZNSt15basic_streambufIwSt11char_traitsIwEE7seekoffElNSt5_IosbIiE8_SeekdirENS4_9_OpenmodeE
00827180   _ZNSt15basic_streambufIwSt11char_traitsIwEE7seekposESt4fposIiENSt5_IosbIiE9_OpenmodeE
0082a040   _ZNSt15basic_streambufIwSt11char_traitsIwEE8overflowEj
0082a060   _ZNSt15basic_streambufIwSt11char_traitsIwEE9pbackfailEj
0082a080   _ZNSt15basic_streambufIwSt11char_traitsIwEE9showmanycEv
0082a0a0   _ZNSt15basic_streambufIwSt11char_traitsIwEE9underflowEv
008271e0   _ZNSt15basic_streambufIwSt11char_traitsIwEED0Ev
00827240   _ZNSt15basic_streambufIwSt11char_traitsIwEED1Ev
0082dc60   _ZNSt4fposIiE4_StzE
0082dc14   _ZNSt5ctypeIcE2idE
008257c0   _ZNSt5ctypeIcED0Ev
00825840   _ZNSt5ctypeIcED1Ev
0082dc94   _ZNSt5ctypeIwE2idE
008272a0   _ZNSt5ctypeIwED0Ev
00827300   _ZNSt5ctypeIwED1Ev
00830d0c   _ZNSt6_Winit9_Init_cntE
00805d20   _ZNSt6_WinitC1Ev
00805d20   _ZNSt6_WinitC2Ev
00814580   _ZNSt6_WinitD1Ev
00814580   _ZNSt6_WinitD2Ev
00830c90   _ZNSt6locale2id7_Id_cntE
0081dac0   _ZNSt6locale5_InitEv
008289a0   _ZNSt6locale5facet7_DecrefEv
008258c0   _ZNSt6locale5facet9_RegisterEv
0082a0c0   _ZNSt6locale5facetD0Ev
0082a0e0   _ZNSt6locale5facetD1Ev
00830c94   _ZNSt6locale7_Locimp8_ClocptrE
008227e0   _ZNSt6locale7_LocimpC1Eb
008227e0   _ZNSt6locale7_LocimpC2Eb
00827360   _ZNSt6locale7_LocimpD0Ev
0081dc00   _ZNSt6locale7_LocimpD1Ev
0081dc00   _ZNSt6locale7_LocimpD2Ev
008273c0   _ZNSt6localeC1Ev
008273c0   _ZNSt6localeC2Ev
00825940   _ZNSt6localeD1Ev
0082dc64   _ZNSt7codecvtIcciE2idE
0082a100   _ZNSt7codecvtIcciED0Ev
0082a120   _ZNSt7codecvtIcciED1Ev
0082dc10   _ZNSt7codecvtIwciE2idE
0082a140   _ZNSt7codecvtIwciED0Ev
0082a160   _ZNSt7codecvtIwciED1Ev
0082dc68   _ZNSt7collateIwE2idE
0082dc6c   _ZNSt7num_getIwSt19istreambuf_iteratorIwSt11char_traitsIwEEE2idE
0082dc70   _ZNSt7num_putIcSt19ostreambuf_iteratorIcSt11char_traitsIcEEE2idE
0082a180   _ZNSt7num_putIcSt19ostreambuf_iteratorIcSt11char_traitsIcEEED0Ev
0082a1a0   _ZNSt7num_putIcSt19ostreambuf_iteratorIcSt11char_traitsIcEEED1Ev
0082dc74   _ZNSt7num_putIwSt19ostreambuf_iteratorIwSt11char_traitsIwEEE2idE
0081dd40   _ZNSt8_LocinfoC1EPKc
0081dd40   _ZNSt8_LocinfoC2EPKc
0081f5a0   _ZNSt8_LocinfoD1Ev
0081f5a0   _ZNSt8_LocinfoD2Ev
00830cfc   _ZNSt8ios_base4Init9_Init_cntE
00807ea0   _ZNSt8ios_base4InitC1Ev
00807ea0   _ZNSt8ios_base4InitC2Ev
008199c0   _ZNSt8ios_base4InitD1Ev
008199c0   _ZNSt8ios_base4InitD2Ev
00823e80   _ZNSt8ios_base5_InitEv
00830cc4   _ZNSt8ios_base5_SyncE
00823f20   _ZNSt8ios_base5_TidyEv
0080f020   _ZNSt8ios_base5clearENSt5_IosbIiE8_IostateEb
00830cc0   _ZNSt8ios_base6_IndexE
008259c0   _ZNSt8ios_base7_AddstdEv
00825a40   _ZNSt8ios_base7failureD0Ev
00823fc0   _ZNSt8ios_base7failureD1Ev
00825ac0   _ZNSt8ios_base8_CallfnsENS_5eventE
00827420   _ZNSt8ios_baseD0Ev
008228a0   _ZNSt8ios_baseD1Ev
008228a0   _ZNSt8ios_baseD2Ev
0082dc78   _ZNSt8messagesIwE2idE
0082dc7c   _ZNSt8numpunctIcE2idE
0081ade0   _ZNSt8numpunctIcE5_InitERKSt8_Locinfo
00825b40   _ZNSt8numpunctIcED0Ev
00827480   _ZNSt8numpunctIcED1Ev
0082dc80   _ZNSt8numpunctIwE2idE
0082dc84   _ZNSt8time_getIwSt19istreambuf_iteratorIwSt11char_traitsIwEEE2idE
0082dc88   _ZNSt8time_putIwSt19ostreambuf_iteratorIwSt11char_traitsIwEEE2idE
00830a0c   _ZNSt9_FacetptrISt5ctypeIcEE6_PsaveE
00830bbc   _ZNSt9_FacetptrISt5ctypeIwEE6_PsaveE
00830bec   _ZNSt9_FacetptrISt7codecvtIcciEE6_PsaveE
00830c3c   _ZNSt9_FacetptrISt7codecvtIwciEE6_PsaveE
00830ca4   _ZNSt9_FacetptrISt7num_putIcSt19ostreambuf_iteratorIcSt11char_traitsIcEEEE6_PsaveE
00830ccc   _ZNSt9_FacetptrISt8numpunctIcEE6_PsaveE
0081cee0   _ZNSt9basic_iosIcSt11char_traitsIcEE4initEPSt15basic_streambufIcS1_Eb
008274e0   _ZNSt9basic_iosIcSt11char_traitsIcEED0Ev
0082a1c0   _ZNSt9basic_iosIcSt11char_traitsIcEED1Ev
0081d040   _ZNSt9basic_iosIwSt11char_traitsIwEE4initEPSt15basic_streambufIwS1_Eb
00827540   _ZNSt9basic_iosIwSt11char_traitsIwEED0Ev
0082a1e0   _ZNSt9basic_iosIwSt11char_traitsIwEED1Ev
0082a200   _ZNSt9exceptionD0Ev
0082a220   _ZNSt9exceptionD1Ev
0082dc8c   _ZNSt9money_getIwSt19istreambuf_iteratorIwSt11char_traitsIwEEE2idE
0082dc90   _ZNSt9money_putIwSt19ostreambuf_iteratorIwSt11char_traitsIwEEE2idE
00825bc0   _ZSt14_Debug_messagePKcS0_
00830d00   _ZSt14_Raise_handler
0082d808   _ZSt3cin
00830cc8   _ZSt4_Fpz
0082d8cc   _ZSt4cerr
0082d904   _ZSt4clog
0082d844   _ZSt4cout
0080f9e0   _ZSt4endlIcSt11char_traitsIcEERSt13basic_ostreamIT_T0_ES6_
0082d684   _ZSt4wcin
0082d6f8   _ZSt5wcerr
0082d730   _ZSt5wclog
0082d6c0   _ZSt5wcout
008289e0   _ZSt6_ThrowRKSt9exception
0082f0a4   _ZSt7_BADOFF
0081d1a0   _ZSt9use_facetISt5ctypeIcEERKT_RKSt6locale
0081bf20   _ZSt9use_facetISt5ctypeIwEERKT_RKSt6locale
0081de80   _ZSt9use_facetISt7num_putIcSt19ostreambuf_iteratorIcSt11char_traitsIcEEEERKT_RKSt6locale
0081dfc0   _ZSt9use_facetISt8numpunctIcEERKT_RKSt6locale
00810300   _ZStlsISt11char_traitsIcEERSt13basic_ostreamIcT_ES5_PKc
0082f974   _ZTIN10__cxxabiv117__class_type_infoE
0082fae4   _ZTIN10__cxxabiv120__si_class_type_infoE
0082faf0   _ZTIN10__cxxabiv121__vmi_class_type_infoE
0082fc04   _ZTINSt6locale5facetE
0082fafc   _ZTINSt6locale7_LocimpE
0082fb08   _ZTINSt8ios_base7failureE
0082f754   _ZTISi
0082f76c   _ZTISo
0082fb14   _ZTISt10ctype_base
0082fb20   _ZTISt11logic_error
0082fb2c   _ZTISt12codecvt_base
0082fb38   _ZTISt12length_error
0082fb44   _ZTISt12out_of_range
0082fb50   _ZTISt13basic_filebufIcSt11char_traitsIcEE
0082fb5c   _ZTISt13basic_filebufIwSt11char_traitsIwEE
0082f784   _ZTISt13basic_istreamIwSt11char_traitsIwEE
0082f79c   _ZTISt13basic_ostreamIwSt11char_traitsIwEE
0082fb68   _ZTISt13runtime_error
0082fc0c   _ZTISt15basic_streambufIcSt11char_traitsIcEE
0082fc14   _ZTISt15basic_streambufIwSt11char_traitsIwEE
0082fc1c   _ZTISt5_IosbIiE
0082fb74   _ZTISt5ctypeIcE
0082fb80   _ZTISt5ctypeIwE
0082fb8c   _ZTISt7codecvtIcciE
0082fb98   _ZTISt7codecvtIwciE
0082fba4   _ZTISt7num_putIcSt19ostreambuf_iteratorIcSt11char_traitsIcEEE
0082fbb0   _ZTISt8ios_base
0082fbbc   _ZTISt8numpunctIcE
0082fbc8   _ZTISt9basic_iosIcSt11char_traitsIcEE
0082fbd4   _ZTISt9basic_iosIwSt11char_traitsIwEE
0082fc24   _ZTISt9exception
0082fc2c   _ZTISt9type_info
0082f5a0   _ZTSN10__cxxabiv117__class_type_infoE
0082f4a0   _ZTSN10__cxxabiv120__si_class_type_infoE
0082f478   _ZTSN10__cxxabiv121__vmi_class_type_infoE
0082f8f0   _ZTSNSt6locale5facetE
0082f8d8   _ZTSNSt6locale7_LocimpE
0082f8a8   _ZTSNSt8ios_base7failureE
0082fe78   _ZTSSi
0082fe80   _ZTSSo
0082fa58   _ZTSSt10ctype_base
0082f998   _ZTSSt11logic_error
0082f920   _ZTSSt12codecvt_base
0082f938   _ZTSSt12length_error
0082f950   _ZTSSt12out_of_range
0082f3d8   _ZTSSt13basic_filebufIcSt11char_traitsIcEE
0082f400   _ZTSSt13basic_filebufIwSt11char_traitsIwEE
0082f428   _ZTSSt13basic_istreamIwSt11char_traitsIwEE
0082f450   _ZTSSt13basic_ostreamIwSt11char_traitsIwEE
0082f908   _ZTSSt13runtime_error
0082f328   _ZTSSt15basic_streambufIcSt11char_traitsIcEE
0082f358   _ZTSSt15basic_streambufIwSt11char_traitsIwEE
0082faa8   _ZTSSt5_IosbIiE
0082fab8   _ZTSSt5ctypeIcE
0082fac8   _ZTSSt5ctypeIwE
0082f9a8   _ZTSSt7codecvtIcciE
0082f9b8   _ZTSSt7codecvtIwciE
0082f0a8   _ZTSSt7num_putIcSt19ostreambuf_iteratorIcSt11char_traitsIcEEE
0082fad8   _ZTSSt8ios_base
0082fa68   _ZTSSt8numpunctIcE
0082f5c8   _ZTSSt9basic_iosIcSt11char_traitsIcEE
0082f5f0   _ZTSSt9basic_iosIwSt11char_traitsIwEE
0082fa88   _ZTSSt9exception
0082fa98   _ZTSSt9type_info
0082f170   _ZTTSi
0082f1a0   _ZTTSo
0082f1d0   _ZTTSt13basic_istreamIwSt11char_traitsIwEE
0082f200   _ZTTSt13basic_ostreamIwSt11char_traitsIwEE
0082f9c8   _ZTVN10__cxxabiv117__class_type_infoE
0082f9d8   _ZTVN10__cxxabiv120__si_class_type_infoE
0082f9e8   _ZTVN10__cxxabiv121__vmi_class_type_infoE
0082f9f8   _ZTVNSt6locale5facetE
0082fa08   _ZTVNSt6locale7_LocimpE
0082f7b8   _ZTVNSt8ios_base7failureE
0082f148   _ZTVSi
0082f178   _ZTVSo
0082fa18   _ZTVSt10ctype_base
0082f7d0   _ZTVSt11logic_error
0082f738   _ZTVSt12codecvt_base
0082f7e8   _ZTVSt12length_error
0082f800   _ZTVSt12out_of_range
0082ee88   _ZTVSt13basic_filebufIcSt11char_traitsIcEE
0082eed0   _ZTVSt13basic_filebufIwSt11char_traitsIwEE
0082f1a8   _ZTVSt13basic_istreamIwSt11char_traitsIwEE
0082f1d8   _ZTVSt13basic_ostreamIwSt11char_traitsIwEE
0082f818   _ZTVSt13runtime_error
0082ef18   _ZTVSt15basic_streambufIcSt11char_traitsIcEE
0082ef60   _ZTVSt15basic_streambufIwSt11char_traitsIwEE
0082f208   _ZTVSt5ctypeIcE
0082efe8   _ZTVSt5ctypeIwE
0082f2c8   _ZTVSt7codecvtIcciE
0082f2f8   _ZTVSt7codecvtIwciE
0082f238   _ZTVSt7num_putIcSt19ostreambuf_iteratorIcSt11char_traitsIcEEE
0082fa28   _ZTVSt8ios_base
0082f4c8   _ZTVSt8numpunctIcE
0082fa38   _ZTVSt9basic_iosIcSt11char_traitsIcEE
0082fa48   _ZTVSt9basic_iosIwSt11char_traitsIwEE
0082f830   _ZTVSt9exception
008275a0   _ZTv0_n12_NSiD0Ev
00828a20   _ZTv0_n12_NSiD1Ev
00827600   _ZTv0_n12_NSoD0Ev
00828a60   _ZTv0_n12_NSoD1Ev
00827660   _ZTv0_n12_NSt13basic_istreamIwSt11char_traitsIwEED0Ev
00828aa0   _ZTv0_n12_NSt13basic_istreamIwSt11char_traitsIwEED1Ev
008276c0   _ZTv0_n12_NSt13basic_ostreamIwSt11char_traitsIwEED0Ev
00828ae0   _ZTv0_n12_NSt13basic_ostreamIwSt11char_traitsIwEED1Ev
0082feb0   _ZZNKSt7num_putIcSt19ostreambuf_iteratorIcSt11char_traitsIcEEE5_FputES3_RSt8ios_basecPKcjjjjEs
0082feb8   _ZZNKSt7num_putIcSt19ostreambuf_iteratorIcSt11char_traitsIcEEE5_FputES3_RSt8ios_basecPKcjjjjEs_0
0082fe88   _ZZNKSt7num_putIcSt19ostreambuf_iteratorIcSt11char_traitsIcEEE6do_putES3_RSt8ios_basecPKvEs
0082fe90   _ZZNKSt7num_putIcSt19ostreambuf_iteratorIcSt11char_traitsIcEEE6do_putES3_RSt8ios_baseclEs
0082fe98   _ZZNKSt7num_putIcSt19ostreambuf_iteratorIcSt11char_traitsIcEEE6do_putES3_RSt8ios_basecmEs
0082fea0   _ZZNKSt7num_putIcSt19ostreambuf_iteratorIcSt11char_traitsIcEEE6do_putES3_RSt8ios_basecxEs
0082fea8   _ZZNKSt7num_putIcSt19ostreambuf_iteratorIcSt11char_traitsIcEEE6do_putES3_RSt8ios_basecyEs
0082fc68   _ZZNKSt8_Locinfo8_GettrueEvEs
0082fc60   _ZZNKSt8_Locinfo9_GetfalseEvEs
0082a260   _ZdaPv
0082a260   _ZdlPv
00824060   _Znaj
00824060   _Znwj
0082a280   _ZnwjPv
00800000   __ASM__
00831130   __CIOBUF_
00800070   __ISA__
00800088   __PLAT__
008000b0   __TARG__
00831e70   __TI_CINIT_Base
00831ea8   __TI_CINIT_Limit
00831e4c   __TI_Handler_Table_Base
00831e58   __TI_Handler_Table_Limit
00831250   __TI_INITARRAY_Base
00831298   __TI_INITARRAY_Limit
00831130   __TI_STACK_END
00000200   __TI_STACK_SIZE
00831298   __TI_STATIC_BASE
00000001   __TI_args_main
0082a4e0   __TI_decompress_none
0082a500   __TI_decompress_rle24
00830cbc   __TI_enable_exit_profile_output
ffffffff   __TI_pprof_out_hndl
ffffffff   __TI_prof_data_size
ffffffff   __TI_prof_data_start
00821840   __TI_zero_init
008000d8   __TRDR__
ffffffff   __binit__
0080c480   __c6xabi_divd
00813e00   __c6xabi_divf
008214c0   __c6xabi_divi
00822a20   __c6xabi_divu
0081af80   __c6xabi_divul
00815840   __c6xabi_divull
0082a2a0   __c6xabi_errno_addr
00825c40   __c6xabi_fixfu
00827720   __c6xabi_frcmpyd_div
00828b20   __c6xabi_isinf
00825cc0   __c6xabi_llshl
00827780   __c6xabi_llshru
0082a2c0   __c6xabi_negll
00822ae0   __c6xabi_remi
00824100   __c6xabi_remu
00825d40   __c6xabi_roundf
0082a2e0   __c6xabi_truncf
00830d2c   __c_args__
0082a300   __cxa_atexit
00822960   __cxa_finalize
0082a320   __cxa_guard_acquire
0082a340   __cxa_guard_release
0082a360   __cxa_ia64_exit
008277e0   __cxa_vec_ctor
00827840   __cxa_vec_new
008214c0   __divi
00822a20   __divu
008312a4   __dso_handle
00830cf8   __errno
0082a380   __memzero
00822ae0   __remi
00824100   __remu
00828ba0   __sti___11_locale0_cpp_36e19383
00810bc0   __sti___11_wlocale_cpp_5e80b67f
008147e0   __sti___12_iostream_cpp_3a72482d
00814a40   __sti___12_wiostrea_cpp_5e80b67f
008160b0   __sti___13_lteSystem_cpp_g_nUsers
00800000   __sti___17_blasFunctions_cpp_1c39e1a6
00801ae0   __sti___17_dynamicMemory_cpp_0783bf6f
00806ee0   __sti___18_pipdScheduling_cpp_1c39e1a6
00802e80   __sti___19_lapackFunctions_cpp_4deb6974
0080db20   __sti___20_displayFunctions_cpp_dbd75e48
00811a20   __sti___20_greedyScheduling_cpp_b8e1509e
00820940   __sti___20_memoryManagement_cpp_bbe36996
00819d40   __sti___20_randomScheduling_cpp_1a9b9836
00804f20   __sti___22_frameworkFunctions_cpp_ce0052a8
00824560   __sti___22_globalDeclarations_cpp_286f88f8
0080d000   __sti___22_succprojScheduling_cpp_87bf4a20
00811360   __sti___23_supportingFunctions_cpp_fd751b3a
0081e600   __sti___24_schedulingAlgorithms_cpp_fc6d3ca0
0082a3a0   __xdc__init
008301b4   __xdc__init__addr
00828be0   _args_main
00000200   _argsize
0081e100   _auto_init_elf
0081f6c0   _buff_read
008241a0   _c_int00
00824240   _cleanup
00830cb4   _cleanup_ptr
0081f7e0   _closefile
0082eb88   _ctypes_
00822ba0   _doflush
00830cb8   _dtors_ptr
00830ce4   _ft_end
008301b8   _ftable
00830cdc   _lock
00830d08   _new_handler
0082a3c0   _nop
00810760   _printfi
00822c60   _rd_ok
0082a440   _register_lock
0082a460   _register_unlock
00830f30   _stack
008278a0   _subcull
0082dad0   _tmpnams
00830ce0   _unlock
00820840   _wrt_ok
0082a4a0   abort
0082a4c0   atexit
00821680   atoi
ffffffff   binit
008312d0   bufferHeap
008279c0   calloc
00815fd8   channelUpdate
008312b8   clock0
008312c0   clock1
00824834   clockISRA
00824808   clockISRB
00821760   close
00815fc0   displaySchedulerInfo
0082d93c   dlConfig
008312a0   dynamicMemory
00830cf8   errno
00822d20   exit
00827a20   fclose
00821920   fflush
0081e380   fgetc
00827a80   fgetpos
0082a520   fgetwc
00817300   fputc
00810fc0   fputs
0082a540   fputwc
00828ca0   free
0081d300   frexpf
0081fa20   fseek
0082a560   fsetpos
0081fb40   ftell
0080f520   fwrite
008312ac   g_nReceive
008312ae   g_nSchedBlocks
008312aa   g_nTransmit
008312a8   g_nUsers
0c000000   globalChannelMatrix
0081d460   ldexpf
0082a580   localeconv
00824600   lseek
00815f30   lteSystemInit
00821a00   ltoa
008247e0   main
00825e40   malloc
00828ce0   mbrtowc
00828d20   mbtowc
00827ae0   memccpy
008246a0   memcpy
00827b40   memmove
00821ae0   memset
00827ba0   modff
0080b300   powf
00821bc0   printf
00825ec0   rand
008312cc   reInitSystem
00824740   read
00825f40   readmsg
008265c0   remove
00815f00   schedulingForCurrentSF
00827c00   setlocale
00817f80   setvbuf
00827c60   sprintf
0081fc60   sqrtf
00828d60   strcmp
00827cc0   strcspn
008312c4   swiHandleA
008312c8   swiHandleB
0082dac0   sysConfig
008312bc   task0
0082fec0   ti_sysbios_BIOS_Module__state__V
0082a5a0   ti_sysbios_BIOS_RtsGateProxy_enter__E
0082a5c0   ti_sysbios_BIOS_RtsGateProxy_leave__E
0082a820   ti_sysbios_BIOS_RtsGateProxy_query__E
00827d20   ti_sysbios_BIOS_atExitFunc__I
00827d80   ti_sysbios_BIOS_errorRaiseHook__I
00828da0   ti_sysbios_BIOS_exitFunc__I
0082a5e0   ti_sysbios_BIOS_getCpuFreq__E
0082a600   ti_sysbios_BIOS_nullFunc__I
00827de0   ti_sysbios_BIOS_registerRTSLock__I
00827e40   ti_sysbios_BIOS_removeRTSLock__I
00828de0   ti_sysbios_BIOS_rtsLock__I
00827ea0   ti_sysbios_BIOS_rtsUnlock__I
0082a620   ti_sysbios_BIOS_setThreadType__E
00828e20   ti_sysbios_BIOS_startFunc__I
0082a640   ti_sysbios_BIOS_start__E
0082a660   ti_sysbios_family_c62_TaskSupport_Module__startupDone__S
00828c60   ti_sysbios_family_c62_TaskSupport_buildTaskStack
0082a680   ti_sysbios_family_c62_TaskSupport_checkStack__E
0082a480   ti_sysbios_family_c62_TaskSupport_glue
00825fc0   ti_sysbios_family_c62_TaskSupport_start__E
00825dc0   ti_sysbios_family_c62_TaskSupport_swap__E
0082f2c4   ti_sysbios_family_c64p_Exception_E_exceptionMax__C
0082f296   ti_sysbios_family_c64p_Exception_Module__id__C
0082fee4   ti_sysbios_family_c64p_Exception_Module__state__V
00824880   ti_sysbios_family_c64p_Exception_Module_startup__E
0081c220   ti_sysbios_family_c64p_Exception_dispatch__E
0082f2f4   ti_sysbios_family_c64p_Exception_exceptionHook__C
0082f324   ti_sysbios_family_c64p_Exception_externalHook__C
00807720   ti_sysbios_family_c64p_Exception_handler__I
00816140   ti_sysbios_family_c64p_Exception_internalHandler__I
0082f354   ti_sysbios_family_c64p_Exception_internalHook__C
0082f3d4   ti_sysbios_family_c64p_Exception_nmiHook__C
0082f352   ti_sysbios_family_c64p_Exception_useInternalBuffer__C
00831400   ti_sysbios_family_c64p_Hwi0
0082f5c4   ti_sysbios_family_c64p_Hwi_LD_end__C
0082f5ec   ti_sysbios_family_c64p_Hwi_LM_begin__C
0082f714   ti_sysbios_family_c64p_Hwi_Module__diagsEnabled__C
0082f7b4   ti_sysbios_family_c64p_Hwi_Module__diagsIncluded__C
0082f8d4   ti_sysbios_family_c64p_Hwi_Module__diagsMask__C
0082f382   ti_sysbios_family_c64p_Hwi_Module__id__C
0082f49e   ti_sysbios_family_c64p_Hwi_Module__loggerDefined__C
0082f8ec   ti_sysbios_family_c64p_Hwi_Module__loggerFxn1__C
0082f904   ti_sysbios_family_c64p_Hwi_Module__loggerFxn8__C
0082f91c   ti_sysbios_family_c64p_Hwi_Module__loggerObj__C
0082ff14   ti_sysbios_family_c64p_Hwi_Module__root__V
00828e60   ti_sysbios_family_c64p_Hwi_Module__startupDone__F
00828e60   ti_sysbios_family_c64p_Hwi_Module__startupDone__S
0082ff20   ti_sysbios_family_c64p_Hwi_Module__state__V
0081e740   ti_sysbios_family_c64p_Hwi_Module_startup__E
00830c60   ti_sysbios_family_c64p_Hwi_Object__table__V
0082a6a0   ti_sysbios_family_c64p_Hwi_clearInterrupt__E
00828ea0   ti_sysbios_family_c64p_Hwi_disableInterrupt__E
00817d80   ti_sysbios_family_c64p_Hwi_dispatchAlways
00826040   ti_sysbios_family_c64p_Hwi_dispatchC__I
00814ca0   ti_sysbios_family_c64p_Hwi_dispatchCore__I
00828ee0   ti_sysbios_family_c64p_Hwi_enableInterrupt__E
008260c0   ti_sysbios_family_c64p_Hwi_getStackInfo__E
00831400   ti_sysbios_family_c64p_Hwi_int0
00831420   ti_sysbios_family_c64p_Hwi_int1
00831540   ti_sysbios_family_c64p_Hwi_int10
00831560   ti_sysbios_family_c64p_Hwi_int11
00831580   ti_sysbios_family_c64p_Hwi_int12
008315a0   ti_sysbios_family_c64p_Hwi_int13
008315c0   ti_sysbios_family_c64p_Hwi_int14
008315e0   ti_sysbios_family_c64p_Hwi_int15
00831440   ti_sysbios_family_c64p_Hwi_int2
00831460   ti_sysbios_family_c64p_Hwi_int3
00831480   ti_sysbios_family_c64p_Hwi_int4
008314a0   ti_sysbios_family_c64p_Hwi_int5
008314c0   ti_sysbios_family_c64p_Hwi_int6
008314e0   ti_sysbios_family_c64p_Hwi_int7
00831500   ti_sysbios_family_c64p_Hwi_int8
00831520   ti_sysbios_family_c64p_Hwi_int9
0082a6c0   ti_sysbios_family_c64p_Hwi_startup__E
00827900   ti_sysbios_family_c64p_Hwi_switchAndDispatch__I
0082a6e0   ti_sysbios_family_c64p_Hwi_switchFromBootStack__E
0082a700   ti_sysbios_family_c64p_TimestampProvider_Module_startup__E
0082a720   ti_sysbios_family_c64p_TimestampProvider_get32__E
0082a740   ti_sysbios_family_c64p_TimestampProvider_get64__E
0082a5e0   ti_sysbios_family_c64p_TimestampProvider_getFreq__E
0082a760   ti_sysbios_family_c64p_tci6488_TimerSupport_enable__E
0081e880   ti_sysbios_family_c66_Cache_Module_startup__E
0082fbe0   ti_sysbios_family_c66_Cache_initSize__C
0082e1c8   ti_sysbios_family_c66_Cache_marvalues__C
00827960   ti_sysbios_family_xxx_Hwi_switchAndRunFunc
00828f20   ti_sysbios_gates_GateHwi_Handle__label__S
0082a780   ti_sysbios_gates_GateHwi_Instance_init__E
0082f4ec   ti_sysbios_gates_GateHwi_Module__FXNS__C
0082ff88   ti_sysbios_gates_GateHwi_Module__root__V
0082f634   ti_sysbios_gates_GateHwi_Object__DESC__C
0082f848   ti_sysbios_gates_GateHwi_Object__PARAMS__C
00827f00   ti_sysbios_gates_GateHwi_Object__create__S
00828f60   ti_sysbios_gates_GateHwi_Object__delete__S
00830d10   ti_sysbios_gates_GateHwi_Object__table__V
0082a7a0   ti_sysbios_gates_GateHwi_enter__E
0082a7c0   ti_sysbios_gates_GateHwi_leave__E
0082a7e0   ti_sysbios_gates_GateHwi_query__E
0082f934   ti_sysbios_gates_GateMutex_A_badContext__C
00828fa0   ti_sysbios_gates_GateMutex_Handle__label__S
0082f94c   ti_sysbios_gates_GateMutex_Instance_State_sem__O
0082a800   ti_sysbios_gates_GateMutex_Instance_finalize__E
00828fe0   ti_sysbios_gates_GateMutex_Instance_init__E
0082f510   ti_sysbios_gates_GateMutex_Module__FXNS__C
0082f994   ti_sysbios_gates_GateMutex_Module__diagsEnabled__C
0082fab4   ti_sysbios_gates_GateMutex_Module__diagsIncluded__C
0082fac4   ti_sysbios_gates_GateMutex_Module__diagsMask__C
0082f4c6   ti_sysbios_gates_GateMutex_Module__id__C
0082ff90   ti_sysbios_gates_GateMutex_Module__root__V
0082f654   ti_sysbios_gates_GateMutex_Object__DESC__C
0082f860   ti_sysbios_gates_GateMutex_Object__PARAMS__C
00827f60   ti_sysbios_gates_GateMutex_Object__create__S
00829020   ti_sysbios_gates_GateMutex_Object__delete__S
00830a10   ti_sysbios_gates_GateMutex_Object__table__V
0081b120   ti_sysbios_gates_GateMutex_enter__E
00829060   ti_sysbios_gates_GateMutex_leave__E
0082a820   ti_sysbios_gates_GateMutex_query__E
0082fad4   ti_sysbios_hal_Hwi_E_stackOverflow__C
0082a840   ti_sysbios_hal_Hwi_HwiProxy_Module__startupDone__S
0082a6a0   ti_sysbios_hal_Hwi_HwiProxy_clearInterrupt__E
00828ea0   ti_sysbios_hal_Hwi_HwiProxy_disableInterrupt__E
00828ee0   ti_sysbios_hal_Hwi_HwiProxy_enableInterrupt__E
008260c0   ti_sysbios_hal_Hwi_HwiProxy_getStackInfo__E
0082a6c0   ti_sysbios_hal_Hwi_HwiProxy_startup__E
0082a6e0   ti_sysbios_hal_Hwi_HwiProxy_switchFromBootStack__E
0082f5c2   ti_sysbios_hal_Hwi_Module__id__C
0082ff98   ti_sysbios_hal_Hwi_Module__root__V
0082a860   ti_sysbios_hal_Hwi_Module_startup__E
00830ce8   ti_sysbios_hal_Hwi_Object__table__V
00826140   ti_sysbios_hal_Hwi_checkStack
0082a6a0   ti_sysbios_hal_Hwi_clearInterrupt__E
00828ea0   ti_sysbios_hal_Hwi_disableInterrupt__E
00828ee0   ti_sysbios_hal_Hwi_enableInterrupt__E
008260c0   ti_sysbios_hal_Hwi_getStackInfo__E
008261c0   ti_sysbios_hal_Hwi_initStack
0082a6c0   ti_sysbios_hal_Hwi_startup__E
0082a6e0   ti_sysbios_hal_Hwi_switchFromBootStack__E
0082fbec   ti_sysbios_heaps_HeapMem_A_align__C
0082fc44   ti_sysbios_heaps_HeapMem_A_heapSize__C
0082fc70   ti_sysbios_heaps_HeapMem_A_invalidFree__C
0082fc74   ti_sysbios_heaps_HeapMem_A_zeroBlock__C
0082fc78   ti_sysbios_heaps_HeapMem_E_memory__C
008290a0   ti_sysbios_heaps_HeapMem_Handle__label__S
0c00c800   ti_sysbios_heaps_HeapMem_Instance_State_0_buf__A
008125e0   ti_sysbios_heaps_HeapMem_Instance_init__E
0082a880   ti_sysbios_heaps_HeapMem_Module_GateProxy_enter__E
0082a8a0   ti_sysbios_heaps_HeapMem_Module_GateProxy_leave__E
0082a820   ti_sysbios_heaps_HeapMem_Module_GateProxy_query__E
0082f384   ti_sysbios_heaps_HeapMem_Module__FXNS__C
0082fc7c   ti_sysbios_heaps_HeapMem_Module__diagsEnabled__C
0082fc80   ti_sysbios_heaps_HeapMem_Module__diagsIncluded__C
0082fc84   ti_sysbios_heaps_HeapMem_Module__diagsMask__C
0082fc88   ti_sysbios_heaps_HeapMem_Module__gateObj__C
0082f5ea   ti_sysbios_heaps_HeapMem_Module__id__C
0082ffa4   ti_sysbios_heaps_HeapMem_Module__root__V
0082f674   ti_sysbios_heaps_HeapMem_Object__DESC__C
0082f534   ti_sysbios_heaps_HeapMem_Object__PARAMS__C
0082fc8c   ti_sysbios_heaps_HeapMem_Object__count__C
00827fc0   ti_sysbios_heaps_HeapMem_Object__create__S
008290e0   ti_sysbios_heaps_HeapMem_Object__delete__S
00829120   ti_sysbios_heaps_HeapMem_Object__get__S
0c0147f8   ti_sysbios_heaps_HeapMem_Object__table__V
00809a60   ti_sysbios_heaps_HeapMem_alloc__E
0080b8e0   ti_sysbios_heaps_HeapMem_free__E
00822de0   ti_sysbios_heaps_HeapMem_getStats__E
00824920   ti_sysbios_heaps_HeapMem_init__I
0082a8c0   ti_sysbios_heaps_HeapMem_isBlocking__E
0082fc90   ti_sysbios_heaps_HeapMem_reqAlign__C
0082fc94   ti_sysbios_knl_Clock_LM_begin__C
0082fc98   ti_sysbios_knl_Clock_LM_tick__C
0082fc9c   ti_sysbios_knl_Clock_LW_delayed__C
0082fca0   ti_sysbios_knl_Clock_Module_State_clockQ__O
0082fca4   ti_sysbios_knl_Clock_Module__diagsEnabled__C
0082fca8   ti_sysbios_knl_Clock_Module__diagsIncluded__C
0082fcac   ti_sysbios_knl_Clock_Module__diagsMask__C
0082f632   ti_sysbios_knl_Clock_Module__id__C
0082f736   ti_sysbios_knl_Clock_Module__loggerDefined__C
0082fcb0   ti_sysbios_knl_Clock_Module__loggerFxn1__C
0082fcb4   ti_sysbios_knl_Clock_Module__loggerFxn2__C
0082fcb8   ti_sysbios_knl_Clock_Module__loggerObj__C
0082ffac   ti_sysbios_knl_Clock_Module__root__V
0082ffb8   ti_sysbios_knl_Clock_Module__state__V
00828020   ti_sysbios_knl_Clock_Module_startup__E
00830a50   ti_sysbios_knl_Clock_Object__table__V
0082a8e0   ti_sysbios_knl_Clock_TimerProxy_Module__startupDone__S
0082a900   ti_sysbios_knl_Clock_TimerProxy_getMaxTicks__E
00821ca0   ti_sysbios_knl_Clock_TimerProxy_startup__E
00828080   ti_sysbios_knl_Clock_doTick__I
0082a920   ti_sysbios_knl_Clock_getTicks__E
00822ea0   ti_sysbios_knl_Clock_logTick__E
00813640   ti_sysbios_knl_Clock_workFunc__E
0082ffe4   ti_sysbios_knl_Event_Module__root__V
0082fbf0   ti_sysbios_knl_Idle_funcList__A
0082fc34   ti_sysbios_knl_Idle_funcList__C
0082a940   ti_sysbios_knl_Idle_loop__E
00826240   ti_sysbios_knl_Idle_run__E
0082a960   ti_sysbios_knl_Queue_Instance_init__E
0082fff0   ti_sysbios_knl_Queue_Module__root__V
0082f694   ti_sysbios_knl_Queue_Object__DESC__C
0082f878   ti_sysbios_knl_Queue_Object__PARAMS__C
00829160   ti_sysbios_knl_Queue_Object__destruct__S
0082a980   ti_sysbios_knl_Queue_Object__get__S
008280e0   ti_sysbios_knl_Queue_construct
0082a9a0   ti_sysbios_knl_Queue_destruct
0082a9c0   ti_sysbios_knl_Queue_empty__E
0082fcbc   ti_sysbios_knl_Semaphore_A_badContext__C
0082fcc0   ti_sysbios_knl_Semaphore_A_noEvents__C
0082fcc4   ti_sysbios_knl_Semaphore_A_overflow__C
0082fcc8   ti_sysbios_knl_Semaphore_A_pendTaskDisabled__C
0082fccc   ti_sysbios_knl_Semaphore_Instance_State_pendQ__O
0082a9e0   ti_sysbios_knl_Semaphore_Instance_finalize__E
0081e9c0   ti_sysbios_knl_Semaphore_Instance_init__E
0082fcd0   ti_sysbios_knl_Semaphore_LM_pend__C
0082fcd4   ti_sysbios_knl_Semaphore_LM_post__C
0082fcd8   ti_sysbios_knl_Semaphore_Module__diagsEnabled__C
0082fcdc   ti_sysbios_knl_Semaphore_Module__diagsIncluded__C
0082fce0   ti_sysbios_knl_Semaphore_Module__diagsMask__C
0082f902   ti_sysbios_knl_Semaphore_Module__id__C
0082f91a   ti_sysbios_knl_Semaphore_Module__loggerDefined__C
0082fce4   ti_sysbios_knl_Semaphore_Module__loggerFxn2__C
0082fce8   ti_sysbios_knl_Semaphore_Module__loggerFxn4__C
0082fcec   ti_sysbios_knl_Semaphore_Module__loggerObj__C
0082fff8   ti_sysbios_knl_Semaphore_Module__root__V
0082f6b4   ti_sysbios_knl_Semaphore_Object__DESC__C
0082f558   ti_sysbios_knl_Semaphore_Object__PARAMS__C
008291a0   ti_sysbios_knl_Semaphore_Object__destruct__S
00830c78   ti_sysbios_knl_Semaphore_Object__table__V
00828140   ti_sysbios_knl_Semaphore_construct
0082aa00   ti_sysbios_knl_Semaphore_destruct
008281a0   ti_sysbios_knl_Semaphore_pendTimeout__I
00808600   ti_sysbios_knl_Semaphore_pend__E
00816380   ti_sysbios_knl_Semaphore_post__E
0082fcf0   ti_sysbios_knl_Swi_LD_end__C
0082fcf4   ti_sysbios_knl_Swi_LM_begin__C
0082fcf8   ti_sysbios_knl_Swi_LM_post__C
00830798   ti_sysbios_knl_Swi_Module_State_0_readyQ__A
0082fcfc   ti_sysbios_knl_Swi_Module__diagsEnabled__C
0082fd00   ti_sysbios_knl_Swi_Module__diagsIncluded__C
0082fd04   ti_sysbios_knl_Swi_Module__diagsMask__C
0082f932   ti_sysbios_knl_Swi_Module__id__C
0082f94a   ti_sysbios_knl_Swi_Module__loggerDefined__C
0082fd08   ti_sysbios_knl_Swi_Module__loggerFxn1__C
0082fd0c   ti_sysbios_knl_Swi_Module__loggerFxn4__C
0082fd10   ti_sysbios_knl_Swi_Module__loggerObj__C
00830004   ti_sysbios_knl_Swi_Module__root__V
00830010   ti_sysbios_knl_Swi_Module__state__V
00828200   ti_sysbios_knl_Swi_Module_startup__E
0082fd14   ti_sysbios_knl_Swi_Object__count__C
008291e0   ti_sysbios_knl_Swi_Object__get__S
00830708   ti_sysbios_knl_Swi_Object__table__V
0082aa20   ti_sysbios_knl_Swi_disable__E
0081eb00   ti_sysbios_knl_Swi_post__E
00820a40   ti_sysbios_knl_Swi_restoreHwi__E
00811d20   ti_sysbios_knl_Swi_runLoop__I
00817520   ti_sysbios_knl_Swi_run__I
00822f60   ti_sysbios_knl_Swi_schedule__I
008262c0   ti_sysbios_knl_Swi_startup__E
0082fd18   ti_sysbios_knl_Task_E_spOutOfBounds__C
0082fd1c   ti_sysbios_knl_Task_E_stackOverflow__C
0082af00   ti_sysbios_knl_Task_Instance_State_0_hookEnv__A
0082c590   ti_sysbios_knl_Task_Instance_State_0_stack__A
0082af08   ti_sysbios_knl_Task_Instance_State_1_hookEnv__A
0082cd90   ti_sysbios_knl_Task_Instance_State_1_stack__A
0082fd20   ti_sysbios_knl_Task_LD_block__C
0082fd24   ti_sysbios_knl_Task_LD_exit__C
0082fd28   ti_sysbios_knl_Task_LD_ready__C
0082fd2c   ti_sysbios_knl_Task_LM_switch__C
00830d18   ti_sysbios_knl_Task_Module_State_0_idleTask__A
00830818   ti_sysbios_knl_Task_Module_State_0_readyQ__A
0082fd30   ti_sysbios_knl_Task_Module_State_inactiveQ__O
0082fd34   ti_sysbios_knl_Task_Module__diagsEnabled__C
0082fd38   ti_sysbios_knl_Task_Module__diagsIncluded__C
0082fd3c   ti_sysbios_knl_Task_Module__diagsMask__C
0082f972   ti_sysbios_knl_Task_Module__id__C
0082f992   ti_sysbios_knl_Task_Module__loggerDefined__C
0082fd40   ti_sysbios_knl_Task_Module__loggerFxn2__C
0082fd44   ti_sysbios_knl_Task_Module__loggerFxn4__C
0082fd48   ti_sysbios_knl_Task_Module__loggerObj__C
0083002c   ti_sysbios_knl_Task_Module__root__V
00830038   ti_sysbios_knl_Task_Module__state__V
0080fe80   ti_sysbios_knl_Task_Module_startup__E
0082fd4c   ti_sysbios_knl_Task_Object__count__C
00829220   ti_sysbios_knl_Task_Object__get__S
0082fd50   ti_sysbios_knl_Task_Object__heap__C
00830668   ti_sysbios_knl_Task_Object__table__V
0082aa40   ti_sysbios_knl_Task_SupportProxy_Module__startupDone__S
0082a680   ti_sysbios_knl_Task_SupportProxy_checkStack__E
00825fc0   ti_sysbios_knl_Task_SupportProxy_start__E
00825dc0   ti_sysbios_knl_Task_SupportProxy_swap__E
0082fd54   ti_sysbios_knl_Task_allBlockedFunc__C
00823020   ti_sysbios_knl_Task_allBlockedFunction__I
0081ec40   ti_sysbios_knl_Task_blockI__E
00819f00   ti_sysbios_knl_Task_checkStacks__E
0082aa60   ti_sysbios_knl_Task_disable__E
00828260   ti_sysbios_knl_Task_enter__I
00818980   ti_sysbios_knl_Task_exit__E
0082f890   ti_sysbios_knl_Task_hooks__A
0082fc3c   ti_sysbios_knl_Task_hooks__C
0082fa86   ti_sysbios_knl_Task_initStackFlag__C
0082fd58   ti_sysbios_knl_Task_numConstructedTasks__C
00826340   ti_sysbios_knl_Task_restore__E
00817740   ti_sysbios_knl_Task_schedule__I
00818180   ti_sysbios_knl_Task_startCore__E
0082aa80   ti_sysbios_knl_Task_startup__E
0081b2c0   ti_sysbios_knl_Task_unblockI__E
0082fd5c   ti_sysbios_timers_timer64_Timer_A_notAvailable__C
0082fd60   ti_sysbios_timers_timer64_Timer_E_cannotSupport__C
00830508   ti_sysbios_timers_timer64_Timer_Module_State_0_device__A
00830a90   ti_sysbios_timers_timer64_Timer_Module_State_0_gctrl__A
00830ad0   ti_sysbios_timers_timer64_Timer_Module_State_0_handles__A
00830b10   ti_sysbios_timers_timer64_Timer_Module_State_0_intFreqs__A
0082fd64   ti_sysbios_timers_timer64_Timer_Module__diagsEnabled__C
0082fd68   ti_sysbios_timers_timer64_Timer_Module__diagsIncluded__C
0082fd6c   ti_sysbios_timers_timer64_Timer_Module__diagsMask__C
0082fa96   ti_sysbios_timers_timer64_Timer_Module__id__C
0083007c   ti_sysbios_timers_timer64_Timer_Module__root__V
00829260   ti_sysbios_timers_timer64_Timer_Module__startupDone__F
00829260   ti_sysbios_timers_timer64_Timer_Module__startupDone__S
00830084   ti_sysbios_timers_timer64_Timer_Module__state__V
00808d40   ti_sysbios_timers_timer64_Timer_Module_startup__E
00830978   ti_sysbios_timers_timer64_Timer_Object__table__V
0082a760   ti_sysbios_timers_timer64_Timer_TimerSupportProxy_enable__E
0082fd70   ti_sysbios_timers_timer64_Timer_anyMaskHigh__C
0082fd74   ti_sysbios_timers_timer64_Timer_anyMask__C
008128c0   ti_sysbios_timers_timer64_Timer_deviceConfig__I
0082fd78   ti_sysbios_timers_timer64_Timer_freqDivisor__C
00818b60   ti_sysbios_timers_timer64_Timer_getFreq__E
0082aaa0   ti_sysbios_timers_timer64_Timer_getMaxTicks__E
00820b40   ti_sysbios_timers_timer64_Timer_initDevice__I
0082ecef   ti_sysbios_timers_timer64_Timer_localTimerBaseId__C
0082fd7c   ti_sysbios_timers_timer64_Timer_numLocalTimers__C
0082fd80   ti_sysbios_timers_timer64_Timer_numTimerDevices__C
00817960   ti_sysbios_timers_timer64_Timer_setPeriodMicroSecs__E
0081b460   ti_sysbios_timers_timer64_Timer_start__E
0082faa6   ti_sysbios_timers_timer64_Timer_startupNeeded__C
00821ca0   ti_sysbios_timers_timer64_Timer_startup__E
008230e0   ti_sysbios_timers_timer64_Timer_stop__E
0082fc66   ti_sysbios_timers_timer64_Timer_useTimer64pRegMap__C
0082fd84   ti_sysbios_utils_Load_LS_cpuLoad__C
0082fd88   ti_sysbios_utils_Load_LS_hwiLoad__C
0082fd8c   ti_sysbios_utils_Load_LS_taskLoad__C
00830d20   ti_sysbios_utils_Load_Module_State_0_runningTask__A
00830b50   ti_sysbios_utils_Load_Module_State_0_taskEnv__A
00830d28   ti_sysbios_utils_Load_Module_State_0_taskStartTime__A
0082fd90   ti_sysbios_utils_Load_Module_State_taskList__O
0082fd94   ti_sysbios_utils_Load_Module__diagsEnabled__C
0082fd98   ti_sysbios_utils_Load_Module__diagsIncluded__C
0082fd9c   ti_sysbios_utils_Load_Module__diagsMask__C
0082fc6e   ti_sysbios_utils_Load_Module__id__C
0082fe7c   ti_sysbios_utils_Load_Module__loggerDefined__C
0082fda0   ti_sysbios_utils_Load_Module__loggerFxn1__C
0082fda4   ti_sysbios_utils_Load_Module__loggerFxn2__C
0082fda8   ti_sysbios_utils_Load_Module__loggerFxn4__C
0082fdac   ti_sysbios_utils_Load_Module__loggerObj__C
0083009c   ti_sysbios_utils_Load_Module__root__V
008300a0   ti_sysbios_utils_Load_Module__state__V
0082fe7e   ti_sysbios_utils_Load_autoAddTasks__C
0082fe84   ti_sysbios_utils_Load_hwiEnabled__C
00818d40   ti_sysbios_utils_Load_idleFxn__E
008138e0   ti_sysbios_utils_Load_logLoads__I
0082fdb0   ti_sysbios_utils_Load_postUpdate__C
0081c3a0   ti_sysbios_utils_Load_taskCreateHook__E
0081fd80   ti_sysbios_utils_Load_taskDeleteHook__E
0082aac0   ti_sysbios_utils_Load_taskRegHook__E
008231a0   ti_sysbios_utils_Load_taskSwitchHook__E
0081fea0   ti_sysbios_utils_Load_updateCurrentThreadTime__E
0082fe86   ti_sysbios_utils_Load_updateInIdle__C
00818380   ti_sysbios_utils_Load_updateLoads__E
008165c0   ti_sysbios_utils_Load_updateThreadContexts__E
00818380   ti_sysbios_utils_Load_update__E
0082fdb4   ti_sysbios_utils_Load_windowInMs__C
00830138   ti_uia_family_c66_TimestampC66XGlobal_Module__root__V
008292a0   ti_uia_family_c66_TimestampC66XGlobal_Module__startupDone__F
008292a0   ti_uia_family_c66_TimestampC66XGlobal_Module__startupDone__S
0082aae0   ti_uia_family_c66_TimestampC66XGlobal_Module_startup__E
0082aae0   ti_uia_family_c66_TimestampC66XGlobal_Module_startup__F
0082fdb8   ti_uia_family_c66_TimestampC66XGlobal_timerBaseAdrs__C
0082fdbc   ti_uia_runtime_ILoggerSnapshot_Interface__BASE__C
0082fdc0   ti_uia_runtime_IUIATransfer_Interface__BASE__C
0082ab00   ti_uia_runtime_LogSync_CpuTimestampProxy_Module__startupDone__S
0082a720   ti_uia_runtime_LogSync_CpuTimestampProxy_get32__E
0082a740   ti_uia_runtime_LogSync_CpuTimestampProxy_get64__E
0082a5e0   ti_uia_runtime_LogSync_CpuTimestampProxy_getFreq__E
0082ab20   ti_uia_runtime_LogSync_GlobalTimestampProxy_Module__startupDone__S
00830140   ti_uia_runtime_LogSync_Module__root__V
00830148   ti_uia_runtime_LogSync_Module__state__V
008282c0   ti_uia_runtime_LogSync_Module_startup__E
008282c0   ti_uia_runtime_LogSync_Module_startup__F
0082fdc4   ti_uia_runtime_LoggerStopMode_E_badLevel__C
008292e0   ti_uia_runtime_LoggerStopMode_Handle__label__S
0082af10   ti_uia_runtime_LoggerStopMode_Instance_State_0_bufferArray__A
0082b190   ti_uia_runtime_LoggerStopMode_Instance_State_1_bufferArray__A
0082b610   ti_uia_runtime_LoggerStopMode_Instance_State_2_bufferArray__A
0082ba90   ti_uia_runtime_LoggerStopMode_Instance_State_3_bufferArray__A
00828320   ti_uia_runtime_LoggerStopMode_Instance_finalize__F
00823260   ti_uia_runtime_LoggerStopMode_Instance_init__F
0082ecf0   ti_uia_runtime_LoggerStopMode_Module__FXNS__C
0082fe8c   ti_uia_runtime_LoggerStopMode_Module__id__C
00830154   ti_uia_runtime_LoggerStopMode_Module__root__V
0083015c   ti_uia_runtime_LoggerStopMode_Module__state__V
00823320   ti_uia_runtime_LoggerStopMode_Module_startup__E
00823320   ti_uia_runtime_LoggerStopMode_Module_startup__F
0082f6d4   ti_uia_runtime_LoggerStopMode_Object__DESC__C
0082f0e4   ti_uia_runtime_LoggerStopMode_Object__PARAMS__C
0082fdc8   ti_uia_runtime_LoggerStopMode_Object__count__C
008233e0   ti_uia_runtime_LoggerStopMode_Object__create__S
00829320   ti_uia_runtime_LoggerStopMode_Object__delete__S
00829360   ti_uia_runtime_LoggerStopMode_Object__get__S
00830398   ti_uia_runtime_LoggerStopMode_Object__table__V
008263c0   ti_uia_runtime_LoggerStopMode_disable__E
00826440   ti_uia_runtime_LoggerStopMode_enable__E
0082fe8e   ti_uia_runtime_LoggerStopMode_filterByLevel__C
008264c0   ti_uia_runtime_LoggerStopMode_filterOutEvent__I
00820c40   ti_uia_runtime_LoggerStopMode_getContents__E
00820d40   ti_uia_runtime_LoggerStopMode_getFilterLevel__E
0082ab40   ti_uia_runtime_LoggerStopMode_getFreeSize__E
0082ab60   ti_uia_runtime_LoggerStopMode_getInstanceId__E
0082ab80   ti_uia_runtime_LoggerStopMode_getMaxLength__E
0082aba0   ti_uia_runtime_LoggerStopMode_getPriority__E
0082abc0   ti_uia_runtime_LoggerStopMode_getTransferType__E
0082abc0   ti_uia_runtime_LoggerStopMode_getTransferType__F
0082abe0   ti_uia_runtime_LoggerStopMode_getUnreadSize__E
0082ac00   ti_uia_runtime_LoggerStopMode_isEmpty__E
0082fe94   ti_uia_runtime_LoggerStopMode_isTimestampEnabled__C
0082fdcc   ti_uia_runtime_LoggerStopMode_overflowLogger__C
008249c0   ti_uia_runtime_LoggerStopMode_readBlockOfMemory__I
00826540   ti_uia_runtime_LoggerStopMode_reset__E
00826540   ti_uia_runtime_LoggerStopMode_reset__F
0081ffc0   ti_uia_runtime_LoggerStopMode_setFilterLevel__E
0082ac20   ti_uia_runtime_LoggerStopMode_setPriority__E
0082fdd0   ti_uia_runtime_LoggerStopMode_statusLogger__C
008293a0   ti_uia_runtime_LoggerStopMode_write0__E
008293e0   ti_uia_runtime_LoggerStopMode_write1__E
00829420   ti_uia_runtime_LoggerStopMode_write2__E
00816800   ti_uia_runtime_LoggerStopMode_write4__E
00812ba0   ti_uia_runtime_LoggerStopMode_write8__E
00821d80   ti_uia_runtime_LoggerStopMode_writeBlockOfMemory__I
00814300   ti_uia_runtime_LoggerStopMode_writeMemoryRange__E
00830164   ti_uia_runtime_QueueDescriptor_Module__state__V
008200e0   ti_uia_runtime_QueueDescriptor_addToList__E
008312b0   ti_uia_runtime_QueueDescriptor_gPtrToFirstDescriptor
008312b4   ti_uia_runtime_QueueDescriptor_gUpdateCount
00829460   ti_uia_runtime_QueueDescriptor_initHeader__E
00821e60   ti_uia_runtime_QueueDescriptor_removeFromList__E
0081ed80   ungetc
00828380   ungetwc
008265c0   unlink
008294a0   wcrtomb
0082ac40   wctomb
00826640   wmemcpy
00824a60   write
008283e0   writemsg
0082fdd4   xdc_runtime_Assert_E_assertFailed__C
00824b00   xdc_runtime_Assert_raise__I
0082fdd8   xdc_runtime_Core_A_initializedParams__C
0082fddc   xdc_runtime_Core_Module__diagsEnabled__C
0082fde0   xdc_runtime_Core_Module__diagsIncluded__C
0082fde4   xdc_runtime_Core_Module__diagsMask__C
0082fe96   xdc_runtime_Core_Module__id__C
008266c0   xdc_runtime_Core_assignLabel__I
00826740   xdc_runtime_Core_assignParams__I
0081c520   xdc_runtime_Core_constructObject__I
00816a40   xdc_runtime_Core_createObject__I
00820e40   xdc_runtime_Core_deleteObject__I
0082fde8   xdc_runtime_Error_E_memory__C
0082fdec   xdc_runtime_Error_Module__diagsEnabled__C
0082fdf0   xdc_runtime_Error_Module__diagsIncluded__C
0082fdf4   xdc_runtime_Error_Module__diagsMask__C
0082fe9c   xdc_runtime_Error_Module__loggerDefined__C
0082fdf8   xdc_runtime_Error_Module__loggerFxn8__C
0082fdfc   xdc_runtime_Error_Module__loggerObj__C
00830170   xdc_runtime_Error_Module__state__V
008294e0   xdc_runtime_Error_check__E
00829520   xdc_runtime_Error_init__E
0082fe9e   xdc_runtime_Error_maxDepth__C
00818580   xdc_runtime_Error_policyDefault__E
0082fe00   xdc_runtime_Error_policyFxn__C
0082fe04   xdc_runtime_Error_policy__C
00821f40   xdc_runtime_Error_print__E
0082fe08   xdc_runtime_Error_raiseHook__C
00829560   xdc_runtime_Error_raiseX__E
008234a0   xdc_runtime_Error_setX__E
0082ac60   xdc_runtime_Gate_enterSystem__E
008295a0   xdc_runtime_Gate_leaveSystem__E
0082fe0c   xdc_runtime_IFilterLogger_Interface__BASE__C
0082fe10   xdc_runtime_IGateProvider_Interface__BASE__C
0082fe14   xdc_runtime_IHeap_Interface__BASE__C
0082fe18   xdc_runtime_ILogger_Interface__BASE__C
0082fe1c   xdc_runtime_IModule_Interface__BASE__C
0082fe20   xdc_runtime_Log_L_error__C
00818780   xdc_runtime_Log_doPrint__E
0082fe24   xdc_runtime_LoggerBuf_E_badLevel__C
008295e0   xdc_runtime_LoggerBuf_Handle__label__S
0082bd10   xdc_runtime_LoggerBuf_Instance_State_0_entryArr__A
00829620   xdc_runtime_LoggerBuf_Instance_finalize__E
00823560   xdc_runtime_LoggerBuf_Instance_init__E
0082acc0   xdc_runtime_LoggerBuf_Module_GateProxy_enter__E
0082ace0   xdc_runtime_LoggerBuf_Module_GateProxy_leave__E
0082a7e0   xdc_runtime_LoggerBuf_Module_GateProxy_query__E
0082f028   xdc_runtime_LoggerBuf_Module__FXNS__C
0082fe28   xdc_runtime_LoggerBuf_Module__gateObj__C
0082fea4   xdc_runtime_LoggerBuf_Module__id__C
00830174   xdc_runtime_LoggerBuf_Module__root__V
0083017c   xdc_runtime_LoggerBuf_Module__state__V
00824ba0   xdc_runtime_LoggerBuf_Module_startup__E
0082f6f4   xdc_runtime_LoggerBuf_Object__DESC__C
0082f3ac   xdc_runtime_LoggerBuf_Object__PARAMS__C
0082fe2c   xdc_runtime_LoggerBuf_Object__count__C
00823620   xdc_runtime_LoggerBuf_Object__create__S
00829660   xdc_runtime_LoggerBuf_Object__delete__S
0082ad00   xdc_runtime_LoggerBuf_Object__first__S
008296a0   xdc_runtime_LoggerBuf_Object__get__S
0082ad20   xdc_runtime_LoggerBuf_Object__next__S
00830c18   xdc_runtime_LoggerBuf_Object__table__V
0082a720   xdc_runtime_LoggerBuf_TimestampProxy_get32__E
0082a740   xdc_runtime_LoggerBuf_TimestampProxy_get64__E
0082a5e0   xdc_runtime_LoggerBuf_TimestampProxy_getFreq__E
0082ad40   xdc_runtime_LoggerBuf_disable__E
0082ad60   xdc_runtime_LoggerBuf_enable__E
0082fea6   xdc_runtime_LoggerBuf_filterByLevel__C
008267c0   xdc_runtime_LoggerBuf_filterOutEvent__I
0082ad80   xdc_runtime_LoggerBuf_flushAllInternal__E
00822020   xdc_runtime_LoggerBuf_flushAll__E
00826840   xdc_runtime_LoggerBuf_flush__E
00820f40   xdc_runtime_LoggerBuf_getFilterLevel__E
00818f20   xdc_runtime_LoggerBuf_getNextEntry__E
00820200   xdc_runtime_LoggerBuf_setFilterLevel__E
0082fe30   xdc_runtime_LoggerBuf_statusLogger__C
008296e0   xdc_runtime_LoggerBuf_write0__E
00829720   xdc_runtime_LoggerBuf_write1__E
00829760   xdc_runtime_LoggerBuf_write2__E
0081b600   xdc_runtime_LoggerBuf_write4__E
00816c80   xdc_runtime_LoggerBuf_write8__E
0082a7e0   xdc_runtime_Main_Module_GateProxy_query__E
00830182   xdc_runtime_Main_Module__root__V
0082ada0   xdc_runtime_Memory_HeapProxy_alloc__E
0082adc0   xdc_runtime_Memory_HeapProxy_free__E
0082feac   xdc_runtime_Memory_Module__id__C
00830184   xdc_runtime_Memory_Module__state__V
00822100   xdc_runtime_Memory_alloc__E
00828440   xdc_runtime_Memory_calloc__E
0082fe34   xdc_runtime_Memory_defaultHeapInstance__C
008297a0   xdc_runtime_Memory_free__E
00830188   xdc_runtime_Registry_Module__state__V
008297e0   xdc_runtime_Registry_findById__E
00830190   xdc_runtime_Startup_Module__state__V
00000001   xdc_runtime_Startup__EXECFXN__C
00000001   xdc_runtime_Startup__RESETFXN__C
0082fe38   xdc_runtime_Startup_execImpl__C
00821040   xdc_runtime_Startup_exec__E
0082ade0   xdc_runtime_Startup_exec__I
0082fc48   xdc_runtime_Startup_firstFxns__A
0082fc50   xdc_runtime_Startup_firstFxns__C
0082fc58   xdc_runtime_Startup_lastFxns__C
0082fe3c   xdc_runtime_Startup_maxPasses__C
0082ae00   xdc_runtime_Startup_reset__I
0082f718   xdc_runtime_Startup_sfxnRts__A
0082fe40   xdc_runtime_Startup_sfxnRts__C
0082f068   xdc_runtime_Startup_sfxnTab__A
0082fe44   xdc_runtime_Startup_sfxnTab__C
00814f00   xdc_runtime_Startup_startMods__I
0082bd90   xdc_runtime_SysMin_Module_State_0_outbuf__A
00830198   xdc_runtime_SysMin_Module__state__V
008284a0   xdc_runtime_SysMin_Module_startup__E
00824c40   xdc_runtime_SysMin_abort__E
0082fe48   xdc_runtime_SysMin_bufSize__C
00828500   xdc_runtime_SysMin_exit__E
0082feae   xdc_runtime_SysMin_flushAtExit__C
00824ce0   xdc_runtime_SysMin_flush__E
0082fe4c   xdc_runtime_SysMin_outputFunc__C
00828560   xdc_runtime_SysMin_output__I
00824d80   xdc_runtime_SysMin_putch__E
0082ae20   xdc_runtime_SysMin_ready__E
0082ae40   xdc_runtime_System_Module_GateProxy_enter__E
0082ae60   xdc_runtime_System_Module_GateProxy_leave__E
0082a7e0   xdc_runtime_System_Module_GateProxy_query__E
00830bc0   xdc_runtime_System_Module_State_0_atexitHandlers__A
0082fe50   xdc_runtime_System_Module__gateObj__C
008301a4   xdc_runtime_System_Module__state__V
0082ae80   xdc_runtime_System_Module_startup__E
00824c40   xdc_runtime_System_SupportProxy_abort__E
00828500   xdc_runtime_System_SupportProxy_exit__E
00824ce0   xdc_runtime_System_SupportProxy_flush__E
00824d80   xdc_runtime_System_SupportProxy_putch__E
0082ae20   xdc_runtime_System_SupportProxy_ready__E
0082fe54   xdc_runtime_System_abortFxn__C
0082a4a0   xdc_runtime_System_abortStd__E
00829820   xdc_runtime_System_abort__E
00829860   xdc_runtime_System_aprintf__E
008285c0   xdc_runtime_System_aprintf_va__E
008285c0   xdc_runtime_System_aprintf_va__F
008268c0   xdc_runtime_System_atexit__E
008285c0   xdc_runtime_System_avprintf__E
00806640   xdc_runtime_System_doPrint__I
0082fe58   xdc_runtime_System_exitFxn__C
00822d20   xdc_runtime_System_exitStd__E
008298a0   xdc_runtime_System_exit__E
0082fe5c   xdc_runtime_System_extendFxn__C
00824ce0   xdc_runtime_System_flush__E
008236e0   xdc_runtime_System_formatNum__I
0082fe60   xdc_runtime_System_maxAtexitHandlers__C
00815160   xdc_runtime_System_printfExtend__I
008298e0   xdc_runtime_System_printf__E
00828620   xdc_runtime_System_printf_va__E
00828620   xdc_runtime_System_printf_va__F
00826940   xdc_runtime_System_processAtExit__E
00829920   xdc_runtime_System_putch__E
008269c0   xdc_runtime_System_putchar__I
0082aea0   xdc_runtime_System_snprintf_va__E
0082aea0   xdc_runtime_System_snprintf_va__F
00828620   xdc_runtime_System_vprintf__E
0082aea0   xdc_runtime_System_vsnprintf__E
008301ac   xdc_runtime_Text_Module__state__V
0082feb2   xdc_runtime_Text_charCnt__C
00800000   xdc_runtime_Text_charTab__A
0082fe64   xdc_runtime_Text_charTab__C
00828680   xdc_runtime_Text_cordText__E
0082feb4   xdc_runtime_Text_isLoaded__C
0082fe68   xdc_runtime_Text_nameEmpty__C
0082fe6c   xdc_runtime_Text_nameStatic__C
0082fe70   xdc_runtime_Text_nameUnknown__C
00802030   xdc_runtime_Text_nodeTab__A
00826a40   xdc_runtime_Text_printVisFxn__I
0081eec0   xdc_runtime_Text_putLab__E
00820320   xdc_runtime_Text_putMod__E
0081a0c0   xdc_runtime_Text_putSite__E
0082feb6   xdc_runtime_Text_registryModsLastId__C
00829960   xdc_runtime_Text_ropeText__E
0082feba   xdc_runtime_Text_unnamedModsLastId__C
0082fe74   xdc_runtime_Text_visitRopeFxn__C
0082aec0   xdc_runtime_Text_visitRope__I
00824e20   xdc_runtime_Text_xprintf__I
0082aee0   xdc_runtime_Timestamp_Module__startupDone__S
0082a720   xdc_runtime_Timestamp_SupportProxy_get32__E
0082a740   xdc_runtime_Timestamp_SupportProxy_get64__E
0082a5e0   xdc_runtime_Timestamp_SupportProxy_getFreq__E
0082a720   xdc_runtime_Timestamp_get32__E
0082a740   xdc_runtime_Timestamp_get64__E
0082a5e0   xdc_runtime_Timestamp_getFreq__E


GLOBAL SYMBOLS: SORTED BY Symbol Address 

address    name
--------   ----
00000001   __TI_args_main
00000001   xdc_runtime_Startup__EXECFXN__C
00000001   xdc_runtime_Startup__RESETFXN__C
00000200   __TI_STACK_SIZE
00000200   _argsize
00800000   __ASM__
00800000   __sti___17_blasFunctions_cpp_1c39e1a6
00800000   xdc_runtime_Text_charTab__A
00800064   _Z15matrixTransposeP9cmatrix_t
00800070   __ISA__
00800088   __PLAT__
008000b0   __TARG__
008000d8   __TRDR__
008001ac   _Z15matrixMultSafeBP9cmatrix_tS0_
00800310   _Z15matrixMultSafeAP9cmatrix_tS0_
00800474   _Z15matrixHermitianP9cmatrix_t
008005d4   _Z13outerProductVPSt7complexIfES1_P9cmatrix_tS0_
008006a8   _Z12cblas_scnrm2jPvj
00800970   _Z12cblas_isamaxjPvj
008009f4   _Z11matrixMultVP9cmatrix_tPSt7complexIfES3_b
00800b04   _Z11dotProductVPSt7complexIfES1_t
00800bcc   _Z10matrixMultP9cmatrix_tS0_S0_15CBLAS_TRANSPOSES1_b
00801244   _Z10matrixCopyP9cmatrix_tS0_15CBLAS_TRANSPOSEb
00801ae0   __sti___17_dynamicMemory_cpp_0783bf6f
00801bd8   _ZN13DynamicMemory16freeMemoryBufferEPvj
00801be4   _ZN13DynamicMemory10clearListsEv
00801c48   _ZN13DynamicMemoryD1Ev
00801c48   _ZN13DynamicMemoryD2Ev
00801c8c   _ZN13DynamicMemory18obtainMemoryBufferEj
00801ce4   _ZN13DynamicMemoryC1Ev
00801ce4   _ZN13DynamicMemoryC2Ev
00801d60   _ZN13DynamicMemory12getEmptyListEj
00801fc0   _ZN13DynamicMemory9getMatrixEtt
00802030   xdc_runtime_Text_nodeTab__A
00802060   _ZN13DynamicMemory23displayDMCompleteStatusEv
00802428   _ZN13DynamicMemory16freeMatrixMemoryEP9cmatrix_t
00802464   _ZN13DynamicMemory20reshapeMatrixAndCopyEP9cmatrix_ttt
00802818   _ZN13DynamicMemory15displayDMStatusEv
008028f4   _ZN13DynamicMemory13updateMatrixZEP9cmatrix_ttt
008029ec   _ZN13DynamicMemory13reshapeMatrixEP9cmatrix_ttt
00802acc   _ZN13DynamicMemory12updateMatrixEP9cmatrix_ttt
00802b44   _ZN13DynamicMemory12displayQInfoEv
00802bd0   _ZN13DynamicMemory10resetQInfoEv
00802be4   _ZN13DynamicMemory10getMatrixZEtt
00802cec   _ZN13DynamicMemory10getMatrixREP9cmatrix_ttt
00802e80   __sti___19_lapackFunctions_cpp_4deb6974
00802ee4   _Z9eyeMatrixP9cmatrix_t
00802f8c   _Z18getQRDecompositionP9cmatrix_tS0_S0_
00803690   _Z6getSVDP9cmatrix_tS0_S0_S0_c
00803828   _Z16getMatrixInverseP9cmatrix_tS0_St7complexIfE
00803e6c   _Z13getNullMatrixP9cmatrix_tS0_
00803fa0   _ZNKSt7num_putIcSt19ostreambuf_iteratorIcSt11char_traitsIcEEE5_FputES3_RSt8ios_basecPKcjjjj
00804f20   __sti___22_frameworkFunctions_cpp_ce0052a8
00804f84   _Z8freeUserP12userConfig_t
00805084   _Z22randomizeChannelMatrixP9cmatrix_tb
0080526c   _Z22createNewUserStructurettt
0080542c   _Z18clearDLConfig_UserP16downlinkConfig_tt
008054b8   _Z19updateDLConfig_UserP16downlinkConfig_tP12userConfig_t
00805bb0   _Z17updateUserChannelP12userConfig_t
00805c30   _Z16initializeSystemP16downlinkConfig_tP14systemConfig_tttttt
00805ca8   _Z12cleanupUsersP16downlinkConfig_t
00805d20   _ZNSt6_WinitC1Ev
00805d20   _ZNSt6_WinitC2Ev
00806640   xdc_runtime_System_doPrint__I
00806ee0   __sti___18_pipdScheduling_cpp_1c39e1a6
00806f44   _Z21performPIPDSchedulingP14systemConfig_tP16downlinkConfig_t
00807720   ti_sysbios_family_c64p_Exception_handler__I
00807ea0   _ZNSt8ios_base4InitC1Ev
00807ea0   _ZNSt8ios_base4InitC2Ev
00808600   ti_sysbios_knl_Semaphore_pend__E
00808d40   ti_sysbios_timers_timer64_Timer_Module_startup__E
008093e0   _ZNSt13basic_filebufIwSt11char_traitsIwEE8overflowEj
00809a60   ti_sysbios_heaps_HeapMem_alloc__E
0080a0c0   _ZNSt13basic_filebufIcSt11char_traitsIcEE8overflowEi
0080a700   _ZNSt13basic_filebufIwSt11char_traitsIwEE5uflowEv
0080ad20   _ZNSt13basic_filebufIcSt11char_traitsIcEE5uflowEv
0080b300   powf
0080b8e0   ti_sysbios_heaps_HeapMem_free__E
0080bec0   _ZNKSt7num_putIcSt19ostreambuf_iteratorIcSt11char_traitsIcEEE5_IputES3_RSt8ios_basecPcj
0080c480   __c6xabi_divd
0080d000   __sti___22_succprojScheduling_cpp_87bf4a20
0080d064   _Z28performSuccessiveProjectionsP14systemConfig_tP16downlinkConfig_t
0080d5a0   _ZNKSt7num_putIcSt19ostreambuf_iteratorIcSt11char_traitsIcEEE6do_putES3_RSt8ios_basecb
0080db20   __sti___20_displayFunctions_cpp_dbd75e48
0080db84   _Z21displayScheduledUsersP14systemConfig_tP16downlinkConfig_t
0080dccc   _Z13displayMatrixP9cmatrix_t
0080dde0   _Z20displayUserStructureP12userConfig_t
0080dee0   _Z17displaySystemInfov
0080df68   _Z13displayMatrixR9cmatrix_t
0080e080   _ZNSt13basic_filebufIcSt11char_traitsIcEE9_EndwriteEv
0080e5c0   _ZNSt13basic_filebufIwSt11char_traitsIwEE9_EndwriteEv
0080f020   _ZNSt8ios_base5clearENSt5_IosbIiE8_IostateEb
0080f520   fwrite
0080f9e0   _ZSt4endlIcSt11char_traitsIcEERSt13basic_ostreamIT_T0_ES6_
0080fe80   ti_sysbios_knl_Task_Module_startup__E
00810300   _ZStlsISt11char_traitsIcEERSt13basic_ostreamIcT_ES5_PKc
00810760   _printfi
00810bc0   __sti___11_wlocale_cpp_5e80b67f
00810fc0   fputs
00811360   __sti___23_supportingFunctions_cpp_fd751b3a
008113c4   _Z28clearSchedulerConfigurationsP14systemConfig_tP16downlinkConfig_t
008113e8   _Z24decomposeChannelMatricesP14systemConfig_tP16downlinkConfig_t
00811a20   __sti___20_greedyScheduling_cpp_b8e1509e
00811a84   _Z23performGreedySchedulingP14systemConfig_tP16downlinkConfig_t
00811d20   ti_sysbios_knl_Swi_runLoop__I
00812020   _ZNSs6appendEPKcj
008125e0   ti_sysbios_heaps_HeapMem_Instance_init__E
008128c0   ti_sysbios_timers_timer64_Timer_deviceConfig__I
00812ba0   ti_uia_runtime_LoggerStopMode_write8__E
00812e60   _ZNKSt7num_putIcSt19ostreambuf_iteratorIcSt11char_traitsIcEEE6do_putES3_RSt8ios_basecd
00813100   _ZNKSt7num_putIcSt19ostreambuf_iteratorIcSt11char_traitsIcEEE6do_putES3_RSt8ios_basece
00813640   ti_sysbios_knl_Clock_workFunc__E
008138e0   ti_sysbios_utils_Load_logLoads__I
00813b80   _ZNSolsEj
00813e00   __c6xabi_divf
00814300   ti_uia_runtime_LoggerStopMode_writeMemoryRange__E
00814580   _ZNSt6_WinitD1Ev
00814580   _ZNSt6_WinitD2Ev
008147e0   __sti___12_iostream_cpp_3a72482d
00814a40   __sti___12_wiostrea_cpp_5e80b67f
00814ca0   ti_sysbios_family_c64p_Hwi_dispatchCore__I
00814f00   xdc_runtime_Startup_startMods__I
00815160   xdc_runtime_System_printfExtend__I
008153c0   _ZNSt13basic_filebufIcSt11char_traitsIcEE5imbueERKSt6locale
00815600   _ZNSt13basic_filebufIwSt11char_traitsIwEE5imbueERKSt6locale
00815840   __c6xabi_divull
00815f00   schedulingForCurrentSF
00815f30   lteSystemInit
00815fc0   displaySchedulerInfo
00815fd8   channelUpdate
008160b0   __sti___13_lteSystem_cpp_g_nUsers
00816110   _Z18lteSystemTerminatejj
00816140   ti_sysbios_family_c64p_Exception_internalHandler__I
00816380   ti_sysbios_knl_Semaphore_post__E
008165c0   ti_sysbios_utils_Load_updateThreadContexts__E
00816800   ti_uia_runtime_LoggerStopMode_write4__E
00816a40   xdc_runtime_Core_createObject__I
00816c80   xdc_runtime_LoggerBuf_write8__E
00816ec0   _ZNSs6assignERKSsjj
00817300   fputc
00817520   ti_sysbios_knl_Swi_run__I
00817740   ti_sysbios_knl_Task_schedule__I
00817960   ti_sysbios_timers_timer64_Timer_setPeriodMicroSecs__E
00817d80   ti_sysbios_family_c64p_Hwi_dispatchAlways
00817f80   setvbuf
00818180   ti_sysbios_knl_Task_startCore__E
00818380   ti_sysbios_utils_Load_updateLoads__E
00818380   ti_sysbios_utils_Load_update__E
00818580   xdc_runtime_Error_policyDefault__E
00818780   xdc_runtime_Log_doPrint__E
00818980   ti_sysbios_knl_Task_exit__E
00818b60   ti_sysbios_timers_timer64_Timer_getFreq__E
00818d40   ti_sysbios_utils_Load_idleFxn__E
00818f20   xdc_runtime_LoggerBuf_getNextEntry__E
00819100   _ZNKSt12_String_base5_XranEv
008192c0   _ZNKSt8numpunctIcE11do_groupingEv
00819480   _ZNKSt8numpunctIcE11do_truenameEv
00819640   _ZNKSt8numpunctIcE12do_falsenameEv
00819800   _ZNSs6insertEjjc
008199c0   _ZNSt8ios_base4InitD1Ev
008199c0   _ZNSt8ios_base4InitD2Ev
00819d40   __sti___20_randomScheduling_cpp_1a9b9836
00819da4   _Z23performRandomSchedulingP14systemConfig_tP16downlinkConfig_t
00819f00   ti_sysbios_knl_Task_checkStacks__E
0081a0c0   xdc_runtime_Text_putSite__E
0081a280   HOSTrename
0081a420   _Getctyptab
0081a760   _ZNKSt7codecvtIwciE5do_inERiPKcS3_RS3_PwS5_RS5_
0081a900   _ZNKSt7num_putIcSt19ostreambuf_iteratorIcSt11char_traitsIcEEE11_PutgroupedES3_PKcjc
0081aaa0   _ZNSt13basic_filebufIcSt11char_traitsIcEE7seekoffElNSt5_IosbIiE8_SeekdirENS4_9_OpenmodeE
0081ac40   _ZNSt13basic_filebufIwSt11char_traitsIwEE7seekoffElNSt5_IosbIiE8_SeekdirENS4_9_OpenmodeE
0081ade0   _ZNSt8numpunctIcE5_InitERKSt8_Locinfo
0081af80   __c6xabi_divul
0081b120   ti_sysbios_gates_GateMutex_enter__E
0081b2c0   ti_sysbios_knl_Task_unblockI__E
0081b460   ti_sysbios_timers_timer64_Timer_start__E
0081b600   xdc_runtime_LoggerBuf_write4__E
0081b7a0   _ZNKSt5ctypeIwE10do_toupperEPwPKw
0081b920   _ZNKSt7codecvtIwciE6do_outERiPKwS3_RS3_PcS5_RS5_
0081baa0   _ZNSo6sentryC1ERSo
0081bc20   _ZNSt13basic_filebufIcSt11char_traitsIcEE7seekposESt4fposIiENSt5_IosbIiE9_OpenmodeE
0081bda0   _ZNSt13basic_filebufIwSt11char_traitsIwEE7seekposESt4fposIiENSt5_IosbIiE9_OpenmodeE
0081bf20   _ZSt9use_facetISt5ctypeIwEERKT_RKSt6locale
0081c220   ti_sysbios_family_c64p_Exception_dispatch__E
0081c3a0   ti_sysbios_utils_Load_taskCreateHook__E
0081c520   xdc_runtime_Core_constructObject__I
0081c6a0   _ZNKSt12_String_base5_XlenEv
0081c800   _ZNSs6assignEPKcj
0081c960   _ZNSt13basic_filebufIcSt11char_traitsIcEE9pbackfailEi
0081cac0   _ZNSt13basic_filebufIcSt11char_traitsIcEED0Ev
0081cc20   _ZNSt13basic_filebufIwSt11char_traitsIwEE9pbackfailEj
0081cd80   _ZNSt13basic_filebufIwSt11char_traitsIwEED0Ev
0081cee0   _ZNSt9basic_iosIcSt11char_traitsIcEE4initEPSt15basic_streambufIcS1_Eb
0081d040   _ZNSt9basic_iosIwSt11char_traitsIwEE4initEPSt15basic_streambufIwS1_Eb
0081d1a0   _ZSt9use_facetISt5ctypeIcEERKT_RKSt6locale
0081d300   frexpf
0081d460   ldexpf
0081d5c0   _ZNSs5_CopyEjj
0081d700   _ZNSt13basic_filebufIcSt11char_traitsIcEE6setbufEPci
0081d840   _ZNSt13basic_filebufIcSt11char_traitsIcEED1Ev
0081d980   _ZNSt13basic_filebufIwSt11char_traitsIwEED1Ev
0081dac0   _ZNSt6locale5_InitEv
0081dc00   _ZNSt6locale7_LocimpD1Ev
0081dc00   _ZNSt6locale7_LocimpD2Ev
0081dd40   _ZNSt8_LocinfoC1EPKc
0081dd40   _ZNSt8_LocinfoC2EPKc
0081de80   _ZSt9use_facetISt7num_putIcSt19ostreambuf_iteratorIcSt11char_traitsIcEEEERKT_RKSt6locale
0081dfc0   _ZSt9use_facetISt8numpunctIcEERKT_RKSt6locale
0081e100   _auto_init_elf
0081e380   fgetc
0081e600   __sti___24_schedulingAlgorithms_cpp_fc6d3ca0
0081e664   _Z21performUserSchedulingP14systemConfig_tP16downlinkConfig_t
0081e740   ti_sysbios_family_c64p_Hwi_Module_startup__E
0081e880   ti_sysbios_family_c66_Cache_Module_startup__E
0081e9c0   ti_sysbios_knl_Semaphore_Instance_init__E
0081eb00   ti_sysbios_knl_Swi_post__E
0081ec40   ti_sysbios_knl_Task_blockI__E
0081ed80   ungetc
0081eec0   xdc_runtime_Text_putLab__E
0081f000   _ZNKSt5ctypeIwE5do_isEPKwS2_Ps
0081f120   _ZNKSt5ctypeIwE9do_narrowEPKwS2_cPc
0081f240   _ZNKSt7codecvtIwciE9do_lengthERKiPKcS4_j
0081f360   _ZNSt13basic_filebufIwSt11char_traitsIwEE6setbufEPwi
0081f480   _ZNSt15basic_streambufIwSt11char_traitsIwEE6xsgetnEPwi
0081f5a0   _ZNSt8_LocinfoD1Ev
0081f5a0   _ZNSt8_LocinfoD2Ev
0081f6c0   _buff_read
0081f7e0   _closefile
0081fa20   fseek
0081fb40   ftell
0081fc60   sqrtf
0081fd80   ti_sysbios_utils_Load_taskDeleteHook__E
0081fea0   ti_sysbios_utils_Load_updateCurrentThreadTime__E
0081ffc0   ti_uia_runtime_LoggerStopMode_setFilterLevel__E
008200e0   ti_uia_runtime_QueueDescriptor_addToList__E
00820200   xdc_runtime_LoggerBuf_setFilterLevel__E
00820320   xdc_runtime_Text_putMod__E
00820440   HOSTlseek
00820540   _ZNSt15basic_streambufIcSt11char_traitsIcEE6xsgetnEPci
00820640   _ZNSt15basic_streambufIcSt11char_traitsIcEE6xsputnEPKci
00820740   _ZNSt15basic_streambufIwSt11char_traitsIwEE6xsputnEPKwi
00820840   _wrt_ok
00820940   __sti___20_memoryManagement_cpp_bbe36996
008209a4   _Z20reshapeAndCopyMatrixP9cmatrix_ttt
008209b8   _Z16createZeroMatrixP9cmatrix_ttt
008209d0   _Z14allocateMemoryj
008209e0   _Z13reshapeMatrixP9cmatrix_ttt
008209f4   _Z12createMatrixP9cmatrix_ttt
00820a0c   _Z10freeMemoryPvj
00820a18   _Z10freeMatrixP9cmatrix_t
00820a40   ti_sysbios_knl_Swi_restoreHwi__E
00820b40   ti_sysbios_timers_timer64_Timer_initDevice__I
00820c40   ti_uia_runtime_LoggerStopMode_getContents__E
00820d40   ti_uia_runtime_LoggerStopMode_getFilterLevel__E
00820e40   xdc_runtime_Core_deleteObject__I
00820f40   xdc_runtime_LoggerBuf_getFilterLevel__E
00821040   xdc_runtime_Startup_exec__E
00821140   HOSTopen
00821220   HOSTread
00821300   _Fac_tidy
008213e0   _ZNSs5eraseEjj
008214c0   __c6xabi_divi
008214c0   __divi
00821680   atoi
00821760   close
00821840   __TI_zero_init
00821920   fflush
00821a00   ltoa
00821ae0   memset
00821bc0   printf
00821ca0   ti_sysbios_knl_Clock_TimerProxy_startup__E
00821ca0   ti_sysbios_timers_timer64_Timer_startup__E
00821d80   ti_uia_runtime_LoggerStopMode_writeBlockOfMemory__I
00821e60   ti_uia_runtime_QueueDescriptor_removeFromList__E
00821f40   xdc_runtime_Error_print__E
00822020   xdc_runtime_LoggerBuf_flushAll__E
00822100   xdc_runtime_Memory_alloc__E
008221e0   HOSTunlink
008222a0   HOSTwrite
00822420   _ZNKSt5ctypeIwE10do_tolowerEPwPKw
008224e0   _ZNKSt7codecvtIwciE10do_unshiftERiPcS2_RS2_
008225a0   _ZNKSt7num_putIcSt19ostreambuf_iteratorIcSt11char_traitsIcEEE6do_putES3_RSt8ios_basecPKv
00822660   _ZNSo5flushEv
00822720   _ZNSt13basic_filebufIcSt11char_traitsIcEE5_InitEPSt4FILENS2_7_InitflE
008227e0   _ZNSt6locale7_LocimpC1Eb
008227e0   _ZNSt6locale7_LocimpC2Eb
008228a0   _ZNSt8ios_baseD1Ev
008228a0   _ZNSt8ios_baseD2Ev
00822960   __cxa_finalize
00822a20   __c6xabi_divu
00822a20   __divu
00822ae0   __c6xabi_remi
00822ae0   __remi
00822ba0   _doflush
00822c60   _rd_ok
00822d20   exit
00822d20   xdc_runtime_System_exitStd__E
00822de0   ti_sysbios_heaps_HeapMem_getStats__E
00822ea0   ti_sysbios_knl_Clock_logTick__E
00822f60   ti_sysbios_knl_Swi_schedule__I
00823020   ti_sysbios_knl_Task_allBlockedFunction__I
008230e0   ti_sysbios_timers_timer64_Timer_stop__E
008231a0   ti_sysbios_utils_Load_taskSwitchHook__E
00823260   ti_uia_runtime_LoggerStopMode_Instance_init__F
00823320   ti_uia_runtime_LoggerStopMode_Module_startup__E
00823320   ti_uia_runtime_LoggerStopMode_Module_startup__F
008233e0   ti_uia_runtime_LoggerStopMode_Object__create__S
008234a0   xdc_runtime_Error_setX__E
00823560   xdc_runtime_LoggerBuf_Instance_init__E
00823620   xdc_runtime_LoggerBuf_Object__create__S
008236e0   xdc_runtime_System_formatNum__I
008237a0   HOSTclose
00823840   _Setgloballocale
008238e0   _ZNKSt5ctypeIwE8do_widenEPKcS2_Pw
00823980   _ZNKSt7num_putIcSt19ostreambuf_iteratorIcSt11char_traitsIcEEE5_IfmtEPcPKcNSt5_IosbIiE9_FmtflagsE
00823a20   _ZNSt11logic_errorD1Ev
00823ac0   _ZNSt12length_errorD1Ev
00823b60   _ZNSt12out_of_rangeC1ERKSs
00823c00   _ZNSt12out_of_rangeD1Ev
00823ca0   _ZNSt13basic_filebufIcSt11char_traitsIcEE9underflowEv
00823d40   _ZNSt13basic_filebufIwSt11char_traitsIwEE9underflowEv
00823de0   _ZNSt13runtime_errorD1Ev
00823e80   _ZNSt8ios_base5_InitEv
00823f20   _ZNSt8ios_base5_TidyEv
00823fc0   _ZNSt8ios_base7failureD1Ev
00824060   _Znaj
00824060   _Znwj
00824100   __c6xabi_remu
00824100   __remu
008241a0   _c_int00
00824240   _cleanup
00824560   __sti___22_globalDeclarations_cpp_286f88f8
00824600   lseek
008246a0   memcpy
00824740   read
008247e0   main
00824808   clockISRB
00824834   clockISRA
00824880   ti_sysbios_family_c64p_Exception_Module_startup__E
00824920   ti_sysbios_heaps_HeapMem_init__I
008249c0   ti_uia_runtime_LoggerStopMode_readBlockOfMemory__I
00824a60   write
00824b00   xdc_runtime_Assert_raise__I
00824ba0   xdc_runtime_LoggerBuf_Module_startup__E
00824c40   xdc_runtime_SysMin_abort__E
00824c40   xdc_runtime_System_SupportProxy_abort__E
00824ce0   xdc_runtime_SysMin_flush__E
00824ce0   xdc_runtime_System_SupportProxy_flush__E
00824ce0   xdc_runtime_System_flush__E
00824d80   xdc_runtime_SysMin_putch__E
00824d80   xdc_runtime_System_SupportProxy_putch__E
00824e20   xdc_runtime_Text_xprintf__I
00824ec0   _ZNKSt5ctypeIwE10do_scan_isEsPKwS2_
00824f40   _ZNKSt5ctypeIwE10do_tolowerEw
00824fc0   _ZNKSt5ctypeIwE11do_scan_notEsPKwS2_
00825040   _ZNKSt6locale9_GetfacetEj
008250c0   _ZNKSt7num_putIcSt19ostreambuf_iteratorIcSt11char_traitsIcEEE6do_putES3_RSt8ios_basecl
00825140   _ZNKSt7num_putIcSt19ostreambuf_iteratorIcSt11char_traitsIcEEE6do_putES3_RSt8ios_basecm
008251c0   _ZNKSt7num_putIcSt19ostreambuf_iteratorIcSt11char_traitsIcEEE6do_putES3_RSt8ios_basecx
00825240   _ZNKSt7num_putIcSt19ostreambuf_iteratorIcSt11char_traitsIcEEE6do_putES3_RSt8ios_basecy
008252c0   _ZNKSt9exception6_RaiseEv
00825340   _ZNSsC1EPKc
008253c0   _ZNSt11logic_errorC2ERKSs
00825440   _ZNSt11logic_errorD0Ev
008254c0   _ZNSt12length_errorD0Ev
00825540   _ZNSt12out_of_rangeD0Ev
008255c0   _ZNSt13basic_filebufIcSt11char_traitsIcEE4syncEv
00825640   _ZNSt13basic_filebufIwSt11char_traitsIwEE4syncEv
008256c0   _ZNSt13runtime_errorD0Ev
00825740   _ZNSt15basic_streambufIcSt11char_traitsIcEE5sputcEc
008257c0   _ZNSt5ctypeIcED0Ev
00825840   _ZNSt5ctypeIcED1Ev
008258c0   _ZNSt6locale5facet9_RegisterEv
00825940   _ZNSt6localeD1Ev
008259c0   _ZNSt8ios_base7_AddstdEv
00825a40   _ZNSt8ios_base7failureD0Ev
00825ac0   _ZNSt8ios_base8_CallfnsENS_5eventE
00825b40   _ZNSt8numpunctIcED0Ev
00825bc0   _ZSt14_Debug_messagePKcS0_
00825c40   __c6xabi_fixfu
00825cc0   __c6xabi_llshl
00825d40   __c6xabi_roundf
00825dc0   ti_sysbios_family_c62_TaskSupport_swap__E
00825dc0   ti_sysbios_knl_Task_SupportProxy_swap__E
00825e40   malloc
00825ec0   rand
00825f40   readmsg
00825fc0   ti_sysbios_family_c62_TaskSupport_start__E
00825fc0   ti_sysbios_knl_Task_SupportProxy_start__E
00826040   ti_sysbios_family_c64p_Hwi_dispatchC__I
008260c0   ti_sysbios_family_c64p_Hwi_getStackInfo__E
008260c0   ti_sysbios_hal_Hwi_HwiProxy_getStackInfo__E
008260c0   ti_sysbios_hal_Hwi_getStackInfo__E
00826140   ti_sysbios_hal_Hwi_checkStack
008261c0   ti_sysbios_hal_Hwi_initStack
00826240   ti_sysbios_knl_Idle_run__E
008262c0   ti_sysbios_knl_Swi_startup__E
00826340   ti_sysbios_knl_Task_restore__E
008263c0   ti_uia_runtime_LoggerStopMode_disable__E
00826440   ti_uia_runtime_LoggerStopMode_enable__E
008264c0   ti_uia_runtime_LoggerStopMode_filterOutEvent__I
00826540   ti_uia_runtime_LoggerStopMode_reset__E
00826540   ti_uia_runtime_LoggerStopMode_reset__F
008265c0   remove
008265c0   unlink
00826640   wmemcpy
008266c0   xdc_runtime_Core_assignLabel__I
00826740   xdc_runtime_Core_assignParams__I
008267c0   xdc_runtime_LoggerBuf_filterOutEvent__I
00826840   xdc_runtime_LoggerBuf_flush__E
008268c0   xdc_runtime_System_atexit__E
00826940   xdc_runtime_System_processAtExit__E
008269c0   xdc_runtime_System_putchar__I
00826a40   xdc_runtime_Text_printVisFxn__I
00826ac0   _Deletegloballocale
00826b20   _FDtest
00826b80   _ZNKSt5ctypeIcE10do_tolowerEPcPKc
00826be0   _ZNKSt5ctypeIcE10do_toupperEPcPKc
00826c40   _ZNKSt5ctypeIwE10do_toupperEw
00826ca0   _ZNSiD0Ev
00826d00   _ZNSoD0Ev
00826d60   _ZNSt13basic_istreamIwSt11char_traitsIwEED0Ev
00826dc0   _ZNSt13basic_ostreamIwSt11char_traitsIwEED0Ev
00826e20   _ZNSt15basic_streambufIcSt11char_traitsIcEE5_InitEv
00826e80   _ZNSt15basic_streambufIcSt11char_traitsIcEE5uflowEv
00826ee0   _ZNSt15basic_streambufIcSt11char_traitsIcEE7seekoffElNSt5_IosbIiE8_SeekdirENS4_9_OpenmodeE
00826f40   _ZNSt15basic_streambufIcSt11char_traitsIcEE7seekposESt4fposIiENSt5_IosbIiE9_OpenmodeE
00826fa0   _ZNSt15basic_streambufIcSt11char_traitsIcEED0Ev
00827000   _ZNSt15basic_streambufIcSt11char_traitsIcEED1Ev
00827060   _ZNSt15basic_streambufIwSt11char_traitsIwEE5_InitEv
008270c0   _ZNSt15basic_streambufIwSt11char_traitsIwEE5uflowEv
00827120   _ZNSt15basic_streambufIwSt11char_traitsIwEE7seekoffElNSt5_IosbIiE8_SeekdirENS4_9_OpenmodeE
00827180   _ZNSt15basic_streambufIwSt11char_traitsIwEE7seekposESt4fposIiENSt5_IosbIiE9_OpenmodeE
008271e0   _ZNSt15basic_streambufIwSt11char_traitsIwEED0Ev
00827240   _ZNSt15basic_streambufIwSt11char_traitsIwEED1Ev
008272a0   _ZNSt5ctypeIwED0Ev
00827300   _ZNSt5ctypeIwED1Ev
00827360   _ZNSt6locale7_LocimpD0Ev
008273c0   _ZNSt6localeC1Ev
008273c0   _ZNSt6localeC2Ev
00827420   _ZNSt8ios_baseD0Ev
00827480   _ZNSt8numpunctIcED1Ev
008274e0   _ZNSt9basic_iosIcSt11char_traitsIcEED0Ev
00827540   _ZNSt9basic_iosIwSt11char_traitsIwEED0Ev
008275a0   _ZTv0_n12_NSiD0Ev
00827600   _ZTv0_n12_NSoD0Ev
00827660   _ZTv0_n12_NSt13basic_istreamIwSt11char_traitsIwEED0Ev
008276c0   _ZTv0_n12_NSt13basic_ostreamIwSt11char_traitsIwEED0Ev
00827720   __c6xabi_frcmpyd_div
00827780   __c6xabi_llshru
008277e0   __cxa_vec_ctor
00827840   __cxa_vec_new
008278a0   _subcull
00827900   ti_sysbios_family_c64p_Hwi_switchAndDispatch__I
00827960   ti_sysbios_family_xxx_Hwi_switchAndRunFunc
008279c0   calloc
00827a20   fclose
00827a80   fgetpos
00827ae0   memccpy
00827b40   memmove
00827ba0   modff
00827c00   setlocale
00827c60   sprintf
00827cc0   strcspn
00827d20   ti_sysbios_BIOS_atExitFunc__I
00827d80   ti_sysbios_BIOS_errorRaiseHook__I
00827de0   ti_sysbios_BIOS_registerRTSLock__I
00827e40   ti_sysbios_BIOS_removeRTSLock__I
00827ea0   ti_sysbios_BIOS_rtsUnlock__I
00827f00   ti_sysbios_gates_GateHwi_Object__create__S
00827f60   ti_sysbios_gates_GateMutex_Object__create__S
00827fc0   ti_sysbios_heaps_HeapMem_Object__create__S
00828020   ti_sysbios_knl_Clock_Module_startup__E
00828080   ti_sysbios_knl_Clock_doTick__I
008280e0   ti_sysbios_knl_Queue_construct
00828140   ti_sysbios_knl_Semaphore_construct
008281a0   ti_sysbios_knl_Semaphore_pendTimeout__I
00828200   ti_sysbios_knl_Swi_Module_startup__E
00828260   ti_sysbios_knl_Task_enter__I
008282c0   ti_uia_runtime_LogSync_Module_startup__E
008282c0   ti_uia_runtime_LogSync_Module_startup__F
00828320   ti_uia_runtime_LoggerStopMode_Instance_finalize__F
00828380   ungetwc
008283e0   writemsg
00828438   C$$IO$$
00828440   xdc_runtime_Memory_calloc__E
008284a0   xdc_runtime_SysMin_Module_startup__E
00828500   xdc_runtime_SysMin_exit__E
00828500   xdc_runtime_System_SupportProxy_exit__E
00828560   xdc_runtime_SysMin_output__I
008285c0   xdc_runtime_System_aprintf_va__E
008285c0   xdc_runtime_System_aprintf_va__F
008285c0   xdc_runtime_System_avprintf__E
00828620   xdc_runtime_System_printf_va__E
00828620   xdc_runtime_System_printf_va__F
00828620   xdc_runtime_System_vprintf__E
00828680   xdc_runtime_Text_cordText__E
008286e0   _ZNKSt5ctypeIcE10do_tolowerEc
00828720   _ZNKSt5ctypeIcE10do_toupperEc
00828760   _ZNKSt5ctypeIcE8do_widenEPKcS2_Pc
008287a0   _ZNKSt5ctypeIcE9do_narrowEPKcS2_cPc
008287e0   _ZNKSt5ctypeIwE5do_isEsw
00828820   _ZNKSt5ctypeIwE8do_widenEc
00828860   _ZNKSt5ctypeIwE9do_narrowEwc
008288a0   _ZNSiD1Ev
008288e0   _ZNSoD1Ev
00828920   _ZNSt13basic_istreamIwSt11char_traitsIwEED1Ev
00828960   _ZNSt13basic_ostreamIwSt11char_traitsIwEED1Ev
008289a0   _ZNSt6locale5facet7_DecrefEv
008289e0   _ZSt6_ThrowRKSt9exception
00828a20   _ZTv0_n12_NSiD1Ev
00828a60   _ZTv0_n12_NSoD1Ev
00828aa0   _ZTv0_n12_NSt13basic_istreamIwSt11char_traitsIwEED1Ev
00828ae0   _ZTv0_n12_NSt13basic_ostreamIwSt11char_traitsIwEED1Ev
00828b20   __c6xabi_isinf
00828ba0   __sti___11_locale0_cpp_36e19383
00828be0   _args_main
00828c60   ti_sysbios_family_c62_TaskSupport_buildTaskStack
00828ca0   free
00828ce0   mbrtowc
00828d20   mbtowc
00828d60   strcmp
00828da0   ti_sysbios_BIOS_exitFunc__I
00828de0   ti_sysbios_BIOS_rtsLock__I
00828e20   ti_sysbios_BIOS_startFunc__I
00828e60   ti_sysbios_family_c64p_Hwi_Module__startupDone__F
00828e60   ti_sysbios_family_c64p_Hwi_Module__startupDone__S
00828ea0   ti_sysbios_family_c64p_Hwi_disableInterrupt__E
00828ea0   ti_sysbios_hal_Hwi_HwiProxy_disableInterrupt__E
00828ea0   ti_sysbios_hal_Hwi_disableInterrupt__E
00828ee0   ti_sysbios_family_c64p_Hwi_enableInterrupt__E
00828ee0   ti_sysbios_hal_Hwi_HwiProxy_enableInterrupt__E
00828ee0   ti_sysbios_hal_Hwi_enableInterrupt__E
00828f20   ti_sysbios_gates_GateHwi_Handle__label__S
00828f60   ti_sysbios_gates_GateHwi_Object__delete__S
00828fa0   ti_sysbios_gates_GateMutex_Handle__label__S
00828fe0   ti_sysbios_gates_GateMutex_Instance_init__E
00829020   ti_sysbios_gates_GateMutex_Object__delete__S
00829060   ti_sysbios_gates_GateMutex_leave__E
008290a0   ti_sysbios_heaps_HeapMem_Handle__label__S
008290e0   ti_sysbios_heaps_HeapMem_Object__delete__S
00829120   ti_sysbios_heaps_HeapMem_Object__get__S
00829160   ti_sysbios_knl_Queue_Object__destruct__S
008291a0   ti_sysbios_knl_Semaphore_Object__destruct__S
008291e0   ti_sysbios_knl_Swi_Object__get__S
00829220   ti_sysbios_knl_Task_Object__get__S
00829260   ti_sysbios_timers_timer64_Timer_Module__startupDone__F
00829260   ti_sysbios_timers_timer64_Timer_Module__startupDone__S
008292a0   ti_uia_family_c66_TimestampC66XGlobal_Module__startupDone__F
008292a0   ti_uia_family_c66_TimestampC66XGlobal_Module__startupDone__S
008292e0   ti_uia_runtime_LoggerStopMode_Handle__label__S
00829320   ti_uia_runtime_LoggerStopMode_Object__delete__S
00829360   ti_uia_runtime_LoggerStopMode_Object__get__S
008293a0   ti_uia_runtime_LoggerStopMode_write0__E
008293e0   ti_uia_runtime_LoggerStopMode_write1__E
00829420   ti_uia_runtime_LoggerStopMode_write2__E
00829460   ti_uia_runtime_QueueDescriptor_initHeader__E
008294a0   wcrtomb
008294e0   xdc_runtime_Error_check__E
00829520   xdc_runtime_Error_init__E
00829560   xdc_runtime_Error_raiseX__E
008295a0   xdc_runtime_Gate_leaveSystem__E
008295e0   xdc_runtime_LoggerBuf_Handle__label__S
00829620   xdc_runtime_LoggerBuf_Instance_finalize__E
00829660   xdc_runtime_LoggerBuf_Object__delete__S
008296a0   xdc_runtime_LoggerBuf_Object__get__S
008296e0   xdc_runtime_LoggerBuf_write0__E
00829720   xdc_runtime_LoggerBuf_write1__E
00829760   xdc_runtime_LoggerBuf_write2__E
008297a0   xdc_runtime_Memory_free__E
008297e0   xdc_runtime_Registry_findById__E
00829820   xdc_runtime_System_abort__E
00829860   xdc_runtime_System_aprintf__E
008298a0   xdc_runtime_System_exit__E
008298e0   xdc_runtime_System_printf__E
00829920   xdc_runtime_System_putch__E
00829960   xdc_runtime_Text_ropeText__E
008299a0   _Atexit
008299c0   _Getgloballocale
008299e0   _Z21__default_new_handlerv
00829a00   _ZN10__cxxabiv117__class_type_infoD0Ev
00829a20   _ZN10__cxxabiv117__class_type_infoD1Ev
00829a20   _ZN10__cxxabiv117__class_type_infoD2Ev
00829a40   _ZN10__cxxabiv120__si_class_type_infoD0Ev
00829a60   _ZN10__cxxabiv120__si_class_type_infoD1Ev
00829a60   _ZN10__cxxabiv120__si_class_type_infoD2Ev
00829a80   _ZN10__cxxabiv121__vmi_class_type_infoD0Ev
00829aa0   _ZN10__cxxabiv121__vmi_class_type_infoD1Ev
00829aa0   _ZN10__cxxabiv121__vmi_class_type_infoD2Ev
00829ac0   _ZNKSt11logic_error4whatEv
00829ae0   _ZNKSt11logic_error8_DoraiseEv
00829b00   _ZNKSt12codecvt_base11do_encodingEv
00829b20   _ZNKSt12codecvt_base13do_max_lengthEv
00829b40   _ZNKSt12codecvt_base16do_always_noconvEv
00829b60   _ZNKSt12length_error8_DoraiseEv
00829b80   _ZNKSt12out_of_range8_DoraiseEv
00829ba0   _ZNKSt13runtime_error4whatEv
00829bc0   _ZNKSt13runtime_error8_DoraiseEv
00829be0   _ZNKSt5ctypeIcE8do_widenEc
00829c00   _ZNKSt5ctypeIcE9do_narrowEcc
00829c20   _ZNKSt5ctypeIwE2isEsw
00829c40   _ZNKSt5ctypeIwE5widenEc
00829c60   _ZNKSt5ctypeIwE6narrowEwc
00829c80   _ZNKSt7codecvtIcciE10do_unshiftERiPcS2_RS2_
00829ca0   _ZNKSt7codecvtIcciE5do_inERiPKcS3_RS3_PcS5_RS5_
00829cc0   _ZNKSt7codecvtIcciE6do_outERiPKcS3_RS3_PcS5_RS5_
00829ce0   _ZNKSt7codecvtIcciE9do_lengthERKiPKcS4_j
00829d00   _ZNKSt7codecvtIwciE11do_encodingEv
00829d20   _ZNKSt7codecvtIwciE13do_max_lengthEv
00829d40   _ZNKSt7codecvtIwciE16do_always_noconvEv
00829d60   _ZNKSt8ios_base7failure8_DoraiseEv
00829d80   _ZNKSt8numpunctIcE16do_decimal_pointEv
00829da0   _ZNKSt8numpunctIcE16do_thousands_sepEv
00829dc0   _ZNKSt9exception4whatEv
00829de0   _ZNKSt9exception8_DoraiseEv
00829e00   _ZNSt10ctype_baseD0Ev
00829e20   _ZNSt10ctype_baseD1Ev
00829e40   _ZNSt12codecvt_baseD0Ev
00829e60   _ZNSt12codecvt_baseD1Ev
00829e80   _ZNSt15basic_streambufIcSt11char_traitsIcEE4syncEv
00829ea0   _ZNSt15basic_streambufIcSt11char_traitsIcEE5_LockEv
00829ec0   _ZNSt15basic_streambufIcSt11char_traitsIcEE5imbueERKSt6locale
00829ee0   _ZNSt15basic_streambufIcSt11char_traitsIcEE6setbufEPci
00829f00   _ZNSt15basic_streambufIcSt11char_traitsIcEE7_UnlockEv
00829f20   _ZNSt15basic_streambufIcSt11char_traitsIcEE8overflowEi
00829f40   _ZNSt15basic_streambufIcSt11char_traitsIcEE9pbackfailEi
00829f60   _ZNSt15basic_streambufIcSt11char_traitsIcEE9showmanycEv
00829f80   _ZNSt15basic_streambufIcSt11char_traitsIcEE9underflowEv
00829fa0   _ZNSt15basic_streambufIwSt11char_traitsIwEE4syncEv
00829fc0   _ZNSt15basic_streambufIwSt11char_traitsIwEE5_LockEv
00829fe0   _ZNSt15basic_streambufIwSt11char_traitsIwEE5imbueERKSt6locale
0082a000   _ZNSt15basic_streambufIwSt11char_traitsIwEE6setbufEPwi
0082a020   _ZNSt15basic_streambufIwSt11char_traitsIwEE7_UnlockEv
0082a040   _ZNSt15basic_streambufIwSt11char_traitsIwEE8overflowEj
0082a060   _ZNSt15basic_streambufIwSt11char_traitsIwEE9pbackfailEj
0082a080   _ZNSt15basic_streambufIwSt11char_traitsIwEE9showmanycEv
0082a0a0   _ZNSt15basic_streambufIwSt11char_traitsIwEE9underflowEv
0082a0c0   _ZNSt6locale5facetD0Ev
0082a0e0   _ZNSt6locale5facetD1Ev
0082a100   _ZNSt7codecvtIcciED0Ev
0082a120   _ZNSt7codecvtIcciED1Ev
0082a140   _ZNSt7codecvtIwciED0Ev
0082a160   _ZNSt7codecvtIwciED1Ev
0082a180   _ZNSt7num_putIcSt19ostreambuf_iteratorIcSt11char_traitsIcEEED0Ev
0082a1a0   _ZNSt7num_putIcSt19ostreambuf_iteratorIcSt11char_traitsIcEEED1Ev
0082a1c0   _ZNSt9basic_iosIcSt11char_traitsIcEED1Ev
0082a1e0   _ZNSt9basic_iosIwSt11char_traitsIwEED1Ev
0082a200   _ZNSt9exceptionD0Ev
0082a220   _ZNSt9exceptionD1Ev
0082a260   _ZdaPv
0082a260   _ZdlPv
0082a280   _ZnwjPv
0082a2a0   __c6xabi_errno_addr
0082a2c0   __c6xabi_negll
0082a2e0   __c6xabi_truncf
0082a300   __cxa_atexit
0082a320   __cxa_guard_acquire
0082a340   __cxa_guard_release
0082a360   __cxa_ia64_exit
0082a380   __memzero
0082a3a0   __xdc__init
0082a3c0   _nop
0082a440   _register_lock
0082a460   _register_unlock
0082a480   ti_sysbios_family_c62_TaskSupport_glue
0082a4a0   C$$EXIT
0082a4a0   abort
0082a4a0   xdc_runtime_System_abortStd__E
0082a4c0   atexit
0082a4e0   __TI_decompress_none
0082a500   __TI_decompress_rle24
0082a520   fgetwc
0082a540   fputwc
0082a560   fsetpos
0082a580   localeconv
0082a5a0   ti_sysbios_BIOS_RtsGateProxy_enter__E
0082a5c0   ti_sysbios_BIOS_RtsGateProxy_leave__E
0082a5e0   ti_sysbios_BIOS_getCpuFreq__E
0082a5e0   ti_sysbios_family_c64p_TimestampProvider_getFreq__E
0082a5e0   ti_uia_runtime_LogSync_CpuTimestampProxy_getFreq__E
0082a5e0   xdc_runtime_LoggerBuf_TimestampProxy_getFreq__E
0082a5e0   xdc_runtime_Timestamp_SupportProxy_getFreq__E
0082a5e0   xdc_runtime_Timestamp_getFreq__E
0082a600   ti_sysbios_BIOS_nullFunc__I
0082a620   ti_sysbios_BIOS_setThreadType__E
0082a640   ti_sysbios_BIOS_start__E
0082a660   ti_sysbios_family_c62_TaskSupport_Module__startupDone__S
0082a680   ti_sysbios_family_c62_TaskSupport_checkStack__E
0082a680   ti_sysbios_knl_Task_SupportProxy_checkStack__E
0082a6a0   ti_sysbios_family_c64p_Hwi_clearInterrupt__E
0082a6a0   ti_sysbios_hal_Hwi_HwiProxy_clearInterrupt__E
0082a6a0   ti_sysbios_hal_Hwi_clearInterrupt__E
0082a6c0   ti_sysbios_family_c64p_Hwi_startup__E
0082a6c0   ti_sysbios_hal_Hwi_HwiProxy_startup__E
0082a6c0   ti_sysbios_hal_Hwi_startup__E
0082a6e0   ti_sysbios_family_c64p_Hwi_switchFromBootStack__E
0082a6e0   ti_sysbios_hal_Hwi_HwiProxy_switchFromBootStack__E
0082a6e0   ti_sysbios_hal_Hwi_switchFromBootStack__E
0082a700   ti_sysbios_family_c64p_TimestampProvider_Module_startup__E
0082a720   ti_sysbios_family_c64p_TimestampProvider_get32__E
0082a720   ti_uia_runtime_LogSync_CpuTimestampProxy_get32__E
0082a720   xdc_runtime_LoggerBuf_TimestampProxy_get32__E
0082a720   xdc_runtime_Timestamp_SupportProxy_get32__E
0082a720   xdc_runtime_Timestamp_get32__E
0082a740   ti_sysbios_family_c64p_TimestampProvider_get64__E
0082a740   ti_uia_runtime_LogSync_CpuTimestampProxy_get64__E
0082a740   xdc_runtime_LoggerBuf_TimestampProxy_get64__E
0082a740   xdc_runtime_Timestamp_SupportProxy_get64__E
0082a740   xdc_runtime_Timestamp_get64__E
0082a760   ti_sysbios_family_c64p_tci6488_TimerSupport_enable__E
0082a760   ti_sysbios_timers_timer64_Timer_TimerSupportProxy_enable__E
0082a780   ti_sysbios_gates_GateHwi_Instance_init__E
0082a7a0   ti_sysbios_gates_GateHwi_enter__E
0082a7c0   ti_sysbios_gates_GateHwi_leave__E
0082a7e0   ti_sysbios_gates_GateHwi_query__E
0082a7e0   xdc_runtime_LoggerBuf_Module_GateProxy_query__E
0082a7e0   xdc_runtime_Main_Module_GateProxy_query__E
0082a7e0   xdc_runtime_System_Module_GateProxy_query__E
0082a800   ti_sysbios_gates_GateMutex_Instance_finalize__E
0082a820   ti_sysbios_BIOS_RtsGateProxy_query__E
0082a820   ti_sysbios_gates_GateMutex_query__E
0082a820   ti_sysbios_heaps_HeapMem_Module_GateProxy_query__E
0082a840   ti_sysbios_hal_Hwi_HwiProxy_Module__startupDone__S
0082a860   ti_sysbios_hal_Hwi_Module_startup__E
0082a880   ti_sysbios_heaps_HeapMem_Module_GateProxy_enter__E
0082a8a0   ti_sysbios_heaps_HeapMem_Module_GateProxy_leave__E
0082a8c0   ti_sysbios_heaps_HeapMem_isBlocking__E
0082a8e0   ti_sysbios_knl_Clock_TimerProxy_Module__startupDone__S
0082a900   ti_sysbios_knl_Clock_TimerProxy_getMaxTicks__E
0082a920   ti_sysbios_knl_Clock_getTicks__E
0082a940   ti_sysbios_knl_Idle_loop__E
0082a960   ti_sysbios_knl_Queue_Instance_init__E
0082a980   ti_sysbios_knl_Queue_Object__get__S
0082a9a0   ti_sysbios_knl_Queue_destruct
0082a9c0   ti_sysbios_knl_Queue_empty__E
0082a9e0   ti_sysbios_knl_Semaphore_Instance_finalize__E
0082aa00   ti_sysbios_knl_Semaphore_destruct
0082aa20   ti_sysbios_knl_Swi_disable__E
0082aa40   ti_sysbios_knl_Task_SupportProxy_Module__startupDone__S
0082aa60   ti_sysbios_knl_Task_disable__E
0082aa80   ti_sysbios_knl_Task_startup__E
0082aaa0   ti_sysbios_timers_timer64_Timer_getMaxTicks__E
0082aac0   ti_sysbios_utils_Load_taskRegHook__E
0082aae0   ti_uia_family_c66_TimestampC66XGlobal_Module_startup__E
0082aae0   ti_uia_family_c66_TimestampC66XGlobal_Module_startup__F
0082ab00   ti_uia_runtime_LogSync_CpuTimestampProxy_Module__startupDone__S
0082ab20   ti_uia_runtime_LogSync_GlobalTimestampProxy_Module__startupDone__S
0082ab40   ti_uia_runtime_LoggerStopMode_getFreeSize__E
0082ab60   ti_uia_runtime_LoggerStopMode_getInstanceId__E
0082ab80   ti_uia_runtime_LoggerStopMode_getMaxLength__E
0082aba0   ti_uia_runtime_LoggerStopMode_getPriority__E
0082abc0   ti_uia_runtime_LoggerStopMode_getTransferType__E
0082abc0   ti_uia_runtime_LoggerStopMode_getTransferType__F
0082abe0   ti_uia_runtime_LoggerStopMode_getUnreadSize__E
0082ac00   ti_uia_runtime_LoggerStopMode_isEmpty__E
0082ac20   ti_uia_runtime_LoggerStopMode_setPriority__E
0082ac40   wctomb
0082ac60   xdc_runtime_Gate_enterSystem__E
0082acc0   xdc_runtime_LoggerBuf_Module_GateProxy_enter__E
0082ace0   xdc_runtime_LoggerBuf_Module_GateProxy_leave__E
0082ad00   xdc_runtime_LoggerBuf_Object__first__S
0082ad20   xdc_runtime_LoggerBuf_Object__next__S
0082ad40   xdc_runtime_LoggerBuf_disable__E
0082ad60   xdc_runtime_LoggerBuf_enable__E
0082ad80   xdc_runtime_LoggerBuf_flushAllInternal__E
0082ada0   xdc_runtime_Memory_HeapProxy_alloc__E
0082adc0   xdc_runtime_Memory_HeapProxy_free__E
0082ade0   xdc_runtime_Startup_exec__I
0082ae00   xdc_runtime_Startup_reset__I
0082ae20   xdc_runtime_SysMin_ready__E
0082ae20   xdc_runtime_System_SupportProxy_ready__E
0082ae40   xdc_runtime_System_Module_GateProxy_enter__E
0082ae60   xdc_runtime_System_Module_GateProxy_leave__E
0082ae80   xdc_runtime_System_Module_startup__E
0082aea0   xdc_runtime_System_snprintf_va__E
0082aea0   xdc_runtime_System_snprintf_va__F
0082aea0   xdc_runtime_System_vsnprintf__E
0082aec0   xdc_runtime_Text_visitRope__I
0082aee0   xdc_runtime_Timestamp_Module__startupDone__S
0082af00   ti_sysbios_knl_Task_Instance_State_0_hookEnv__A
0082af08   ti_sysbios_knl_Task_Instance_State_1_hookEnv__A
0082af10   ti_uia_runtime_LoggerStopMode_Instance_State_0_bufferArray__A
0082b190   ti_uia_runtime_LoggerStopMode_Instance_State_1_bufferArray__A
0082b610   ti_uia_runtime_LoggerStopMode_Instance_State_2_bufferArray__A
0082ba90   ti_uia_runtime_LoggerStopMode_Instance_State_3_bufferArray__A
0082bd10   xdc_runtime_LoggerBuf_Instance_State_0_entryArr__A
0082bd90   xdc_runtime_SysMin_Module_State_0_outbuf__A
0082c590   ti_sysbios_knl_Task_Instance_State_0_stack__A
0082cd90   ti_sysbios_knl_Task_Instance_State_1_stack__A
0082d684   _ZSt4wcin
0082d6c0   _ZSt5wcout
0082d6f8   _ZSt5wcerr
0082d730   _ZSt5wclog
0082d808   _ZSt3cin
0082d844   _ZSt4cout
0082d8cc   _ZSt4cerr
0082d904   _ZSt4clog
0082d93c   dlConfig
0082dac0   sysConfig
0082dad0   _tmpnams
0082dc10   _ZNSt7codecvtIwciE2idE
0082dc14   _ZNSt5ctypeIcE2idE
0082dc1c   _ZGVNSt10moneypunctIwLb0EE2idE
0082dc28   _ZGVNSt10moneypunctIwLb1EE2idE
0082dc2c   _ZGVNSt7codecvtIcciE2idE
0082dc30   _ZGVNSt7collateIwE2idE
0082dc34   _ZGVNSt7num_getIwSt19istreambuf_iteratorIwSt11char_traitsIwEEE2idE
0082dc38   _ZGVNSt7num_putIwSt19ostreambuf_iteratorIwSt11char_traitsIwEEE2idE
0082dc3c   _ZGVNSt8messagesIwE2idE
0082dc40   _ZGVNSt8numpunctIwE2idE
0082dc44   _ZGVNSt8time_getIwSt19istreambuf_iteratorIwSt11char_traitsIwEEE2idE
0082dc48   _ZGVNSt9money_getIwSt19istreambuf_iteratorIwSt11char_traitsIwEEE2idE
0082dc4c   _ZGVNSt9money_putIwSt19ostreambuf_iteratorIwSt11char_traitsIwEEE2idE
0082dc50   _ZNSt10moneypunctIwLb0EE2idE
0082dc54   _ZNSt10moneypunctIwLb1EE2idE
0082dc58   _ZNSt13basic_filebufIcSt11char_traitsIcEE7_StinitE
0082dc5c   _ZNSt13basic_filebufIwSt11char_traitsIwEE7_StinitE
0082dc60   _ZNSt4fposIiE4_StzE
0082dc64   _ZNSt7codecvtIcciE2idE
0082dc68   _ZNSt7collateIwE2idE
0082dc6c   _ZNSt7num_getIwSt19istreambuf_iteratorIwSt11char_traitsIwEEE2idE
0082dc70   _ZNSt7num_putIcSt19ostreambuf_iteratorIcSt11char_traitsIcEEE2idE
0082dc74   _ZNSt7num_putIwSt19ostreambuf_iteratorIwSt11char_traitsIwEEE2idE
0082dc78   _ZNSt8messagesIwE2idE
0082dc7c   _ZNSt8numpunctIcE2idE
0082dc80   _ZNSt8numpunctIwE2idE
0082dc84   _ZNSt8time_getIwSt19istreambuf_iteratorIwSt11char_traitsIwEEE2idE
0082dc88   _ZNSt8time_putIwSt19ostreambuf_iteratorIwSt11char_traitsIwEEE2idE
0082dc8c   _ZNSt9money_getIwSt19istreambuf_iteratorIwSt11char_traitsIwEEE2idE
0082dc90   _ZNSt9money_putIwSt19ostreambuf_iteratorIwSt11char_traitsIwEEE2idE
0082dc94   _ZNSt5ctypeIwE2idE
0082e1c8   ti_sysbios_family_c66_Cache_marvalues__C
0082eb88   _ctypes_
0082ecef   ti_sysbios_timers_timer64_Timer_localTimerBaseId__C
0082ecf0   ti_uia_runtime_LoggerStopMode_Module__FXNS__C
0082ee88   _ZTVSt13basic_filebufIcSt11char_traitsIcEE
0082eed0   _ZTVSt13basic_filebufIwSt11char_traitsIwEE
0082ef18   _ZTVSt15basic_streambufIcSt11char_traitsIcEE
0082ef60   _ZTVSt15basic_streambufIwSt11char_traitsIwEE
0082efe8   _ZTVSt5ctypeIwE
0082f028   xdc_runtime_LoggerBuf_Module__FXNS__C
0082f068   xdc_runtime_Startup_sfxnTab__A
0082f0a4   _ZSt7_BADOFF
0082f0a8   _ZTSSt7num_putIcSt19ostreambuf_iteratorIcSt11char_traitsIcEEE
0082f0e4   ti_uia_runtime_LoggerStopMode_Object__PARAMS__C
0082f148   _ZTVSi
0082f170   _ZTTSi
0082f178   _ZTVSo
0082f1a0   _ZTTSo
0082f1a8   _ZTVSt13basic_istreamIwSt11char_traitsIwEE
0082f1d0   _ZTTSt13basic_istreamIwSt11char_traitsIwEE
0082f1d8   _ZTVSt13basic_ostreamIwSt11char_traitsIwEE
0082f200   _ZTTSt13basic_ostreamIwSt11char_traitsIwEE
0082f208   _ZTVSt5ctypeIcE
0082f238   _ZTVSt7num_putIcSt19ostreambuf_iteratorIcSt11char_traitsIcEEE
0082f296   ti_sysbios_family_c64p_Exception_Module__id__C
0082f2c4   ti_sysbios_family_c64p_Exception_E_exceptionMax__C
0082f2c8   _ZTVSt7codecvtIcciE
0082f2f4   ti_sysbios_family_c64p_Exception_exceptionHook__C
0082f2f8   _ZTVSt7codecvtIwciE
0082f324   ti_sysbios_family_c64p_Exception_externalHook__C
0082f328   _ZTSSt15basic_streambufIcSt11char_traitsIcEE
0082f352   ti_sysbios_family_c64p_Exception_useInternalBuffer__C
0082f354   ti_sysbios_family_c64p_Exception_internalHook__C
0082f358   _ZTSSt15basic_streambufIwSt11char_traitsIwEE
0082f382   ti_sysbios_family_c64p_Hwi_Module__id__C
0082f384   ti_sysbios_heaps_HeapMem_Module__FXNS__C
0082f3ac   xdc_runtime_LoggerBuf_Object__PARAMS__C
0082f3d4   ti_sysbios_family_c64p_Exception_nmiHook__C
0082f3d8   _ZTSSt13basic_filebufIcSt11char_traitsIcEE
0082f400   _ZTSSt13basic_filebufIwSt11char_traitsIwEE
0082f428   _ZTSSt13basic_istreamIwSt11char_traitsIwEE
0082f450   _ZTSSt13basic_ostreamIwSt11char_traitsIwEE
0082f478   _ZTSN10__cxxabiv121__vmi_class_type_infoE
0082f49e   ti_sysbios_family_c64p_Hwi_Module__loggerDefined__C
0082f4a0   _ZTSN10__cxxabiv120__si_class_type_infoE
0082f4c6   ti_sysbios_gates_GateMutex_Module__id__C
0082f4c8   _ZTVSt8numpunctIcE
0082f4ec   ti_sysbios_gates_GateHwi_Module__FXNS__C
0082f510   ti_sysbios_gates_GateMutex_Module__FXNS__C
0082f534   ti_sysbios_heaps_HeapMem_Object__PARAMS__C
0082f558   ti_sysbios_knl_Semaphore_Object__PARAMS__C
0082f5a0   _ZTSN10__cxxabiv117__class_type_infoE
0082f5c2   ti_sysbios_hal_Hwi_Module__id__C
0082f5c4   ti_sysbios_family_c64p_Hwi_LD_end__C
0082f5c8   _ZTSSt9basic_iosIcSt11char_traitsIcEE
0082f5ea   ti_sysbios_heaps_HeapMem_Module__id__C
0082f5ec   ti_sysbios_family_c64p_Hwi_LM_begin__C
0082f5f0   _ZTSSt9basic_iosIwSt11char_traitsIwEE
0082f632   ti_sysbios_knl_Clock_Module__id__C
0082f634   ti_sysbios_gates_GateHwi_Object__DESC__C
0082f654   ti_sysbios_gates_GateMutex_Object__DESC__C
0082f674   ti_sysbios_heaps_HeapMem_Object__DESC__C
0082f694   ti_sysbios_knl_Queue_Object__DESC__C
0082f6b4   ti_sysbios_knl_Semaphore_Object__DESC__C
0082f6d4   ti_uia_runtime_LoggerStopMode_Object__DESC__C
0082f6f4   xdc_runtime_LoggerBuf_Object__DESC__C
0082f714   ti_sysbios_family_c64p_Hwi_Module__diagsEnabled__C
0082f718   xdc_runtime_Startup_sfxnRts__A
0082f736   ti_sysbios_knl_Clock_Module__loggerDefined__C
0082f738   _ZTVSt12codecvt_base
0082f754   _ZTISi
0082f76c   _ZTISo
0082f784   _ZTISt13basic_istreamIwSt11char_traitsIwEE
0082f79c   _ZTISt13basic_ostreamIwSt11char_traitsIwEE
0082f7b4   ti_sysbios_family_c64p_Hwi_Module__diagsIncluded__C
0082f7b8   _ZTVNSt8ios_base7failureE
0082f7d0   _ZTVSt11logic_error
0082f7e8   _ZTVSt12length_error
0082f800   _ZTVSt12out_of_range
0082f818   _ZTVSt13runtime_error
0082f830   _ZTVSt9exception
0082f848   ti_sysbios_gates_GateHwi_Object__PARAMS__C
0082f860   ti_sysbios_gates_GateMutex_Object__PARAMS__C
0082f878   ti_sysbios_knl_Queue_Object__PARAMS__C
0082f890   ti_sysbios_knl_Task_hooks__A
0082f8a8   _ZTSNSt8ios_base7failureE
0082f8d4   ti_sysbios_family_c64p_Hwi_Module__diagsMask__C
0082f8d8   _ZTSNSt6locale7_LocimpE
0082f8ec   ti_sysbios_family_c64p_Hwi_Module__loggerFxn1__C
0082f8f0   _ZTSNSt6locale5facetE
0082f902   ti_sysbios_knl_Semaphore_Module__id__C
0082f904   ti_sysbios_family_c64p_Hwi_Module__loggerFxn8__C
0082f908   _ZTSSt13runtime_error
0082f91a   ti_sysbios_knl_Semaphore_Module__loggerDefined__C
0082f91c   ti_sysbios_family_c64p_Hwi_Module__loggerObj__C
0082f920   _ZTSSt12codecvt_base
0082f932   ti_sysbios_knl_Swi_Module__id__C
0082f934   ti_sysbios_gates_GateMutex_A_badContext__C
0082f938   _ZTSSt12length_error
0082f94a   ti_sysbios_knl_Swi_Module__loggerDefined__C
0082f94c   ti_sysbios_gates_GateMutex_Instance_State_sem__O
0082f950   _ZTSSt12out_of_range
0082f972   ti_sysbios_knl_Task_Module__id__C
0082f974   _ZTIN10__cxxabiv117__class_type_infoE
0082f992   ti_sysbios_knl_Task_Module__loggerDefined__C
0082f994   ti_sysbios_gates_GateMutex_Module__diagsEnabled__C
0082f998   _ZTSSt11logic_error
0082f9a8   _ZTSSt7codecvtIcciE
0082f9b8   _ZTSSt7codecvtIwciE
0082f9c8   _ZTVN10__cxxabiv117__class_type_infoE
0082f9d8   _ZTVN10__cxxabiv120__si_class_type_infoE
0082f9e8   _ZTVN10__cxxabiv121__vmi_class_type_infoE
0082f9f8   _ZTVNSt6locale5facetE
0082fa08   _ZTVNSt6locale7_LocimpE
0082fa18   _ZTVSt10ctype_base
0082fa28   _ZTVSt8ios_base
0082fa38   _ZTVSt9basic_iosIcSt11char_traitsIcEE
0082fa48   _ZTVSt9basic_iosIwSt11char_traitsIwEE
0082fa58   _ZTSSt10ctype_base
0082fa68   _ZTSSt8numpunctIcE
0082fa86   ti_sysbios_knl_Task_initStackFlag__C
0082fa88   _ZTSSt9exception
0082fa96   ti_sysbios_timers_timer64_Timer_Module__id__C
0082fa98   _ZTSSt9type_info
0082faa6   ti_sysbios_timers_timer64_Timer_startupNeeded__C
0082faa8   _ZTSSt5_IosbIiE
0082fab4   ti_sysbios_gates_GateMutex_Module__diagsIncluded__C
0082fab8   _ZTSSt5ctypeIcE
0082fac4   ti_sysbios_gates_GateMutex_Module__diagsMask__C
0082fac8   _ZTSSt5ctypeIwE
0082fad4   ti_sysbios_hal_Hwi_E_stackOverflow__C
0082fad8   _ZTSSt8ios_base
0082fae4   _ZTIN10__cxxabiv120__si_class_type_infoE
0082faf0   _ZTIN10__cxxabiv121__vmi_class_type_infoE
0082fafc   _ZTINSt6locale7_LocimpE
0082fb08   _ZTINSt8ios_base7failureE
0082fb14   _ZTISt10ctype_base
0082fb20   _ZTISt11logic_error
0082fb2c   _ZTISt12codecvt_base
0082fb38   _ZTISt12length_error
0082fb44   _ZTISt12out_of_range
0082fb50   _ZTISt13basic_filebufIcSt11char_traitsIcEE
0082fb5c   _ZTISt13basic_filebufIwSt11char_traitsIwEE
0082fb68   _ZTISt13runtime_error
0082fb74   _ZTISt5ctypeIcE
0082fb80   _ZTISt5ctypeIwE
0082fb8c   _ZTISt7codecvtIcciE
0082fb98   _ZTISt7codecvtIwciE
0082fba4   _ZTISt7num_putIcSt19ostreambuf_iteratorIcSt11char_traitsIcEEE
0082fbb0   _ZTISt8ios_base
0082fbbc   _ZTISt8numpunctIcE
0082fbc8   _ZTISt9basic_iosIcSt11char_traitsIcEE
0082fbd4   _ZTISt9basic_iosIwSt11char_traitsIwEE
0082fbe0   ti_sysbios_family_c66_Cache_initSize__C
0082fbec   ti_sysbios_heaps_HeapMem_A_align__C
0082fbf0   ti_sysbios_knl_Idle_funcList__A
0082fc04   _ZTINSt6locale5facetE
0082fc0c   _ZTISt15basic_streambufIcSt11char_traitsIcEE
0082fc14   _ZTISt15basic_streambufIwSt11char_traitsIwEE
0082fc1c   _ZTISt5_IosbIiE
0082fc24   _ZTISt9exception
0082fc2c   _ZTISt9type_info
0082fc34   ti_sysbios_knl_Idle_funcList__C
0082fc3c   ti_sysbios_knl_Task_hooks__C
0082fc44   ti_sysbios_heaps_HeapMem_A_heapSize__C
0082fc48   xdc_runtime_Startup_firstFxns__A
0082fc50   xdc_runtime_Startup_firstFxns__C
0082fc58   xdc_runtime_Startup_lastFxns__C
0082fc60   _ZZNKSt8_Locinfo9_GetfalseEvEs
0082fc66   ti_sysbios_timers_timer64_Timer_useTimer64pRegMap__C
0082fc68   _ZZNKSt8_Locinfo8_GettrueEvEs
0082fc6e   ti_sysbios_utils_Load_Module__id__C
0082fc70   ti_sysbios_heaps_HeapMem_A_invalidFree__C
0082fc74   ti_sysbios_heaps_HeapMem_A_zeroBlock__C
0082fc78   ti_sysbios_heaps_HeapMem_E_memory__C
0082fc7c   ti_sysbios_heaps_HeapMem_Module__diagsEnabled__C
0082fc80   ti_sysbios_heaps_HeapMem_Module__diagsIncluded__C
0082fc84   ti_sysbios_heaps_HeapMem_Module__diagsMask__C
0082fc88   ti_sysbios_heaps_HeapMem_Module__gateObj__C
0082fc8c   ti_sysbios_heaps_HeapMem_Object__count__C
0082fc90   ti_sysbios_heaps_HeapMem_reqAlign__C
0082fc94   ti_sysbios_knl_Clock_LM_begin__C
0082fc98   ti_sysbios_knl_Clock_LM_tick__C
0082fc9c   ti_sysbios_knl_Clock_LW_delayed__C
0082fca0   ti_sysbios_knl_Clock_Module_State_clockQ__O
0082fca4   ti_sysbios_knl_Clock_Module__diagsEnabled__C
0082fca8   ti_sysbios_knl_Clock_Module__diagsIncluded__C
0082fcac   ti_sysbios_knl_Clock_Module__diagsMask__C
0082fcb0   ti_sysbios_knl_Clock_Module__loggerFxn1__C
0082fcb4   ti_sysbios_knl_Clock_Module__loggerFxn2__C
0082fcb8   ti_sysbios_knl_Clock_Module__loggerObj__C
0082fcbc   ti_sysbios_knl_Semaphore_A_badContext__C
0082fcc0   ti_sysbios_knl_Semaphore_A_noEvents__C
0082fcc4   ti_sysbios_knl_Semaphore_A_overflow__C
0082fcc8   ti_sysbios_knl_Semaphore_A_pendTaskDisabled__C
0082fccc   ti_sysbios_knl_Semaphore_Instance_State_pendQ__O
0082fcd0   ti_sysbios_knl_Semaphore_LM_pend__C
0082fcd4   ti_sysbios_knl_Semaphore_LM_post__C
0082fcd8   ti_sysbios_knl_Semaphore_Module__diagsEnabled__C
0082fcdc   ti_sysbios_knl_Semaphore_Module__diagsIncluded__C
0082fce0   ti_sysbios_knl_Semaphore_Module__diagsMask__C
0082fce4   ti_sysbios_knl_Semaphore_Module__loggerFxn2__C
0082fce8   ti_sysbios_knl_Semaphore_Module__loggerFxn4__C
0082fcec   ti_sysbios_knl_Semaphore_Module__loggerObj__C
0082fcf0   ti_sysbios_knl_Swi_LD_end__C
0082fcf4   ti_sysbios_knl_Swi_LM_begin__C
0082fcf8   ti_sysbios_knl_Swi_LM_post__C
0082fcfc   ti_sysbios_knl_Swi_Module__diagsEnabled__C
0082fd00   ti_sysbios_knl_Swi_Module__diagsIncluded__C
0082fd04   ti_sysbios_knl_Swi_Module__diagsMask__C
0082fd08   ti_sysbios_knl_Swi_Module__loggerFxn1__C
0082fd0c   ti_sysbios_knl_Swi_Module__loggerFxn4__C
0082fd10   ti_sysbios_knl_Swi_Module__loggerObj__C
0082fd14   ti_sysbios_knl_Swi_Object__count__C
0082fd18   ti_sysbios_knl_Task_E_spOutOfBounds__C
0082fd1c   ti_sysbios_knl_Task_E_stackOverflow__C
0082fd20   ti_sysbios_knl_Task_LD_block__C
0082fd24   ti_sysbios_knl_Task_LD_exit__C
0082fd28   ti_sysbios_knl_Task_LD_ready__C
0082fd2c   ti_sysbios_knl_Task_LM_switch__C
0082fd30   ti_sysbios_knl_Task_Module_State_inactiveQ__O
0082fd34   ti_sysbios_knl_Task_Module__diagsEnabled__C
0082fd38   ti_sysbios_knl_Task_Module__diagsIncluded__C
0082fd3c   ti_sysbios_knl_Task_Module__diagsMask__C
0082fd40   ti_sysbios_knl_Task_Module__loggerFxn2__C
0082fd44   ti_sysbios_knl_Task_Module__loggerFxn4__C
0082fd48   ti_sysbios_knl_Task_Module__loggerObj__C
0082fd4c   ti_sysbios_knl_Task_Object__count__C
0082fd50   ti_sysbios_knl_Task_Object__heap__C
0082fd54   ti_sysbios_knl_Task_allBlockedFunc__C
0082fd58   ti_sysbios_knl_Task_numConstructedTasks__C
0082fd5c   ti_sysbios_timers_timer64_Timer_A_notAvailable__C
0082fd60   ti_sysbios_timers_timer64_Timer_E_cannotSupport__C
0082fd64   ti_sysbios_timers_timer64_Timer_Module__diagsEnabled__C
0082fd68   ti_sysbios_timers_timer64_Timer_Module__diagsIncluded__C
0082fd6c   ti_sysbios_timers_timer64_Timer_Module__diagsMask__C
0082fd70   ti_sysbios_timers_timer64_Timer_anyMaskHigh__C
0082fd74   ti_sysbios_timers_timer64_Timer_anyMask__C
0082fd78   ti_sysbios_timers_timer64_Timer_freqDivisor__C
0082fd7c   ti_sysbios_timers_timer64_Timer_numLocalTimers__C
0082fd80   ti_sysbios_timers_timer64_Timer_numTimerDevices__C
0082fd84   ti_sysbios_utils_Load_LS_cpuLoad__C
0082fd88   ti_sysbios_utils_Load_LS_hwiLoad__C
0082fd8c   ti_sysbios_utils_Load_LS_taskLoad__C
0082fd90   ti_sysbios_utils_Load_Module_State_taskList__O
0082fd94   ti_sysbios_utils_Load_Module__diagsEnabled__C
0082fd98   ti_sysbios_utils_Load_Module__diagsIncluded__C
0082fd9c   ti_sysbios_utils_Load_Module__diagsMask__C
0082fda0   ti_sysbios_utils_Load_Module__loggerFxn1__C
0082fda4   ti_sysbios_utils_Load_Module__loggerFxn2__C
0082fda8   ti_sysbios_utils_Load_Module__loggerFxn4__C
0082fdac   ti_sysbios_utils_Load_Module__loggerObj__C
0082fdb0   ti_sysbios_utils_Load_postUpdate__C
0082fdb4   ti_sysbios_utils_Load_windowInMs__C
0082fdb8   ti_uia_family_c66_TimestampC66XGlobal_timerBaseAdrs__C
0082fdbc   ti_uia_runtime_ILoggerSnapshot_Interface__BASE__C
0082fdc0   ti_uia_runtime_IUIATransfer_Interface__BASE__C
0082fdc4   ti_uia_runtime_LoggerStopMode_E_badLevel__C
0082fdc8   ti_uia_runtime_LoggerStopMode_Object__count__C
0082fdcc   ti_uia_runtime_LoggerStopMode_overflowLogger__C
0082fdd0   ti_uia_runtime_LoggerStopMode_statusLogger__C
0082fdd4   xdc_runtime_Assert_E_assertFailed__C
0082fdd8   xdc_runtime_Core_A_initializedParams__C
0082fddc   xdc_runtime_Core_Module__diagsEnabled__C
0082fde0   xdc_runtime_Core_Module__diagsIncluded__C
0082fde4   xdc_runtime_Core_Module__diagsMask__C
0082fde8   xdc_runtime_Error_E_memory__C
0082fdec   xdc_runtime_Error_Module__diagsEnabled__C
0082fdf0   xdc_runtime_Error_Module__diagsIncluded__C
0082fdf4   xdc_runtime_Error_Module__diagsMask__C
0082fdf8   xdc_runtime_Error_Module__loggerFxn8__C
0082fdfc   xdc_runtime_Error_Module__loggerObj__C
0082fe00   xdc_runtime_Error_policyFxn__C
0082fe04   xdc_runtime_Error_policy__C
0082fe08   xdc_runtime_Error_raiseHook__C
0082fe0c   xdc_runtime_IFilterLogger_Interface__BASE__C
0082fe10   xdc_runtime_IGateProvider_Interface__BASE__C
0082fe14   xdc_runtime_IHeap_Interface__BASE__C
0082fe18   xdc_runtime_ILogger_Interface__BASE__C
0082fe1c   xdc_runtime_IModule_Interface__BASE__C
0082fe20   xdc_runtime_Log_L_error__C
0082fe24   xdc_runtime_LoggerBuf_E_badLevel__C
0082fe28   xdc_runtime_LoggerBuf_Module__gateObj__C
0082fe2c   xdc_runtime_LoggerBuf_Object__count__C
0082fe30   xdc_runtime_LoggerBuf_statusLogger__C
0082fe34   xdc_runtime_Memory_defaultHeapInstance__C
0082fe38   xdc_runtime_Startup_execImpl__C
0082fe3c   xdc_runtime_Startup_maxPasses__C
0082fe40   xdc_runtime_Startup_sfxnRts__C
0082fe44   xdc_runtime_Startup_sfxnTab__C
0082fe48   xdc_runtime_SysMin_bufSize__C
0082fe4c   xdc_runtime_SysMin_outputFunc__C
0082fe50   xdc_runtime_System_Module__gateObj__C
0082fe54   xdc_runtime_System_abortFxn__C
0082fe58   xdc_runtime_System_exitFxn__C
0082fe5c   xdc_runtime_System_extendFxn__C
0082fe60   xdc_runtime_System_maxAtexitHandlers__C
0082fe64   xdc_runtime_Text_charTab__C
0082fe68   xdc_runtime_Text_nameEmpty__C
0082fe6c   xdc_runtime_Text_nameStatic__C
0082fe70   xdc_runtime_Text_nameUnknown__C
0082fe74   xdc_runtime_Text_visitRopeFxn__C
0082fe78   _ZTSSi
0082fe7c   ti_sysbios_utils_Load_Module__loggerDefined__C
0082fe7e   ti_sysbios_utils_Load_autoAddTasks__C
0082fe80   _ZTSSo
0082fe84   ti_sysbios_utils_Load_hwiEnabled__C
0082fe86   ti_sysbios_utils_Load_updateInIdle__C
0082fe88   _ZZNKSt7num_putIcSt19ostreambuf_iteratorIcSt11char_traitsIcEEE6do_putES3_RSt8ios_basecPKvEs
0082fe8c   ti_uia_runtime_LoggerStopMode_Module__id__C
0082fe8e   ti_uia_runtime_LoggerStopMode_filterByLevel__C
0082fe90   _ZZNKSt7num_putIcSt19ostreambuf_iteratorIcSt11char_traitsIcEEE6do_putES3_RSt8ios_baseclEs
0082fe94   ti_uia_runtime_LoggerStopMode_isTimestampEnabled__C
0082fe96   xdc_runtime_Core_Module__id__C
0082fe98   _ZZNKSt7num_putIcSt19ostreambuf_iteratorIcSt11char_traitsIcEEE6do_putES3_RSt8ios_basecmEs
0082fe9c   xdc_runtime_Error_Module__loggerDefined__C
0082fe9e   xdc_runtime_Error_maxDepth__C
0082fea0   _ZZNKSt7num_putIcSt19ostreambuf_iteratorIcSt11char_traitsIcEEE6do_putES3_RSt8ios_basecxEs
0082fea4   xdc_runtime_LoggerBuf_Module__id__C
0082fea6   xdc_runtime_LoggerBuf_filterByLevel__C
0082fea8   _ZZNKSt7num_putIcSt19ostreambuf_iteratorIcSt11char_traitsIcEEE6do_putES3_RSt8ios_basecyEs
0082feac   xdc_runtime_Memory_Module__id__C
0082feae   xdc_runtime_SysMin_flushAtExit__C
0082feb0   _ZZNKSt7num_putIcSt19ostreambuf_iteratorIcSt11char_traitsIcEEE5_FputES3_RSt8ios_basecPKcjjjjEs
0082feb2   xdc_runtime_Text_charCnt__C
0082feb4   xdc_runtime_Text_isLoaded__C
0082feb6   xdc_runtime_Text_registryModsLastId__C
0082feb8   _ZZNKSt7num_putIcSt19ostreambuf_iteratorIcSt11char_traitsIcEEE5_FputES3_RSt8ios_basecPKcjjjjEs_0
0082feba   xdc_runtime_Text_unnamedModsLastId__C
0082fec0   ti_sysbios_BIOS_Module__state__V
0082fee4   ti_sysbios_family_c64p_Exception_Module__state__V
0082ff14   ti_sysbios_family_c64p_Hwi_Module__root__V
0082ff20   ti_sysbios_family_c64p_Hwi_Module__state__V
0082ff88   ti_sysbios_gates_GateHwi_Module__root__V
0082ff90   ti_sysbios_gates_GateMutex_Module__root__V
0082ff98   ti_sysbios_hal_Hwi_Module__root__V
0082ffa4   ti_sysbios_heaps_HeapMem_Module__root__V
0082ffac   ti_sysbios_knl_Clock_Module__root__V
0082ffb8   ti_sysbios_knl_Clock_Module__state__V
0082ffe4   ti_sysbios_knl_Event_Module__root__V
0082fff0   ti_sysbios_knl_Queue_Module__root__V
0082fff8   ti_sysbios_knl_Semaphore_Module__root__V
00830004   ti_sysbios_knl_Swi_Module__root__V
00830010   ti_sysbios_knl_Swi_Module__state__V
0083002c   ti_sysbios_knl_Task_Module__root__V
00830038   ti_sysbios_knl_Task_Module__state__V
0083007c   ti_sysbios_timers_timer64_Timer_Module__root__V
00830084   ti_sysbios_timers_timer64_Timer_Module__state__V
0083009c   ti_sysbios_utils_Load_Module__root__V
008300a0   ti_sysbios_utils_Load_Module__state__V
00830138   ti_uia_family_c66_TimestampC66XGlobal_Module__root__V
00830140   ti_uia_runtime_LogSync_Module__root__V
00830148   ti_uia_runtime_LogSync_Module__state__V
00830154   ti_uia_runtime_LoggerStopMode_Module__root__V
0083015c   ti_uia_runtime_LoggerStopMode_Module__state__V
00830164   ti_uia_runtime_QueueDescriptor_Module__state__V
00830170   xdc_runtime_Error_Module__state__V
00830174   xdc_runtime_LoggerBuf_Module__root__V
0083017c   xdc_runtime_LoggerBuf_Module__state__V
00830182   xdc_runtime_Main_Module__root__V
00830184   xdc_runtime_Memory_Module__state__V
00830188   xdc_runtime_Registry_Module__state__V
00830190   xdc_runtime_Startup_Module__state__V
00830198   xdc_runtime_SysMin_Module__state__V
008301a4   xdc_runtime_System_Module__state__V
008301ac   xdc_runtime_Text_Module__state__V
008301b4   __xdc__init__addr
008301b8   _ftable
00830398   ti_uia_runtime_LoggerStopMode_Object__table__V
00830508   ti_sysbios_timers_timer64_Timer_Module_State_0_device__A
00830668   ti_sysbios_knl_Task_Object__table__V
008306b8   TSK_idle
00830708   ti_sysbios_knl_Swi_Object__table__V
00830798   ti_sysbios_knl_Swi_Module_State_0_readyQ__A
00830818   ti_sysbios_knl_Task_Module_State_0_readyQ__A
00830910   _FDenorm
00830920   _FEps
00830930   _FInf
00830940   _FNan
00830950   _FSnan
00830960   _FRteps
00830970   _FXbig
00830974   _FZero
00830978   ti_sysbios_timers_timer64_Timer_Object__table__V
00830a0c   _ZNSt9_FacetptrISt5ctypeIcEE6_PsaveE
00830a10   ti_sysbios_gates_GateMutex_Object__table__V
00830a50   ti_sysbios_knl_Clock_Object__table__V
00830a90   ti_sysbios_timers_timer64_Timer_Module_State_0_gctrl__A
00830ad0   ti_sysbios_timers_timer64_Timer_Module_State_0_handles__A
00830b10   ti_sysbios_timers_timer64_Timer_Module_State_0_intFreqs__A
00830b50   ti_sysbios_utils_Load_Module_State_0_taskEnv__A
00830b88   C_locale
00830bbc   _ZNSt9_FacetptrISt5ctypeIwEE6_PsaveE
00830bc0   xdc_runtime_System_Module_State_0_atexitHandlers__A
00830bec   _ZNSt9_FacetptrISt7codecvtIcciEE6_PsaveE
00830c18   xdc_runtime_LoggerBuf_Object__table__V
00830c3c   _ZNSt9_FacetptrISt7codecvtIwciEE6_PsaveE
00830c60   ti_sysbios_family_c64p_Hwi_Object__table__V
00830c78   ti_sysbios_knl_Semaphore_Object__table__V
00830c90   _ZNSt6locale2id7_Id_cntE
00830c94   _ZNSt6locale7_Locimp8_ClocptrE
00830ca4   _ZNSt9_FacetptrISt7num_putIcSt19ostreambuf_iteratorIcSt11char_traitsIcEEEE6_PsaveE
00830cb4   _cleanup_ptr
00830cb8   _dtors_ptr
00830cbc   __TI_enable_exit_profile_output
00830cc0   _ZNSt8ios_base6_IndexE
00830cc4   _ZNSt8ios_base5_SyncE
00830cc8   _ZSt4_Fpz
00830ccc   _ZNSt9_FacetptrISt8numpunctIcEE6_PsaveE
00830cdc   _lock
00830ce0   _unlock
00830ce4   _ft_end
00830ce8   ti_sysbios_hal_Hwi_Object__table__V
00830cf8   __errno
00830cf8   errno
00830cfc   _ZNSt8ios_base4Init9_Init_cntE
00830d00   _ZSt14_Raise_handler
00830d08   _new_handler
00830d0c   _ZNSt6_Winit9_Init_cntE
00830d10   ti_sysbios_gates_GateHwi_Object__table__V
00830d18   ti_sysbios_knl_Task_Module_State_0_idleTask__A
00830d20   ti_sysbios_utils_Load_Module_State_0_runningTask__A
00830d28   ti_sysbios_utils_Load_Module_State_0_taskStartTime__A
00830d2c   __c_args__
00830f30   _stack
00831130   __CIOBUF_
00831130   __TI_STACK_END
00831250   __TI_INITARRAY_Base
00831298   _ZGVNSt7num_putIcSt19ostreambuf_iteratorIcSt11char_traitsIcEEE2idE
00831298   __TI_INITARRAY_Limit
00831298   __TI_STATIC_BASE
0083129c   _ZGVNSt8numpunctIcE2idE
008312a0   dynamicMemory
008312a4   __dso_handle
008312a8   g_nUsers
008312aa   g_nTransmit
008312ac   g_nReceive
008312ae   g_nSchedBlocks
008312b0   ti_uia_runtime_QueueDescriptor_gPtrToFirstDescriptor
008312b4   ti_uia_runtime_QueueDescriptor_gUpdateCount
008312b8   clock0
008312bc   task0
008312c0   clock1
008312c4   swiHandleA
008312c8   swiHandleB
008312cc   reInitSystem
008312d0   bufferHeap
00831400   ti_sysbios_family_c64p_Hwi0
00831400   ti_sysbios_family_c64p_Hwi_int0
00831420   ti_sysbios_family_c64p_Hwi_int1
00831440   ti_sysbios_family_c64p_Hwi_int2
00831460   ti_sysbios_family_c64p_Hwi_int3
00831480   ti_sysbios_family_c64p_Hwi_int4
008314a0   ti_sysbios_family_c64p_Hwi_int5
008314c0   ti_sysbios_family_c64p_Hwi_int6
008314e0   ti_sysbios_family_c64p_Hwi_int7
00831500   ti_sysbios_family_c64p_Hwi_int8
00831520   ti_sysbios_family_c64p_Hwi_int9
00831540   ti_sysbios_family_c64p_Hwi_int10
00831560   ti_sysbios_family_c64p_Hwi_int11
00831580   ti_sysbios_family_c64p_Hwi_int12
008315a0   ti_sysbios_family_c64p_Hwi_int13
008315c0   ti_sysbios_family_c64p_Hwi_int14
008315e0   ti_sysbios_family_c64p_Hwi_int15
00831e4c   __TI_Handler_Table_Base
00831e58   __TI_Handler_Table_Limit
00831e70   __TI_CINIT_Base
00831ea8   __TI_CINIT_Limit
0c000000   globalChannelMatrix
0c00c800   ti_sysbios_heaps_HeapMem_Instance_State_0_buf__A
0c0147f8   ti_sysbios_heaps_HeapMem_Object__table__V
ffffffff   __TI_pprof_out_hndl
ffffffff   __TI_prof_data_size
ffffffff   __TI_prof_data_start
ffffffff   __binit__
ffffffff   binit

[1307 symbols]
